	.text
	.file	"test.cpp"
	.file	1 "/usr/bin/../lib/gcc/x86_64-linux-gnu/9/../../../../include/x86_64-linux-gnu/c++/9/bits" "atomic_word.h"
	.file	2 "/usr/bin/../lib/gcc/x86_64-linux-gnu/9/../../../../include/c++/9/bits" "ios_base.h"
	.file	3 "/usr/bin/../lib/gcc/x86_64-linux-gnu/9/../../../../include/c++/9" "iostream"
	.file	4 "/usr/include/x86_64-linux-gnu/bits/types" "__mbstate_t.h"
	.file	5 "/usr/include/x86_64-linux-gnu/bits/types" "mbstate_t.h"
	.file	6 "/usr/bin/../lib/gcc/x86_64-linux-gnu/9/../../../../include/c++/9" "cwchar"
	.file	7 "/usr/include/x86_64-linux-gnu/bits/types" "wint_t.h"
	.file	8 "/usr/include" "wchar.h"
	.file	9 "/usr/include/x86_64-linux-gnu/bits/types" "__FILE.h"
	.file	10 "/usr/lib/llvm-11/lib/clang/11.0.0/include" "stddef.h"
	.file	11 "/usr/bin/../lib/gcc/x86_64-linux-gnu/9/../../../../include/c++/9/bits" "exception_ptr.h"
	.file	12 "/usr/bin/../lib/gcc/x86_64-linux-gnu/9/../../../../include/x86_64-linux-gnu/c++/9/bits" "c++config.h"
	.file	13 "/usr/bin/../lib/gcc/x86_64-linux-gnu/9/../../../../include/c++/9/debug" "debug.h"
	.file	14 "/usr/include/x86_64-linux-gnu/bits" "types.h"
	.file	15 "/usr/include/x86_64-linux-gnu/bits" "stdint-intn.h"
	.file	16 "/usr/bin/../lib/gcc/x86_64-linux-gnu/9/../../../../include/c++/9" "cstdint"
	.file	17 "/usr/include" "stdint.h"
	.file	18 "/usr/include/x86_64-linux-gnu/bits" "stdint-uintn.h"
	.file	19 "/usr/bin/../lib/gcc/x86_64-linux-gnu/9/../../../../include/c++/9" "clocale"
	.file	20 "/usr/include" "locale.h"
	.file	21 "/usr/include" "ctype.h"
	.file	22 "/usr/bin/../lib/gcc/x86_64-linux-gnu/9/../../../../include/c++/9" "cctype"
	.file	23 "/usr/bin/../lib/gcc/x86_64-linux-gnu/9/../../../../include/c++/9/ext" "new_allocator.h"
	.file	24 "/usr/include" "stdlib.h"
	.file	25 "/usr/bin/../lib/gcc/x86_64-linux-gnu/9/../../../../include/c++/9/bits" "std_abs.h"
	.file	26 "/usr/bin/../lib/gcc/x86_64-linux-gnu/9/../../../../include/c++/9" "cstdlib"
	.file	27 "/usr/include/x86_64-linux-gnu/bits/types" "FILE.h"
	.file	28 "/usr/bin/../lib/gcc/x86_64-linux-gnu/9/../../../../include/c++/9" "cstdio"
	.file	29 "/usr/include/x86_64-linux-gnu/bits/types" "__fpos_t.h"
	.file	30 "/usr/include" "stdio.h"
	.file	31 "/usr/include" "wctype.h"
	.file	32 "/usr/bin/../lib/gcc/x86_64-linux-gnu/9/../../../../include/c++/9" "cwctype"
	.file	33 "/usr/include/x86_64-linux-gnu/bits" "wctype-wchar.h"
	.section	.text.startup,"ax",@progbits
	.p2align	4, 0x90                         # -- Begin function __cxx_global_var_init
	.type	__cxx_global_var_init,@function
__cxx_global_var_init:                  # @__cxx_global_var_init
.Lfunc_begin0:
	.loc	3 74 0                          # /usr/bin/../lib/gcc/x86_64-linux-gnu/9/../../../../include/c++/9/iostream:74:0
	.cfi_startproc
# %bb.0:
	pushq	%rbp
	.cfi_def_cfa_offset 16
	.cfi_offset %rbp, -16
	movq	%rsp, %rbp
	.cfi_def_cfa_register %rbp
.Ltmp0:
	.loc	3 74 25 prologue_end            # /usr/bin/../lib/gcc/x86_64-linux-gnu/9/../../../../include/c++/9/iostream:74:25
	movabsq	$_ZStL8__ioinit, %rdi
	callq	_ZNSt8ios_base4InitC1Ev
	movabsq	$_ZNSt8ios_base4InitD1Ev, %rax
	movq	%rax, %rdi
	movabsq	$_ZStL8__ioinit, %rsi
	movabsq	$__dso_handle, %rdx
	callq	__cxa_atexit
	popq	%rbp
	.cfi_def_cfa %rsp, 8
	retq
.Ltmp1:
.Lfunc_end0:
	.size	__cxx_global_var_init, .Lfunc_end0-__cxx_global_var_init
	.cfi_endproc
                                        # -- End function
	.text
	.globl	_Z8fp_printPU7_ExtIntILi704EEj  # -- Begin function _Z8fp_printPU7_ExtIntILi704EEj
	.p2align	4, 0x90
	.type	_Z8fp_printPU7_ExtIntILi704EEj,@function
_Z8fp_printPU7_ExtIntILi704EEj:         # @_Z8fp_printPU7_ExtIntILi704EEj
.Lfunc_begin1:
	.file	34 "/home/core/CP6/test" "test.cpp"
	.loc	34 12 0                         # test.cpp:12:0
	.cfi_startproc
# %bb.0:
	pushq	%rbp
	.cfi_def_cfa_offset 16
	.cfi_offset %rbp, -16
	movq	%rsp, %rbp
	.cfi_def_cfa_register %rbp
	pushq	%r15
	pushq	%r14
	pushq	%r12
	pushq	%rbx
	subq	$192, %rsp
	.cfi_offset %rbx, -48
	.cfi_offset %r12, -40
	.cfi_offset %r14, -32
	.cfi_offset %r15, -24
	movq	%rdi, -40(%rbp)
.Ltmp2:
	.loc	34 13 13 prologue_end           # test.cpp:13:13
	movl	$0, -44(%rbp)
.LBB1_1:                                # =>This Inner Loop Header: Depth=1
.Ltmp3:
	.loc	34 13 18 is_stmt 0              # test.cpp:13:18
	cmpl	$88, -44(%rbp)
.Ltmp4:
	.loc	34 13 5                         # test.cpp:13:5
	jge	.LBB1_4
# %bb.2:                                #   in Loop: Header=BB1_1 Depth=1
.Ltmp5:
	.loc	34 14 23 is_stmt 1              # test.cpp:14:23
	movq	-40(%rbp), %rax
	.loc	34 14 26 is_stmt 0              # test.cpp:14:26
	movslq	-44(%rbp), %rcx
	.loc	34 14 25                        # test.cpp:14:25
	imulq	$88, %rcx, %rcx
	.loc	34 14 21                        # test.cpp:14:21
	movq	80(%rax,%rcx), %rdx
	movq	64(%rax,%rcx), %rsi
	movq	72(%rax,%rcx), %rdi
	movq	(%rax,%rcx), %r8
	movq	8(%rax,%rcx), %r9
	movq	16(%rax,%rcx), %r10
	movq	24(%rax,%rcx), %r11
	movq	32(%rax,%rcx), %rbx
	movq	40(%rax,%rcx), %r14
	movq	48(%rax,%rcx), %r15
	movq	56(%rax,%rcx), %rax
	.loc	34 14 9                         # test.cpp:14:9
	movq	%rax, -80(%rbp)
	movq	%r15, -88(%rbp)
	movq	%r14, -96(%rbp)
	movq	%rbx, -104(%rbp)
	movq	%r11, -112(%rbp)
	movq	%r10, -120(%rbp)
	movq	%r9, -128(%rbp)
	movq	%r8, -136(%rbp)
	movq	%rdi, -64(%rbp)
	movq	%rsi, -72(%rbp)
	movq	%rdx, -56(%rbp)
	movq	-56(%rbp), %rax
	movq	%rsp, %rcx
	movq	%rax, 80(%rcx)
	movups	-72(%rbp), %xmm0
	movups	%xmm0, 64(%rcx)
	movups	-136(%rbp), %xmm0
	movups	-120(%rbp), %xmm1
	movups	-104(%rbp), %xmm2
	movups	-88(%rbp), %xmm3
	movups	%xmm3, 48(%rcx)
	movups	%xmm2, 32(%rcx)
	movups	%xmm1, 16(%rcx)
	movups	%xmm0, (%rcx)
	movl	$.L.str, %edi
	xorl	%r12d, %r12d
                                        # kill: def $r12b killed $r12b killed $r12d
	movb	%r12b, %al
	callq	printf
.Ltmp6:
# %bb.3:                                #   in Loop: Header=BB1_1 Depth=1
	.loc	34 13 23 is_stmt 1              # test.cpp:13:23
	movl	-44(%rbp), %eax
	addl	$1, %eax
	movl	%eax, -44(%rbp)
	.loc	34 13 5 is_stmt 0               # test.cpp:13:5
	jmp	.LBB1_1
.Ltmp7:
.LBB1_4:
	.loc	34 16 1 is_stmt 1               # test.cpp:16:1
	addq	$192, %rsp
	popq	%rbx
	popq	%r12
	popq	%r14
	popq	%r15
	popq	%rbp
	.cfi_def_cfa %rsp, 8
	retq
.Ltmp8:
.Lfunc_end1:
	.size	_Z8fp_printPU7_ExtIntILi704EEj, .Lfunc_end1-_Z8fp_printPU7_ExtIntILi704EEj
	.cfi_endproc
                                        # -- End function
	.globl	main                            # -- Begin function main
	.p2align	4, 0x90
	.type	main,@function
main:                                   # @main
.Lfunc_begin2:
	.loc	34 19 0                         # test.cpp:19:0
	.cfi_startproc
# %bb.0:
	pushq	%rbp
	.cfi_def_cfa_offset 16
	.cfi_offset %rbp, -16
	movq	%rsp, %rbp
	.cfi_def_cfa_register %rbp
	pushq	%r15
	pushq	%r14
	pushq	%r13
	pushq	%r12
	pushq	%rbx
	subq	$1544, %rsp                     # imm = 0x608
	.cfi_offset %rbx, -56
	.cfi_offset %r12, -48
	.cfi_offset %r13, -40
	.cfi_offset %r14, -32
	.cfi_offset %r15, -24
	movl	$0, -44(%rbp)
	movabsq	$1844674407370955161, %rax      # imm = 0x1999999999999999
.Ltmp9:
	.loc	34 20 10 prologue_end           # test.cpp:20:10
	movq	%rax, -136(%rbp)
	movq	$0, -80(%rbp)
	movq	$0, -88(%rbp)
	movq	$0, -96(%rbp)
	movq	$0, -104(%rbp)
	movq	$0, -112(%rbp)
	movq	$0, -120(%rbp)
	movq	$0, -128(%rbp)
	movq	$0, -64(%rbp)
	movq	$0, -72(%rbp)
	movq	$0, -56(%rbp)
	.loc	34 21 10                        # test.cpp:21:10
	movq	%rax, -224(%rbp)
	movq	$0, -168(%rbp)
	movq	$0, -176(%rbp)
	movq	$0, -184(%rbp)
	movq	$0, -192(%rbp)
	movq	$0, -200(%rbp)
	movq	$0, -208(%rbp)
	movq	$0, -216(%rbp)
	movq	$0, -152(%rbp)
	movq	$0, -160(%rbp)
	movq	$0, -144(%rbp)
	.loc	34 23 10                        # test.cpp:23:10
	movq	$0, -256(%rbp)
	movq	$0, -264(%rbp)
	movq	$0, -272(%rbp)
	movq	$0, -280(%rbp)
	movq	$0, -288(%rbp)
	movq	$0, -296(%rbp)
	movq	$0, -304(%rbp)
	movq	$0, -312(%rbp)
	movq	$0, -240(%rbp)
	movq	$0, -248(%rbp)
	movq	$0, -232(%rbp)
	.loc	34 25 9                         # test.cpp:25:9
	movq	-56(%rbp), %rax
	movq	-64(%rbp), %rcx
	movq	-72(%rbp), %rdx
	movq	-136(%rbp), %rsi
	movq	-128(%rbp), %rdi
	movq	-112(%rbp), %r8
	movq	-120(%rbp), %r9
	movq	-96(%rbp), %r10
	movq	-104(%rbp), %r11
	movq	-80(%rbp), %rbx
	movq	-88(%rbp), %r14
	.loc	34 25 13 is_stmt 0              # test.cpp:25:13
	movq	-144(%rbp), %r15
	movq	-152(%rbp), %r12
	movq	-160(%rbp), %r13
	movq	%rax, -320(%rbp)                # 8-byte Spill
	movq	-168(%rbp), %rax
	movq	%rax, -328(%rbp)                # 8-byte Spill
	movq	-176(%rbp), %rax
	movq	%rax, -336(%rbp)                # 8-byte Spill
	movq	-184(%rbp), %rax
	movq	%rax, -344(%rbp)                # 8-byte Spill
	movq	-192(%rbp), %rax
	movq	%rax, -352(%rbp)                # 8-byte Spill
	movq	-200(%rbp), %rax
	movq	%rax, -360(%rbp)                # 8-byte Spill
	movq	-208(%rbp), %rax
	movq	%rax, -368(%rbp)                # 8-byte Spill
	movq	-224(%rbp), %rax
	movq	%rax, -376(%rbp)                # 8-byte Spill
	movq	-216(%rbp), %rax
	movq	%rax, -384(%rbp)                # 8-byte Spill
	.loc	34 25 11                        # test.cpp:25:11
	movq	%r14, %rax
	movq	%rcx, -392(%rbp)                # 8-byte Spill
	movq	-376(%rbp), %rcx                # 8-byte Reload
	movq	%rdx, -400(%rbp)                # 8-byte Spill
	mulq	%rcx
	movq	%rax, -408(%rbp)                # 8-byte Spill
	movq	%rbx, %rax
	movq	%rdx, -416(%rbp)                # 8-byte Spill
	mulq	%rcx
	movq	-416(%rbp), %rcx                # 8-byte Reload
	addq	%rcx, %rax
	adcq	$0, %rdx
	movq	%rax, -424(%rbp)                # 8-byte Spill
	movq	%r14, %rax
	movq	-384(%rbp), %rcx                # 8-byte Reload
	movq	%rdx, -432(%rbp)                # 8-byte Spill
	mulq	%rcx
	movq	-424(%rbp), %rcx                # 8-byte Reload
	addq	%rcx, %rax
	movq	-432(%rbp), %rcx                # 8-byte Reload
	adcq	%rdx, %rcx
	setb	%dl
	movzbl	%dl, %edx
                                        # kill: def $rdx killed $edx
	movq	%rax, -440(%rbp)                # 8-byte Spill
	movq	%rbx, %rax
	movq	%rcx, -448(%rbp)                # 8-byte Spill
	movq	-384(%rbp), %rcx                # 8-byte Reload
	movq	%rdx, -456(%rbp)                # 8-byte Spill
	mulq	%rcx
	movq	-448(%rbp), %rcx                # 8-byte Reload
	addq	%rcx, %rax
	movq	-456(%rbp), %rcx                # 8-byte Reload
	adcq	%rcx, %rdx
	movq	%rax, -464(%rbp)                # 8-byte Spill
	movq	%r11, %rax
	movq	-376(%rbp), %rcx                # 8-byte Reload
	movq	%rdx, -472(%rbp)                # 8-byte Spill
	mulq	%rcx
	movq	%rax, -480(%rbp)                # 8-byte Spill
	movq	%r10, %rax
	movq	%rdx, -488(%rbp)                # 8-byte Spill
	mulq	%rcx
	movq	-488(%rbp), %rcx                # 8-byte Reload
	addq	%rcx, %rax
	adcq	$0, %rdx
	movq	%rax, -496(%rbp)                # 8-byte Spill
	movq	%r11, %rax
	movq	-384(%rbp), %rcx                # 8-byte Reload
	movq	%rdx, -504(%rbp)                # 8-byte Spill
	mulq	%rcx
	movq	-496(%rbp), %rcx                # 8-byte Reload
	addq	%rcx, %rax
	movq	-504(%rbp), %rcx                # 8-byte Reload
	adcq	%rdx, %rcx
	setb	%dl
	movzbl	%dl, %edx
                                        # kill: def $rdx killed $edx
	movq	%rax, -512(%rbp)                # 8-byte Spill
	movq	%r10, %rax
	movq	%rcx, -520(%rbp)                # 8-byte Spill
	movq	-384(%rbp), %rcx                # 8-byte Reload
	movq	%rdx, -528(%rbp)                # 8-byte Spill
	mulq	%rcx
	movq	-520(%rbp), %rcx                # 8-byte Reload
	addq	%rcx, %rax
	movq	-528(%rbp), %rcx                # 8-byte Reload
	adcq	%rcx, %rdx
	movq	-408(%rbp), %rcx                # 8-byte Reload
	addq	%rax, %rcx
	movq	-440(%rbp), %rax                # 8-byte Reload
	adcq	%rdx, %rax
	movq	-464(%rbp), %rdx                # 8-byte Reload
	adcq	$0, %rdx
	movq	%rax, -536(%rbp)                # 8-byte Spill
	movq	-472(%rbp), %rax                # 8-byte Reload
	adcq	$0, %rax
	movq	%rax, -544(%rbp)                # 8-byte Spill
	movq	%r11, %rax
	movq	%rcx, -552(%rbp)                # 8-byte Spill
	movq	-368(%rbp), %rcx                # 8-byte Reload
	movq	%rdx, -560(%rbp)                # 8-byte Spill
	mulq	%rcx
	movq	%rax, -568(%rbp)                # 8-byte Spill
	movq	%r10, %rax
	movq	%rdx, -576(%rbp)                # 8-byte Spill
	mulq	%rcx
	movq	-576(%rbp), %rcx                # 8-byte Reload
	addq	%rcx, %rax
	adcq	$0, %rdx
	movq	%rax, -584(%rbp)                # 8-byte Spill
	movq	%r11, %rax
	movq	-360(%rbp), %rcx                # 8-byte Reload
	movq	%rdx, -592(%rbp)                # 8-byte Spill
	mulq	%rcx
	movq	-584(%rbp), %rcx                # 8-byte Reload
	addq	%rcx, %rax
	movq	-592(%rbp), %rcx                # 8-byte Reload
	adcq	%rdx, %rcx
	setb	%dl
	movzbl	%dl, %edx
                                        # kill: def $rdx killed $edx
	movq	%rax, -600(%rbp)                # 8-byte Spill
	movq	%r10, %rax
	movq	%rcx, -608(%rbp)                # 8-byte Spill
	movq	-360(%rbp), %rcx                # 8-byte Reload
	movq	%rdx, -616(%rbp)                # 8-byte Spill
	mulq	%rcx
	movq	-608(%rbp), %rcx                # 8-byte Reload
	addq	%rcx, %rax
	movq	-616(%rbp), %rcx                # 8-byte Reload
	adcq	%rcx, %rdx
	movq	-568(%rbp), %rcx                # 8-byte Reload
	movq	%rax, -624(%rbp)                # 8-byte Spill
	movq	-552(%rbp), %rax                # 8-byte Reload
	addq	%rax, %rcx
	movq	-600(%rbp), %rax                # 8-byte Reload
	movq	%rcx, -632(%rbp)                # 8-byte Spill
	movq	-536(%rbp), %rcx                # 8-byte Reload
	adcq	%rcx, %rax
	movq	-624(%rbp), %rcx                # 8-byte Reload
	adcq	$0, %rcx
	adcq	$0, %rdx
	movq	%rax, -640(%rbp)                # 8-byte Spill
	movq	-560(%rbp), %rax                # 8-byte Reload
	addq	%rcx, %rax
	movq	-544(%rbp), %rcx                # 8-byte Reload
	adcq	%rdx, %rcx
	setb	%dl
	movzbl	%dl, %edx
                                        # kill: def $rdx killed $edx
	movq	%rax, -648(%rbp)                # 8-byte Spill
	movq	%r14, %rax
	movq	%rcx, -656(%rbp)                # 8-byte Spill
	movq	-368(%rbp), %rcx                # 8-byte Reload
	movq	%rdx, -664(%rbp)                # 8-byte Spill
	mulq	%rcx
	movq	%rax, -672(%rbp)                # 8-byte Spill
	movq	%rbx, %rax
	movq	%rdx, -680(%rbp)                # 8-byte Spill
	mulq	%rcx
	movq	-680(%rbp), %rcx                # 8-byte Reload
	addq	%rcx, %rax
	adcq	$0, %rdx
	movq	%rax, -688(%rbp)                # 8-byte Spill
	movq	%r14, %rax
	movq	-360(%rbp), %rcx                # 8-byte Reload
	movq	%rdx, -696(%rbp)                # 8-byte Spill
	mulq	%rcx
	movq	-688(%rbp), %rcx                # 8-byte Reload
	addq	%rcx, %rax
	movq	-696(%rbp), %rcx                # 8-byte Reload
	adcq	%rdx, %rcx
	movq	-360(%rbp), %rdx                # 8-byte Reload
	imulq	%rdx, %rbx
	addq	%rcx, %rbx
	movq	-672(%rbp), %rcx                # 8-byte Reload
	movq	-648(%rbp), %rdx                # 8-byte Reload
	addq	%rdx, %rcx
	movq	-656(%rbp), %rdx                # 8-byte Reload
	adcq	%rdx, %rax
	movq	-664(%rbp), %rdx                # 8-byte Reload
	adcq	%rdx, %rbx
	movq	%rax, -704(%rbp)                # 8-byte Spill
	movq	%r9, %rax
	movq	-376(%rbp), %rdx                # 8-byte Reload
	mulq	%rdx
	movq	%rax, -712(%rbp)                # 8-byte Spill
	movq	%r8, %rax
	movq	%rcx, -720(%rbp)                # 8-byte Spill
	movq	-376(%rbp), %rcx                # 8-byte Reload
	movq	%rdx, -728(%rbp)                # 8-byte Spill
	mulq	%rcx
	movq	-728(%rbp), %rcx                # 8-byte Reload
	addq	%rcx, %rax
	adcq	$0, %rdx
	movq	%rax, -736(%rbp)                # 8-byte Spill
	movq	%r9, %rax
	movq	-384(%rbp), %rcx                # 8-byte Reload
	movq	%rdx, -744(%rbp)                # 8-byte Spill
	mulq	%rcx
	movq	-736(%rbp), %rcx                # 8-byte Reload
	addq	%rcx, %rax
	movq	-744(%rbp), %rcx                # 8-byte Reload
	adcq	%rdx, %rcx
	setb	%dl
	movzbl	%dl, %edx
                                        # kill: def $rdx killed $edx
	movq	%rax, -752(%rbp)                # 8-byte Spill
	movq	%r8, %rax
	movq	%rcx, -760(%rbp)                # 8-byte Spill
	movq	-384(%rbp), %rcx                # 8-byte Reload
	movq	%rdx, -768(%rbp)                # 8-byte Spill
	mulq	%rcx
	movq	-760(%rbp), %rcx                # 8-byte Reload
	addq	%rcx, %rax
	movq	-768(%rbp), %rcx                # 8-byte Reload
	adcq	%rcx, %rdx
	movq	%rax, -776(%rbp)                # 8-byte Spill
	movq	%rsi, %rax
	movq	-376(%rbp), %rcx                # 8-byte Reload
	movq	%rdx, -784(%rbp)                # 8-byte Spill
	mulq	%rcx
	movq	%rax, -792(%rbp)                # 8-byte Spill
	movq	%rdi, %rax
	movq	%rdx, -800(%rbp)                # 8-byte Spill
	mulq	%rcx
	movq	-800(%rbp), %rcx                # 8-byte Reload
	addq	%rcx, %rax
	adcq	$0, %rdx
	movq	%rax, -808(%rbp)                # 8-byte Spill
	movq	%rsi, %rax
	movq	-384(%rbp), %rcx                # 8-byte Reload
	movq	%rdx, -816(%rbp)                # 8-byte Spill
	mulq	%rcx
	movq	-808(%rbp), %rcx                # 8-byte Reload
	addq	%rcx, %rax
	movq	-816(%rbp), %rcx                # 8-byte Reload
	adcq	%rdx, %rcx
	setb	%dl
	movzbl	%dl, %edx
                                        # kill: def $rdx killed $edx
	movq	%rax, -824(%rbp)                # 8-byte Spill
	movq	%rdi, %rax
	movq	%rcx, -832(%rbp)                # 8-byte Spill
	movq	-384(%rbp), %rcx                # 8-byte Reload
	movq	%rdx, -840(%rbp)                # 8-byte Spill
	mulq	%rcx
	movq	-832(%rbp), %rcx                # 8-byte Reload
	addq	%rcx, %rax
	movq	-840(%rbp), %rcx                # 8-byte Reload
	adcq	%rcx, %rdx
	movq	-712(%rbp), %rcx                # 8-byte Reload
	addq	%rax, %rcx
	movq	-752(%rbp), %rax                # 8-byte Reload
	adcq	%rdx, %rax
	movq	-776(%rbp), %rdx                # 8-byte Reload
	adcq	$0, %rdx
	movq	%rax, -848(%rbp)                # 8-byte Spill
	movq	-784(%rbp), %rax                # 8-byte Reload
	adcq	$0, %rax
	movq	%rax, -856(%rbp)                # 8-byte Spill
	movq	%rsi, %rax
	movq	%rcx, -864(%rbp)                # 8-byte Spill
	movq	-368(%rbp), %rcx                # 8-byte Reload
	movq	%rdx, -872(%rbp)                # 8-byte Spill
	mulq	%rcx
	movq	%rax, -880(%rbp)                # 8-byte Spill
	movq	%rdi, %rax
	movq	%rdx, -888(%rbp)                # 8-byte Spill
	mulq	%rcx
	movq	-888(%rbp), %rcx                # 8-byte Reload
	addq	%rcx, %rax
	adcq	$0, %rdx
	movq	%rax, -896(%rbp)                # 8-byte Spill
	movq	%rsi, %rax
	movq	-360(%rbp), %rcx                # 8-byte Reload
	movq	%rdx, -904(%rbp)                # 8-byte Spill
	mulq	%rcx
	movq	-896(%rbp), %rcx                # 8-byte Reload
	addq	%rcx, %rax
	movq	-904(%rbp), %rcx                # 8-byte Reload
	adcq	%rdx, %rcx
	setb	%dl
	movzbl	%dl, %edx
                                        # kill: def $rdx killed $edx
	movq	%rax, -912(%rbp)                # 8-byte Spill
	movq	%rdi, %rax
	movq	%rcx, -920(%rbp)                # 8-byte Spill
	movq	-360(%rbp), %rcx                # 8-byte Reload
	movq	%rdx, -928(%rbp)                # 8-byte Spill
	mulq	%rcx
	movq	-920(%rbp), %rcx                # 8-byte Reload
	addq	%rcx, %rax
	movq	-928(%rbp), %rcx                # 8-byte Reload
	adcq	%rcx, %rdx
	movq	-880(%rbp), %rcx                # 8-byte Reload
	movq	%rax, -936(%rbp)                # 8-byte Spill
	movq	-864(%rbp), %rax                # 8-byte Reload
	addq	%rax, %rcx
	movq	-912(%rbp), %rax                # 8-byte Reload
	movq	%rcx, -944(%rbp)                # 8-byte Spill
	movq	-848(%rbp), %rcx                # 8-byte Reload
	adcq	%rcx, %rax
	movq	-936(%rbp), %rcx                # 8-byte Reload
	adcq	$0, %rcx
	adcq	$0, %rdx
	movq	%rax, -952(%rbp)                # 8-byte Spill
	movq	-872(%rbp), %rax                # 8-byte Reload
	addq	%rcx, %rax
	movq	-856(%rbp), %rcx                # 8-byte Reload
	adcq	%rdx, %rcx
	setb	%dl
	movzbl	%dl, %edx
                                        # kill: def $rdx killed $edx
	movq	%rax, -960(%rbp)                # 8-byte Spill
	movq	%r9, %rax
	movq	%rcx, -968(%rbp)                # 8-byte Spill
	movq	-368(%rbp), %rcx                # 8-byte Reload
	movq	%rdx, -976(%rbp)                # 8-byte Spill
	mulq	%rcx
	movq	%rax, -984(%rbp)                # 8-byte Spill
	movq	%r8, %rax
	movq	%rdx, -992(%rbp)                # 8-byte Spill
	mulq	%rcx
	movq	-992(%rbp), %rcx                # 8-byte Reload
	addq	%rcx, %rax
	adcq	$0, %rdx
	movq	%rax, -1000(%rbp)               # 8-byte Spill
	movq	%r9, %rax
	movq	-360(%rbp), %rcx                # 8-byte Reload
	movq	%rdx, -1008(%rbp)               # 8-byte Spill
	mulq	%rcx
	movq	-1000(%rbp), %rcx               # 8-byte Reload
	addq	%rcx, %rax
	movq	-1008(%rbp), %rcx               # 8-byte Reload
	adcq	%rdx, %rcx
	setb	%dl
	movzbl	%dl, %edx
                                        # kill: def $rdx killed $edx
	movq	%rax, -1016(%rbp)               # 8-byte Spill
	movq	%r8, %rax
	movq	%rcx, -1024(%rbp)               # 8-byte Spill
	movq	-360(%rbp), %rcx                # 8-byte Reload
	movq	%rdx, -1032(%rbp)               # 8-byte Spill
	mulq	%rcx
	movq	-1024(%rbp), %rcx               # 8-byte Reload
	addq	%rcx, %rax
	movq	-1032(%rbp), %rcx               # 8-byte Reload
	adcq	%rcx, %rdx
	movq	-984(%rbp), %rcx                # 8-byte Reload
	movq	%rax, -1040(%rbp)               # 8-byte Spill
	movq	-960(%rbp), %rax                # 8-byte Reload
	addq	%rax, %rcx
	movq	-1016(%rbp), %rax               # 8-byte Reload
	movq	%rcx, -1048(%rbp)               # 8-byte Spill
	movq	-968(%rbp), %rcx                # 8-byte Reload
	adcq	%rcx, %rax
	movq	-1040(%rbp), %rcx               # 8-byte Reload
	movq	%rax, -1056(%rbp)               # 8-byte Spill
	movq	-976(%rbp), %rax                # 8-byte Reload
	adcq	%rax, %rcx
	adcq	$0, %rdx
	movq	-480(%rbp), %rax                # 8-byte Reload
	movq	%rcx, -1064(%rbp)               # 8-byte Spill
	movq	-1048(%rbp), %rcx               # 8-byte Reload
	addq	%rcx, %rax
	movq	-512(%rbp), %rcx                # 8-byte Reload
	movq	%rax, -1072(%rbp)               # 8-byte Spill
	movq	-1056(%rbp), %rax               # 8-byte Reload
	adcq	%rax, %rcx
	movq	-632(%rbp), %rax                # 8-byte Reload
	movq	%rcx, -1080(%rbp)               # 8-byte Spill
	movq	-1064(%rbp), %rcx               # 8-byte Reload
	adcq	%rcx, %rax
	movq	-640(%rbp), %rcx                # 8-byte Reload
	adcq	%rdx, %rcx
	movq	-720(%rbp), %rdx                # 8-byte Reload
	adcq	$0, %rdx
	movq	%rax, -1088(%rbp)               # 8-byte Spill
	movq	-704(%rbp), %rax                # 8-byte Reload
	adcq	$0, %rax
	adcq	$0, %rbx
	movq	%rax, -1096(%rbp)               # 8-byte Spill
	movq	%r9, %rax
	movq	%rcx, -1104(%rbp)               # 8-byte Spill
	movq	-352(%rbp), %rcx                # 8-byte Reload
	movq	%rdx, -1112(%rbp)               # 8-byte Spill
	mulq	%rcx
	movq	%rax, -1120(%rbp)               # 8-byte Spill
	movq	%r8, %rax
	movq	%rdx, -1128(%rbp)               # 8-byte Spill
	mulq	%rcx
	movq	-1128(%rbp), %rcx               # 8-byte Reload
	addq	%rcx, %rax
	adcq	$0, %rdx
	movq	%rax, -1136(%rbp)               # 8-byte Spill
	movq	%r9, %rax
	movq	-344(%rbp), %rcx                # 8-byte Reload
	movq	%rdx, -1144(%rbp)               # 8-byte Spill
	mulq	%rcx
	movq	-1136(%rbp), %rcx               # 8-byte Reload
	addq	%rcx, %rax
	movq	-1144(%rbp), %rcx               # 8-byte Reload
	adcq	%rdx, %rcx
	setb	%dl
	movzbl	%dl, %edx
                                        # kill: def $rdx killed $edx
	movq	%rax, -1152(%rbp)               # 8-byte Spill
	movq	%r8, %rax
	movq	%rcx, -1160(%rbp)               # 8-byte Spill
	movq	-344(%rbp), %rcx                # 8-byte Reload
	movq	%rdx, -1168(%rbp)               # 8-byte Spill
	mulq	%rcx
	movq	-1160(%rbp), %rcx               # 8-byte Reload
	addq	%rcx, %rax
	movq	-1168(%rbp), %rcx               # 8-byte Reload
	adcq	%rcx, %rdx
	movq	%rax, -1176(%rbp)               # 8-byte Spill
	movq	%rsi, %rax
	movq	-352(%rbp), %rcx                # 8-byte Reload
	movq	%rdx, -1184(%rbp)               # 8-byte Spill
	mulq	%rcx
	movq	%rax, -1192(%rbp)               # 8-byte Spill
	movq	%rdi, %rax
	movq	%rdx, -1200(%rbp)               # 8-byte Spill
	mulq	%rcx
	movq	-1200(%rbp), %rcx               # 8-byte Reload
	addq	%rcx, %rax
	adcq	$0, %rdx
	movq	%rax, -1208(%rbp)               # 8-byte Spill
	movq	%rsi, %rax
	movq	-344(%rbp), %rcx                # 8-byte Reload
	movq	%rdx, -1216(%rbp)               # 8-byte Spill
	mulq	%rcx
	movq	-1208(%rbp), %rcx               # 8-byte Reload
	addq	%rcx, %rax
	movq	-1216(%rbp), %rcx               # 8-byte Reload
	adcq	%rdx, %rcx
	setb	%dl
	movzbl	%dl, %edx
                                        # kill: def $rdx killed $edx
	movq	%rax, -1224(%rbp)               # 8-byte Spill
	movq	%rdi, %rax
	movq	%rcx, -1232(%rbp)               # 8-byte Spill
	movq	-344(%rbp), %rcx                # 8-byte Reload
	movq	%rdx, -1240(%rbp)               # 8-byte Spill
	mulq	%rcx
	movq	-1232(%rbp), %rcx               # 8-byte Reload
	addq	%rcx, %rax
	movq	-1240(%rbp), %rcx               # 8-byte Reload
	adcq	%rcx, %rdx
	movq	-1120(%rbp), %rcx               # 8-byte Reload
	addq	%rax, %rcx
	movq	-1152(%rbp), %rax               # 8-byte Reload
	adcq	%rdx, %rax
	movq	-1176(%rbp), %rdx               # 8-byte Reload
	adcq	$0, %rdx
	movq	%rax, -1248(%rbp)               # 8-byte Spill
	movq	-1184(%rbp), %rax               # 8-byte Reload
	adcq	$0, %rax
	movq	%rax, -1256(%rbp)               # 8-byte Spill
	movq	%rsi, %rax
	movq	%rcx, -1264(%rbp)               # 8-byte Spill
	movq	-336(%rbp), %rcx                # 8-byte Reload
	movq	%rdx, -1272(%rbp)               # 8-byte Spill
	mulq	%rcx
	movq	%rax, -1280(%rbp)               # 8-byte Spill
	movq	%rdi, %rax
	movq	%rdx, -1288(%rbp)               # 8-byte Spill
	mulq	%rcx
	movq	-1288(%rbp), %rcx               # 8-byte Reload
	addq	%rcx, %rax
	adcq	$0, %rdx
	movq	%rax, -1296(%rbp)               # 8-byte Spill
	movq	%rsi, %rax
	movq	-328(%rbp), %rcx                # 8-byte Reload
	movq	%rdx, -1304(%rbp)               # 8-byte Spill
	mulq	%rcx
	movq	-1296(%rbp), %rcx               # 8-byte Reload
	addq	%rcx, %rax
	movq	-1304(%rbp), %rcx               # 8-byte Reload
	adcq	%rdx, %rcx
	setb	%dl
	movzbl	%dl, %edx
                                        # kill: def $rdx killed $edx
	movq	%rax, -1312(%rbp)               # 8-byte Spill
	movq	%rdi, %rax
	movq	%rcx, -1320(%rbp)               # 8-byte Spill
	movq	-328(%rbp), %rcx                # 8-byte Reload
	movq	%rdx, -1328(%rbp)               # 8-byte Spill
	mulq	%rcx
	movq	-1320(%rbp), %rcx               # 8-byte Reload
	addq	%rcx, %rax
	movq	-1328(%rbp), %rcx               # 8-byte Reload
	adcq	%rcx, %rdx
	movq	-1280(%rbp), %rcx               # 8-byte Reload
	movq	%rax, -1336(%rbp)               # 8-byte Spill
	movq	-1264(%rbp), %rax               # 8-byte Reload
	addq	%rax, %rcx
	movq	-1312(%rbp), %rax               # 8-byte Reload
	movq	%rcx, -1344(%rbp)               # 8-byte Spill
	movq	-1248(%rbp), %rcx               # 8-byte Reload
	adcq	%rcx, %rax
	movq	-1336(%rbp), %rcx               # 8-byte Reload
	adcq	$0, %rcx
	adcq	$0, %rdx
	movq	%rax, -1352(%rbp)               # 8-byte Spill
	movq	-1272(%rbp), %rax               # 8-byte Reload
	addq	%rcx, %rax
	movq	-1256(%rbp), %rcx               # 8-byte Reload
	adcq	%rdx, %rcx
	setb	%dl
	movzbl	%dl, %edx
                                        # kill: def $rdx killed $edx
	movq	%rax, -1360(%rbp)               # 8-byte Spill
	movq	%r9, %rax
	movq	%rcx, -1368(%rbp)               # 8-byte Spill
	movq	-336(%rbp), %rcx                # 8-byte Reload
	movq	%rdx, -1376(%rbp)               # 8-byte Spill
	mulq	%rcx
	movq	%rax, -1384(%rbp)               # 8-byte Spill
	movq	%r8, %rax
	movq	%rdx, -1392(%rbp)               # 8-byte Spill
	mulq	%rcx
	movq	-1392(%rbp), %rcx               # 8-byte Reload
	addq	%rcx, %rax
	adcq	$0, %rdx
	movq	%rax, -1400(%rbp)               # 8-byte Spill
	movq	%r9, %rax
	movq	-328(%rbp), %rcx                # 8-byte Reload
	movq	%rdx, -1408(%rbp)               # 8-byte Spill
	mulq	%rcx
	movq	-1400(%rbp), %rcx               # 8-byte Reload
	addq	%rcx, %rax
	movq	-1408(%rbp), %rcx               # 8-byte Reload
	adcq	%rdx, %rcx
	movq	-328(%rbp), %rdx                # 8-byte Reload
	imulq	%rdx, %r8
	addq	%rcx, %r8
	movq	-1384(%rbp), %rcx               # 8-byte Reload
	movq	-1360(%rbp), %rdx               # 8-byte Reload
	addq	%rdx, %rcx
	movq	-1368(%rbp), %rdx               # 8-byte Reload
	adcq	%rdx, %rax
	movq	-1376(%rbp), %rdx               # 8-byte Reload
	adcq	%rdx, %r8
	movq	-1192(%rbp), %rdx               # 8-byte Reload
	movq	%rax, -1416(%rbp)               # 8-byte Spill
	movq	-1072(%rbp), %rax               # 8-byte Reload
	addq	%rax, %rdx
	movq	-1224(%rbp), %rax               # 8-byte Reload
	movq	%rcx, -1424(%rbp)               # 8-byte Spill
	movq	-1080(%rbp), %rcx               # 8-byte Reload
	adcq	%rcx, %rax
	movq	-1344(%rbp), %rcx               # 8-byte Reload
	movq	%rax, -1432(%rbp)               # 8-byte Spill
	movq	-1088(%rbp), %rax               # 8-byte Reload
	adcq	%rax, %rcx
	movq	-1352(%rbp), %rax               # 8-byte Reload
	movq	%rcx, -1440(%rbp)               # 8-byte Spill
	movq	-1104(%rbp), %rcx               # 8-byte Reload
	adcq	%rcx, %rax
	movq	-1424(%rbp), %rcx               # 8-byte Reload
	adcq	$0, %rcx
	movq	%rax, -1448(%rbp)               # 8-byte Spill
	movq	-1416(%rbp), %rax               # 8-byte Reload
	adcq	$0, %rax
	adcq	$0, %r8
	movq	%rax, -1456(%rbp)               # 8-byte Spill
	movq	-1112(%rbp), %rax               # 8-byte Reload
	addq	%rcx, %rax
	movq	-1096(%rbp), %rcx               # 8-byte Reload
	movq	%rax, -1464(%rbp)               # 8-byte Spill
	movq	-1456(%rbp), %rax               # 8-byte Reload
	adcq	%rax, %rcx
	adcq	%r8, %rbx
	movq	%r11, %rax
	movq	-352(%rbp), %r8                 # 8-byte Reload
	movq	%rdx, -1472(%rbp)               # 8-byte Spill
	mulq	%r8
	movq	%rax, -1480(%rbp)               # 8-byte Spill
	movq	%r10, %rax
	movq	%rdx, -1488(%rbp)               # 8-byte Spill
	mulq	%r8
	movq	-1488(%rbp), %r8                # 8-byte Reload
	addq	%r8, %rax
	adcq	$0, %rdx
	movq	%rax, -1496(%rbp)               # 8-byte Spill
	movq	%r11, %rax
	movq	-344(%rbp), %r8                 # 8-byte Reload
	movq	%rdx, -1504(%rbp)               # 8-byte Spill
	mulq	%r8
	movq	-1496(%rbp), %r8                # 8-byte Reload
	addq	%r8, %rax
	movq	-1504(%rbp), %r8                # 8-byte Reload
	adcq	%rdx, %r8
	movq	-344(%rbp), %rdx                # 8-byte Reload
	imulq	%rdx, %r10
	addq	%r8, %r10
	movq	-352(%rbp), %r8                 # 8-byte Reload
	imulq	%r8, %r14
	addq	%r10, %r14
	movq	-336(%rbp), %r10                # 8-byte Reload
	imulq	%r10, %r11
	addq	%r14, %r11
	movq	-1480(%rbp), %r14               # 8-byte Reload
	movq	-1464(%rbp), %rdx               # 8-byte Reload
	addq	%rdx, %r14
	adcq	%rcx, %rax
	adcq	%rbx, %r11
	movq	-376(%rbp), %rcx                # 8-byte Reload
	movq	%rax, -1512(%rbp)               # 8-byte Spill
	movq	%rcx, %rax
	movq	-400(%rbp), %rdx                # 8-byte Reload
	mulq	%rdx
	movq	-384(%rbp), %rbx                # 8-byte Reload
	movq	%rax, -1520(%rbp)               # 8-byte Spill
	movq	%rbx, %rax
	movq	-400(%rbp), %rcx                # 8-byte Reload
	movq	%rdx, -1528(%rbp)               # 8-byte Spill
	mulq	%rcx
	movq	-1528(%rbp), %rcx               # 8-byte Reload
	addq	%rcx, %rax
	adcq	$0, %rdx
	movq	-376(%rbp), %rcx                # 8-byte Reload
	movq	%rax, -1536(%rbp)               # 8-byte Spill
	movq	%rcx, %rax
	movq	-392(%rbp), %rcx                # 8-byte Reload
	movq	%rdx, -1544(%rbp)               # 8-byte Spill
	mulq	%rcx
	movq	-1536(%rbp), %rcx               # 8-byte Reload
	addq	%rcx, %rax
	movq	-1544(%rbp), %rcx               # 8-byte Reload
	adcq	%rdx, %rcx
	movq	-392(%rbp), %rdx                # 8-byte Reload
	imulq	%rdx, %rbx
	addq	%rcx, %rbx
	movq	-368(%rbp), %rcx                # 8-byte Reload
	movq	-400(%rbp), %rdx                # 8-byte Reload
	imulq	%rdx, %rcx
	addq	%rbx, %rcx
	movq	-376(%rbp), %rbx                # 8-byte Reload
	movq	-320(%rbp), %rdx                # 8-byte Reload
	imulq	%rdx, %rbx
	addq	%rcx, %rbx
	movq	%rax, -1552(%rbp)               # 8-byte Spill
	movq	%r13, %rax
	mulq	%rsi
	movq	%rax, -1560(%rbp)               # 8-byte Spill
	movq	%r12, %rax
	movq	%rdx, -1568(%rbp)               # 8-byte Spill
	mulq	%rsi
	movq	-1568(%rbp), %rcx               # 8-byte Reload
	addq	%rcx, %rax
	adcq	$0, %rdx
	movq	%rax, -1576(%rbp)               # 8-byte Spill
	movq	%r13, %rax
	movq	%rdx, -1584(%rbp)               # 8-byte Spill
	mulq	%rdi
	movq	-1576(%rbp), %rcx               # 8-byte Reload
	addq	%rcx, %rax
	movq	-1584(%rbp), %rcx               # 8-byte Reload
	adcq	%rdx, %rcx
	imulq	%rdi, %r12
	addq	%rcx, %r12
	imulq	%rsi, %r15
	addq	%r12, %r15
	imulq	%r9, %r13
	addq	%r15, %r13
	movq	-1560(%rbp), %rcx               # 8-byte Reload
	movq	-1520(%rbp), %rdx               # 8-byte Reload
	addq	%rdx, %rcx
	movq	-1552(%rbp), %rsi               # 8-byte Reload
	adcq	%rsi, %rax
	adcq	%rbx, %r13
	addq	%rcx, %r14
	movq	-1512(%rbp), %rcx               # 8-byte Reload
	adcq	%rax, %rcx
	adcq	%r13, %r11
	movq	-792(%rbp), %rax                # 8-byte Reload
	.loc	34 25 7                         # test.cpp:25:7
	movq	%rax, -312(%rbp)
	movq	-824(%rbp), %rsi                # 8-byte Reload
	movq	%rsi, -304(%rbp)
	movq	-944(%rbp), %rsi                # 8-byte Reload
	movq	%rsi, -296(%rbp)
	movq	-952(%rbp), %rsi                # 8-byte Reload
	movq	%rsi, -288(%rbp)
	movq	-1472(%rbp), %rsi               # 8-byte Reload
	movq	%rsi, -280(%rbp)
	movq	-1432(%rbp), %rsi               # 8-byte Reload
	movq	%rsi, -272(%rbp)
	movq	-1440(%rbp), %rsi               # 8-byte Reload
	movq	%rsi, -264(%rbp)
	movq	-1448(%rbp), %rsi               # 8-byte Reload
	movq	%rsi, -256(%rbp)
	movq	%r14, -248(%rbp)
	movq	%rcx, -240(%rbp)
	movq	%r11, -232(%rbp)
	.loc	34 28 5 is_stmt 1               # test.cpp:28:5
	leaq	-312(%rbp), %rdi
	callq	_Z8fp_printPU7_ExtIntILi704EEj
	xorl	%eax, %eax
	.loc	34 29 5                         # test.cpp:29:5
	addq	$1544, %rsp                     # imm = 0x608
	popq	%rbx
	popq	%r12
	popq	%r13
	popq	%r14
	popq	%r15
	popq	%rbp
	.cfi_def_cfa %rsp, 8
	retq
.Ltmp10:
.Lfunc_end2:
	.size	main, .Lfunc_end2-main
	.cfi_endproc
                                        # -- End function
	.section	.text.startup,"ax",@progbits
	.p2align	4, 0x90                         # -- Begin function _GLOBAL__sub_I_test.cpp
	.type	_GLOBAL__sub_I_test.cpp,@function
_GLOBAL__sub_I_test.cpp:                # @_GLOBAL__sub_I_test.cpp
.Lfunc_begin3:
	.loc	34 0 0                          # test.cpp:0:0
	.cfi_startproc
# %bb.0:
	pushq	%rbp
	.cfi_def_cfa_offset 16
	.cfi_offset %rbp, -16
	movq	%rsp, %rbp
	.cfi_def_cfa_register %rbp
.Ltmp11:
	callq	__cxx_global_var_init
	popq	%rbp
	.cfi_def_cfa %rsp, 8
	retq
.Ltmp12:
.Lfunc_end3:
	.size	_GLOBAL__sub_I_test.cpp, .Lfunc_end3-_GLOBAL__sub_I_test.cpp
	.cfi_endproc
                                        # -- End function
	.type	_ZStL8__ioinit,@object          # @_ZStL8__ioinit
	.local	_ZStL8__ioinit
	.comm	_ZStL8__ioinit,1,1
	.hidden	__dso_handle
	.type	.L.str,@object                  # @.str
	.section	.rodata.str1.1,"aMS",@progbits,1
.L.str:
	.asciz	"%d"
	.size	.L.str, 3

	.section	.init_array,"aw",@init_array
	.p2align	3
	.quad	_GLOBAL__sub_I_test.cpp
	.section	".note.GNU-stack","",@progbits
	.addrsig
	.addrsig_sym __cxx_global_var_init
	.addrsig_sym __cxa_atexit
	.addrsig_sym _Z8fp_printPU7_ExtIntILi704EEj
	.addrsig_sym printf
	.addrsig_sym _GLOBAL__sub_I_test.cpp
	.addrsig_sym _ZStL8__ioinit
	.addrsig_sym __dso_handle