
main.exe:     file format elf64-x86-64


Disassembly of section .init:

0000000000003000 <_init>:
    3000:	f3 0f 1e fa          	endbr64 
    3004:	48 83 ec 08          	sub    $0x8,%rsp
    3008:	48 8b 05 d9 5f 01 00 	mov    0x15fd9(%rip),%rax        # 18fe8 <__gmon_start__>
    300f:	48 85 c0             	test   %rax,%rax
    3012:	74 02                	je     3016 <_init+0x16>
    3014:	ff d0                	callq  *%rax
    3016:	48 83 c4 08          	add    $0x8,%rsp
    301a:	c3                   	retq   

Disassembly of section .plt:

0000000000003020 <.plt>:
    3020:	ff 35 ba 5d 01 00    	pushq  0x15dba(%rip)        # 18de0 <_GLOBAL_OFFSET_TABLE_+0x8>
    3026:	f2 ff 25 bb 5d 01 00 	bnd jmpq *0x15dbb(%rip)        # 18de8 <_GLOBAL_OFFSET_TABLE_+0x10>
    302d:	0f 1f 00             	nopl   (%rax)
    3030:	f3 0f 1e fa          	endbr64 
    3034:	68 00 00 00 00       	pushq  $0x0
    3039:	f2 e9 e1 ff ff ff    	bnd jmpq 3020 <.plt>
    303f:	90                   	nop
    3040:	f3 0f 1e fa          	endbr64 
    3044:	68 01 00 00 00       	pushq  $0x1
    3049:	f2 e9 d1 ff ff ff    	bnd jmpq 3020 <.plt>
    304f:	90                   	nop
    3050:	f3 0f 1e fa          	endbr64 
    3054:	68 02 00 00 00       	pushq  $0x2
    3059:	f2 e9 c1 ff ff ff    	bnd jmpq 3020 <.plt>
    305f:	90                   	nop
    3060:	f3 0f 1e fa          	endbr64 
    3064:	68 03 00 00 00       	pushq  $0x3
    3069:	f2 e9 b1 ff ff ff    	bnd jmpq 3020 <.plt>
    306f:	90                   	nop
    3070:	f3 0f 1e fa          	endbr64 
    3074:	68 04 00 00 00       	pushq  $0x4
    3079:	f2 e9 a1 ff ff ff    	bnd jmpq 3020 <.plt>
    307f:	90                   	nop
    3080:	f3 0f 1e fa          	endbr64 
    3084:	68 05 00 00 00       	pushq  $0x5
    3089:	f2 e9 91 ff ff ff    	bnd jmpq 3020 <.plt>
    308f:	90                   	nop
    3090:	f3 0f 1e fa          	endbr64 
    3094:	68 06 00 00 00       	pushq  $0x6
    3099:	f2 e9 81 ff ff ff    	bnd jmpq 3020 <.plt>
    309f:	90                   	nop
    30a0:	f3 0f 1e fa          	endbr64 
    30a4:	68 07 00 00 00       	pushq  $0x7
    30a9:	f2 e9 71 ff ff ff    	bnd jmpq 3020 <.plt>
    30af:	90                   	nop
    30b0:	f3 0f 1e fa          	endbr64 
    30b4:	68 08 00 00 00       	pushq  $0x8
    30b9:	f2 e9 61 ff ff ff    	bnd jmpq 3020 <.plt>
    30bf:	90                   	nop
    30c0:	f3 0f 1e fa          	endbr64 
    30c4:	68 09 00 00 00       	pushq  $0x9
    30c9:	f2 e9 51 ff ff ff    	bnd jmpq 3020 <.plt>
    30cf:	90                   	nop
    30d0:	f3 0f 1e fa          	endbr64 
    30d4:	68 0a 00 00 00       	pushq  $0xa
    30d9:	f2 e9 41 ff ff ff    	bnd jmpq 3020 <.plt>
    30df:	90                   	nop
    30e0:	f3 0f 1e fa          	endbr64 
    30e4:	68 0b 00 00 00       	pushq  $0xb
    30e9:	f2 e9 31 ff ff ff    	bnd jmpq 3020 <.plt>
    30ef:	90                   	nop
    30f0:	f3 0f 1e fa          	endbr64 
    30f4:	68 0c 00 00 00       	pushq  $0xc
    30f9:	f2 e9 21 ff ff ff    	bnd jmpq 3020 <.plt>
    30ff:	90                   	nop
    3100:	f3 0f 1e fa          	endbr64 
    3104:	68 0d 00 00 00       	pushq  $0xd
    3109:	f2 e9 11 ff ff ff    	bnd jmpq 3020 <.plt>
    310f:	90                   	nop
    3110:	f3 0f 1e fa          	endbr64 
    3114:	68 0e 00 00 00       	pushq  $0xe
    3119:	f2 e9 01 ff ff ff    	bnd jmpq 3020 <.plt>
    311f:	90                   	nop
    3120:	f3 0f 1e fa          	endbr64 
    3124:	68 0f 00 00 00       	pushq  $0xf
    3129:	f2 e9 f1 fe ff ff    	bnd jmpq 3020 <.plt>
    312f:	90                   	nop
    3130:	f3 0f 1e fa          	endbr64 
    3134:	68 10 00 00 00       	pushq  $0x10
    3139:	f2 e9 e1 fe ff ff    	bnd jmpq 3020 <.plt>
    313f:	90                   	nop
    3140:	f3 0f 1e fa          	endbr64 
    3144:	68 11 00 00 00       	pushq  $0x11
    3149:	f2 e9 d1 fe ff ff    	bnd jmpq 3020 <.plt>
    314f:	90                   	nop
    3150:	f3 0f 1e fa          	endbr64 
    3154:	68 12 00 00 00       	pushq  $0x12
    3159:	f2 e9 c1 fe ff ff    	bnd jmpq 3020 <.plt>
    315f:	90                   	nop
    3160:	f3 0f 1e fa          	endbr64 
    3164:	68 13 00 00 00       	pushq  $0x13
    3169:	f2 e9 b1 fe ff ff    	bnd jmpq 3020 <.plt>
    316f:	90                   	nop
    3170:	f3 0f 1e fa          	endbr64 
    3174:	68 14 00 00 00       	pushq  $0x14
    3179:	f2 e9 a1 fe ff ff    	bnd jmpq 3020 <.plt>
    317f:	90                   	nop
    3180:	f3 0f 1e fa          	endbr64 
    3184:	68 15 00 00 00       	pushq  $0x15
    3189:	f2 e9 91 fe ff ff    	bnd jmpq 3020 <.plt>
    318f:	90                   	nop
    3190:	f3 0f 1e fa          	endbr64 
    3194:	68 16 00 00 00       	pushq  $0x16
    3199:	f2 e9 81 fe ff ff    	bnd jmpq 3020 <.plt>
    319f:	90                   	nop
    31a0:	f3 0f 1e fa          	endbr64 
    31a4:	68 17 00 00 00       	pushq  $0x17
    31a9:	f2 e9 71 fe ff ff    	bnd jmpq 3020 <.plt>
    31af:	90                   	nop
    31b0:	f3 0f 1e fa          	endbr64 
    31b4:	68 18 00 00 00       	pushq  $0x18
    31b9:	f2 e9 61 fe ff ff    	bnd jmpq 3020 <.plt>
    31bf:	90                   	nop
    31c0:	f3 0f 1e fa          	endbr64 
    31c4:	68 19 00 00 00       	pushq  $0x19
    31c9:	f2 e9 51 fe ff ff    	bnd jmpq 3020 <.plt>
    31cf:	90                   	nop
    31d0:	f3 0f 1e fa          	endbr64 
    31d4:	68 1a 00 00 00       	pushq  $0x1a
    31d9:	f2 e9 41 fe ff ff    	bnd jmpq 3020 <.plt>
    31df:	90                   	nop
    31e0:	f3 0f 1e fa          	endbr64 
    31e4:	68 1b 00 00 00       	pushq  $0x1b
    31e9:	f2 e9 31 fe ff ff    	bnd jmpq 3020 <.plt>
    31ef:	90                   	nop
    31f0:	f3 0f 1e fa          	endbr64 
    31f4:	68 1c 00 00 00       	pushq  $0x1c
    31f9:	f2 e9 21 fe ff ff    	bnd jmpq 3020 <.plt>
    31ff:	90                   	nop
    3200:	f3 0f 1e fa          	endbr64 
    3204:	68 1d 00 00 00       	pushq  $0x1d
    3209:	f2 e9 11 fe ff ff    	bnd jmpq 3020 <.plt>
    320f:	90                   	nop
    3210:	f3 0f 1e fa          	endbr64 
    3214:	68 1e 00 00 00       	pushq  $0x1e
    3219:	f2 e9 01 fe ff ff    	bnd jmpq 3020 <.plt>
    321f:	90                   	nop
    3220:	f3 0f 1e fa          	endbr64 
    3224:	68 1f 00 00 00       	pushq  $0x1f
    3229:	f2 e9 f1 fd ff ff    	bnd jmpq 3020 <.plt>
    322f:	90                   	nop
    3230:	f3 0f 1e fa          	endbr64 
    3234:	68 20 00 00 00       	pushq  $0x20
    3239:	f2 e9 e1 fd ff ff    	bnd jmpq 3020 <.plt>
    323f:	90                   	nop
    3240:	f3 0f 1e fa          	endbr64 
    3244:	68 21 00 00 00       	pushq  $0x21
    3249:	f2 e9 d1 fd ff ff    	bnd jmpq 3020 <.plt>
    324f:	90                   	nop
    3250:	f3 0f 1e fa          	endbr64 
    3254:	68 22 00 00 00       	pushq  $0x22
    3259:	f2 e9 c1 fd ff ff    	bnd jmpq 3020 <.plt>
    325f:	90                   	nop
    3260:	f3 0f 1e fa          	endbr64 
    3264:	68 23 00 00 00       	pushq  $0x23
    3269:	f2 e9 b1 fd ff ff    	bnd jmpq 3020 <.plt>
    326f:	90                   	nop
    3270:	f3 0f 1e fa          	endbr64 
    3274:	68 24 00 00 00       	pushq  $0x24
    3279:	f2 e9 a1 fd ff ff    	bnd jmpq 3020 <.plt>
    327f:	90                   	nop
    3280:	f3 0f 1e fa          	endbr64 
    3284:	68 25 00 00 00       	pushq  $0x25
    3289:	f2 e9 91 fd ff ff    	bnd jmpq 3020 <.plt>
    328f:	90                   	nop
    3290:	f3 0f 1e fa          	endbr64 
    3294:	68 26 00 00 00       	pushq  $0x26
    3299:	f2 e9 81 fd ff ff    	bnd jmpq 3020 <.plt>
    329f:	90                   	nop
    32a0:	f3 0f 1e fa          	endbr64 
    32a4:	68 27 00 00 00       	pushq  $0x27
    32a9:	f2 e9 71 fd ff ff    	bnd jmpq 3020 <.plt>
    32af:	90                   	nop
    32b0:	f3 0f 1e fa          	endbr64 
    32b4:	68 28 00 00 00       	pushq  $0x28
    32b9:	f2 e9 61 fd ff ff    	bnd jmpq 3020 <.plt>
    32bf:	90                   	nop
    32c0:	f3 0f 1e fa          	endbr64 
    32c4:	68 29 00 00 00       	pushq  $0x29
    32c9:	f2 e9 51 fd ff ff    	bnd jmpq 3020 <.plt>
    32cf:	90                   	nop
    32d0:	f3 0f 1e fa          	endbr64 
    32d4:	68 2a 00 00 00       	pushq  $0x2a
    32d9:	f2 e9 41 fd ff ff    	bnd jmpq 3020 <.plt>
    32df:	90                   	nop
    32e0:	f3 0f 1e fa          	endbr64 
    32e4:	68 2b 00 00 00       	pushq  $0x2b
    32e9:	f2 e9 31 fd ff ff    	bnd jmpq 3020 <.plt>
    32ef:	90                   	nop
    32f0:	f3 0f 1e fa          	endbr64 
    32f4:	68 2c 00 00 00       	pushq  $0x2c
    32f9:	f2 e9 21 fd ff ff    	bnd jmpq 3020 <.plt>
    32ff:	90                   	nop
    3300:	f3 0f 1e fa          	endbr64 
    3304:	68 2d 00 00 00       	pushq  $0x2d
    3309:	f2 e9 11 fd ff ff    	bnd jmpq 3020 <.plt>
    330f:	90                   	nop
    3310:	f3 0f 1e fa          	endbr64 
    3314:	68 2e 00 00 00       	pushq  $0x2e
    3319:	f2 e9 01 fd ff ff    	bnd jmpq 3020 <.plt>
    331f:	90                   	nop
    3320:	f3 0f 1e fa          	endbr64 
    3324:	68 2f 00 00 00       	pushq  $0x2f
    3329:	f2 e9 f1 fc ff ff    	bnd jmpq 3020 <.plt>
    332f:	90                   	nop
    3330:	f3 0f 1e fa          	endbr64 
    3334:	68 30 00 00 00       	pushq  $0x30
    3339:	f2 e9 e1 fc ff ff    	bnd jmpq 3020 <.plt>
    333f:	90                   	nop
    3340:	f3 0f 1e fa          	endbr64 
    3344:	68 31 00 00 00       	pushq  $0x31
    3349:	f2 e9 d1 fc ff ff    	bnd jmpq 3020 <.plt>
    334f:	90                   	nop
    3350:	f3 0f 1e fa          	endbr64 
    3354:	68 32 00 00 00       	pushq  $0x32
    3359:	f2 e9 c1 fc ff ff    	bnd jmpq 3020 <.plt>
    335f:	90                   	nop
    3360:	f3 0f 1e fa          	endbr64 
    3364:	68 33 00 00 00       	pushq  $0x33
    3369:	f2 e9 b1 fc ff ff    	bnd jmpq 3020 <.plt>
    336f:	90                   	nop
    3370:	f3 0f 1e fa          	endbr64 
    3374:	68 34 00 00 00       	pushq  $0x34
    3379:	f2 e9 a1 fc ff ff    	bnd jmpq 3020 <.plt>
    337f:	90                   	nop
    3380:	f3 0f 1e fa          	endbr64 
    3384:	68 35 00 00 00       	pushq  $0x35
    3389:	f2 e9 91 fc ff ff    	bnd jmpq 3020 <.plt>
    338f:	90                   	nop

Disassembly of section .plt.got:

0000000000003390 <__cxa_finalize@plt>:
    3390:	f3 0f 1e fa          	endbr64 
    3394:	f2 ff 25 15 5c 01 00 	bnd jmpq *0x15c15(%rip)        # 18fb0 <__cxa_finalize@GLIBC_2.2.5>
    339b:	0f 1f 44 00 00       	nopl   0x0(%rax,%rax,1)

Disassembly of section .plt.sec:

00000000000033a0 <__printf_chk@plt>:
    33a0:	f3 0f 1e fa          	endbr64 
    33a4:	f2 ff 25 45 5a 01 00 	bnd jmpq *0x15a45(%rip)        # 18df0 <__printf_chk@GLIBC_2.3.4>
    33ab:	0f 1f 44 00 00       	nopl   0x0(%rax,%rax,1)

00000000000033b0 <_ZNSo3putEc@plt>:
    33b0:	f3 0f 1e fa          	endbr64 
    33b4:	f2 ff 25 3d 5a 01 00 	bnd jmpq *0x15a3d(%rip)        # 18df8 <_ZNSo3putEc@GLIBCXX_3.4>
    33bb:	0f 1f 44 00 00       	nopl   0x0(%rax,%rax,1)

00000000000033c0 <_ZNSt8__detail15_List_node_base7_M_hookEPS0_@plt>:
    33c0:	f3 0f 1e fa          	endbr64 
    33c4:	f2 ff 25 35 5a 01 00 	bnd jmpq *0x15a35(%rip)        # 18e00 <_ZNSt8__detail15_List_node_base7_M_hookEPS0_@GLIBCXX_3.4.15>
    33cb:	0f 1f 44 00 00       	nopl   0x0(%rax,%rax,1)

00000000000033d0 <_ZNSt7__cxx1112basic_stringIcSt11char_traitsIcESaIcEE9_M_appendEPKcm@plt>:
    33d0:	f3 0f 1e fa          	endbr64 
    33d4:	f2 ff 25 2d 5a 01 00 	bnd jmpq *0x15a2d(%rip)        # 18e08 <_ZNSt7__cxx1112basic_stringIcSt11char_traitsIcESaIcEE9_M_appendEPKcm@GLIBCXX_3.4.21>
    33db:	0f 1f 44 00 00       	nopl   0x0(%rax,%rax,1)

00000000000033e0 <_ZSt17__throw_bad_allocv@plt>:
    33e0:	f3 0f 1e fa          	endbr64 
    33e4:	f2 ff 25 25 5a 01 00 	bnd jmpq *0x15a25(%rip)        # 18e10 <_ZSt17__throw_bad_allocv@GLIBCXX_3.4>
    33eb:	0f 1f 44 00 00       	nopl   0x0(%rax,%rax,1)

00000000000033f0 <__cxa_begin_catch@plt>:
    33f0:	f3 0f 1e fa          	endbr64 
    33f4:	f2 ff 25 1d 5a 01 00 	bnd jmpq *0x15a1d(%rip)        # 18e18 <__cxa_begin_catch@CXXABI_1.3>
    33fb:	0f 1f 44 00 00       	nopl   0x0(%rax,%rax,1)

0000000000003400 <strlen@plt>:
    3400:	f3 0f 1e fa          	endbr64 
    3404:	f2 ff 25 15 5a 01 00 	bnd jmpq *0x15a15(%rip)        # 18e20 <strlen@GLIBC_2.2.5>
    340b:	0f 1f 44 00 00       	nopl   0x0(%rax,%rax,1)

0000000000003410 <_ZSt4endlIcSt11char_traitsIcEERSt13basic_ostreamIT_T0_ES6_@plt>:
    3410:	f3 0f 1e fa          	endbr64 
    3414:	f2 ff 25 0d 5a 01 00 	bnd jmpq *0x15a0d(%rip)        # 18e28 <_ZSt4endlIcSt11char_traitsIcEERSt13basic_ostreamIT_T0_ES6_@GLIBCXX_3.4>
    341b:	0f 1f 44 00 00       	nopl   0x0(%rax,%rax,1)

0000000000003420 <__cxa_allocate_exception@plt>:
    3420:	f3 0f 1e fa          	endbr64 
    3424:	f2 ff 25 05 5a 01 00 	bnd jmpq *0x15a05(%rip)        # 18e30 <__cxa_allocate_exception@CXXABI_1.3>
    342b:	0f 1f 44 00 00       	nopl   0x0(%rax,%rax,1)

0000000000003430 <_ZSt20__throw_length_errorPKc@plt>:
    3430:	f3 0f 1e fa          	endbr64 
    3434:	f2 ff 25 fd 59 01 00 	bnd jmpq *0x159fd(%rip)        # 18e38 <_ZSt20__throw_length_errorPKc@GLIBCXX_3.4>
    343b:	0f 1f 44 00 00       	nopl   0x0(%rax,%rax,1)

0000000000003440 <memset@plt>:
    3440:	f3 0f 1e fa          	endbr64 
    3444:	f2 ff 25 f5 59 01 00 	bnd jmpq *0x159f5(%rip)        # 18e40 <memset@GLIBC_2.2.5>
    344b:	0f 1f 44 00 00       	nopl   0x0(%rax,%rax,1)

0000000000003450 <munmap@plt>:
    3450:	f3 0f 1e fa          	endbr64 
    3454:	f2 ff 25 ed 59 01 00 	bnd jmpq *0x159ed(%rip)        # 18e48 <munmap@GLIBC_2.2.5>
    345b:	0f 1f 44 00 00       	nopl   0x0(%rax,%rax,1)

0000000000003460 <__cxa_guard_release@plt>:
    3460:	f3 0f 1e fa          	endbr64 
    3464:	f2 ff 25 e5 59 01 00 	bnd jmpq *0x159e5(%rip)        # 18e50 <__cxa_guard_release@CXXABI_1.3>
    346b:	0f 1f 44 00 00       	nopl   0x0(%rax,%rax,1)

0000000000003470 <sysconf@plt>:
    3470:	f3 0f 1e fa          	endbr64 
    3474:	f2 ff 25 dd 59 01 00 	bnd jmpq *0x159dd(%rip)        # 18e58 <sysconf@GLIBC_2.2.5>
    347b:	0f 1f 44 00 00       	nopl   0x0(%rax,%rax,1)

0000000000003480 <_ZNSo9_M_insertImEERSoT_@plt>:
    3480:	f3 0f 1e fa          	endbr64 
    3484:	f2 ff 25 d5 59 01 00 	bnd jmpq *0x159d5(%rip)        # 18e60 <_ZNSo9_M_insertImEERSoT_@GLIBCXX_3.4.9>
    348b:	0f 1f 44 00 00       	nopl   0x0(%rax,%rax,1)

0000000000003490 <_ZNSo5flushEv@plt>:
    3490:	f3 0f 1e fa          	endbr64 
    3494:	f2 ff 25 cd 59 01 00 	bnd jmpq *0x159cd(%rip)        # 18e68 <_ZNSo5flushEv@GLIBCXX_3.4>
    349b:	0f 1f 44 00 00       	nopl   0x0(%rax,%rax,1)

00000000000034a0 <_ZSt19__throw_logic_errorPKc@plt>:
    34a0:	f3 0f 1e fa          	endbr64 
    34a4:	f2 ff 25 c5 59 01 00 	bnd jmpq *0x159c5(%rip)        # 18e70 <_ZSt19__throw_logic_errorPKc@GLIBCXX_3.4>
    34ab:	0f 1f 44 00 00       	nopl   0x0(%rax,%rax,1)

00000000000034b0 <__cxa_free_exception@plt>:
    34b0:	f3 0f 1e fa          	endbr64 
    34b4:	f2 ff 25 bd 59 01 00 	bnd jmpq *0x159bd(%rip)        # 18e78 <__cxa_free_exception@CXXABI_1.3>
    34bb:	0f 1f 44 00 00       	nopl   0x0(%rax,%rax,1)

00000000000034c0 <memcpy@plt>:
    34c0:	f3 0f 1e fa          	endbr64 
    34c4:	f2 ff 25 b5 59 01 00 	bnd jmpq *0x159b5(%rip)        # 18e80 <memcpy@GLIBC_2.14>
    34cb:	0f 1f 44 00 00       	nopl   0x0(%rax,%rax,1)

00000000000034d0 <_ZNSt7__cxx1112basic_stringIcSt11char_traitsIcESaIcEE9push_backEc@plt>:
    34d0:	f3 0f 1e fa          	endbr64 
    34d4:	f2 ff 25 ad 59 01 00 	bnd jmpq *0x159ad(%rip)        # 18e88 <_ZNSt7__cxx1112basic_stringIcSt11char_traitsIcESaIcEE9push_backEc@GLIBCXX_3.4.21>
    34db:	0f 1f 44 00 00       	nopl   0x0(%rax,%rax,1)

00000000000034e0 <__cxa_atexit@plt>:
    34e0:	f3 0f 1e fa          	endbr64 
    34e4:	f2 ff 25 a5 59 01 00 	bnd jmpq *0x159a5(%rip)        # 18e90 <__cxa_atexit@GLIBC_2.2.5>
    34eb:	0f 1f 44 00 00       	nopl   0x0(%rax,%rax,1)

00000000000034f0 <__gmpn_mul_n@plt>:
    34f0:	f3 0f 1e fa          	endbr64 
    34f4:	f2 ff 25 9d 59 01 00 	bnd jmpq *0x1599d(%rip)        # 18e98 <__gmpn_mul_n>
    34fb:	0f 1f 44 00 00       	nopl   0x0(%rax,%rax,1)

0000000000003500 <_ZdlPv@plt>:
    3500:	f3 0f 1e fa          	endbr64 
    3504:	f2 ff 25 95 59 01 00 	bnd jmpq *0x15995(%rip)        # 18ea0 <_ZdlPv@GLIBCXX_3.4>
    350b:	0f 1f 44 00 00       	nopl   0x0(%rax,%rax,1)

0000000000003510 <_ZStlsISt11char_traitsIcEERSt13basic_ostreamIcT_ES5_PKc@plt>:
    3510:	f3 0f 1e fa          	endbr64 
    3514:	f2 ff 25 8d 59 01 00 	bnd jmpq *0x1598d(%rip)        # 18ea8 <_ZStlsISt11char_traitsIcEERSt13basic_ostreamIcT_ES5_PKc@GLIBCXX_3.4>
    351b:	0f 1f 44 00 00       	nopl   0x0(%rax,%rax,1)

0000000000003520 <_Znwm@plt>:
    3520:	f3 0f 1e fa          	endbr64 
    3524:	f2 ff 25 85 59 01 00 	bnd jmpq *0x15985(%rip)        # 18eb0 <_Znwm@GLIBCXX_3.4>
    352b:	0f 1f 44 00 00       	nopl   0x0(%rax,%rax,1)

0000000000003530 <_ZdlPvm@plt>:
    3530:	f3 0f 1e fa          	endbr64 
    3534:	f2 ff 25 7d 59 01 00 	bnd jmpq *0x1597d(%rip)        # 18eb8 <_ZdlPvm@CXXABI_1.3.9>
    353b:	0f 1f 44 00 00       	nopl   0x0(%rax,%rax,1)

0000000000003540 <_ZSt16__ostream_insertIcSt11char_traitsIcEERSt13basic_ostreamIT_T0_ES6_PKS3_l@plt>:
    3540:	f3 0f 1e fa          	endbr64 
    3544:	f2 ff 25 75 59 01 00 	bnd jmpq *0x15975(%rip)        # 18ec0 <_ZSt16__ostream_insertIcSt11char_traitsIcEERSt13basic_ostreamIT_T0_ES6_PKS3_l@GLIBCXX_3.4.9>
    354b:	0f 1f 44 00 00       	nopl   0x0(%rax,%rax,1)

0000000000003550 <_ZNKSt5ctypeIcE13_M_widen_initEv@plt>:
    3550:	f3 0f 1e fa          	endbr64 
    3554:	f2 ff 25 6d 59 01 00 	bnd jmpq *0x1596d(%rip)        # 18ec8 <_ZNKSt5ctypeIcE13_M_widen_initEv@GLIBCXX_3.4.11>
    355b:	0f 1f 44 00 00       	nopl   0x0(%rax,%rax,1)

0000000000003560 <fflush@plt>:
    3560:	f3 0f 1e fa          	endbr64 
    3564:	f2 ff 25 65 59 01 00 	bnd jmpq *0x15965(%rip)        # 18ed0 <fflush@GLIBC_2.2.5>
    356b:	0f 1f 44 00 00       	nopl   0x0(%rax,%rax,1)

0000000000003570 <free@plt>:
    3570:	f3 0f 1e fa          	endbr64 
    3574:	f2 ff 25 5d 59 01 00 	bnd jmpq *0x1595d(%rip)        # 18ed8 <free@GLIBC_2.2.5>
    357b:	0f 1f 44 00 00       	nopl   0x0(%rax,%rax,1)

0000000000003580 <_ZNSt7__cxx1112basic_stringIcSt11char_traitsIcESaIcEEaSEOS4_@plt>:
    3580:	f3 0f 1e fa          	endbr64 
    3584:	f2 ff 25 55 59 01 00 	bnd jmpq *0x15955(%rip)        # 18ee0 <_ZNSt7__cxx1112basic_stringIcSt11char_traitsIcESaIcEEaSEOS4_@GLIBCXX_3.4.21>
    358b:	0f 1f 44 00 00       	nopl   0x0(%rax,%rax,1)

0000000000003590 <_ZSt16__throw_bad_castv@plt>:
    3590:	f3 0f 1e fa          	endbr64 
    3594:	f2 ff 25 4d 59 01 00 	bnd jmpq *0x1594d(%rip)        # 18ee8 <_ZSt16__throw_bad_castv@GLIBCXX_3.4>
    359b:	0f 1f 44 00 00       	nopl   0x0(%rax,%rax,1)

00000000000035a0 <_ZNKSt7__cxx1112basic_stringIcSt11char_traitsIcESaIcEE4findEcm@plt>:
    35a0:	f3 0f 1e fa          	endbr64 
    35a4:	f2 ff 25 45 59 01 00 	bnd jmpq *0x15945(%rip)        # 18ef0 <_ZNKSt7__cxx1112basic_stringIcSt11char_traitsIcESaIcEE4findEcm@GLIBCXX_3.4.21>
    35ab:	0f 1f 44 00 00       	nopl   0x0(%rax,%rax,1)

00000000000035b0 <_ZNKSt8__detail20_Prime_rehash_policy14_M_need_rehashEmmm@plt>:
    35b0:	f3 0f 1e fa          	endbr64 
    35b4:	f2 ff 25 3d 59 01 00 	bnd jmpq *0x1593d(%rip)        # 18ef8 <_ZNKSt8__detail20_Prime_rehash_policy14_M_need_rehashEmmm@GLIBCXX_3.4.18>
    35bb:	0f 1f 44 00 00       	nopl   0x0(%rax,%rax,1)

00000000000035c0 <malloc@plt>:
    35c0:	f3 0f 1e fa          	endbr64 
    35c4:	f2 ff 25 35 59 01 00 	bnd jmpq *0x15935(%rip)        # 18f00 <malloc@GLIBC_2.2.5>
    35cb:	0f 1f 44 00 00       	nopl   0x0(%rax,%rax,1)

00000000000035d0 <putchar@plt>:
    35d0:	f3 0f 1e fa          	endbr64 
    35d4:	f2 ff 25 2d 59 01 00 	bnd jmpq *0x1592d(%rip)        # 18f08 <putchar@GLIBC_2.2.5>
    35db:	0f 1f 44 00 00       	nopl   0x0(%rax,%rax,1)

00000000000035e0 <__cxa_rethrow@plt>:
    35e0:	f3 0f 1e fa          	endbr64 
    35e4:	f2 ff 25 25 59 01 00 	bnd jmpq *0x15925(%rip)        # 18f10 <__cxa_rethrow@CXXABI_1.3>
    35eb:	0f 1f 44 00 00       	nopl   0x0(%rax,%rax,1)

00000000000035f0 <_ZSt24__throw_out_of_range_fmtPKcz@plt>:
    35f0:	f3 0f 1e fa          	endbr64 
    35f4:	f2 ff 25 1d 59 01 00 	bnd jmpq *0x1591d(%rip)        # 18f18 <_ZSt24__throw_out_of_range_fmtPKcz@GLIBCXX_3.4.20>
    35fb:	0f 1f 44 00 00       	nopl   0x0(%rax,%rax,1)

0000000000003600 <_ZNSt8ios_base4InitC1Ev@plt>:
    3600:	f3 0f 1e fa          	endbr64 
    3604:	f2 ff 25 15 59 01 00 	bnd jmpq *0x15915(%rip)        # 18f20 <_ZNSt8ios_base4InitC1Ev@GLIBCXX_3.4>
    360b:	0f 1f 44 00 00       	nopl   0x0(%rax,%rax,1)

0000000000003610 <puts@plt>:
    3610:	f3 0f 1e fa          	endbr64 
    3614:	f2 ff 25 0d 59 01 00 	bnd jmpq *0x1590d(%rip)        # 18f28 <puts@GLIBC_2.2.5>
    361b:	0f 1f 44 00 00       	nopl   0x0(%rax,%rax,1)

0000000000003620 <mprotect@plt>:
    3620:	f3 0f 1e fa          	endbr64 
    3624:	f2 ff 25 05 59 01 00 	bnd jmpq *0x15905(%rip)        # 18f30 <mprotect@GLIBC_2.2.5>
    362b:	0f 1f 44 00 00       	nopl   0x0(%rax,%rax,1)

0000000000003630 <__cxa_end_catch@plt>:
    3630:	f3 0f 1e fa          	endbr64 
    3634:	f2 ff 25 fd 58 01 00 	bnd jmpq *0x158fd(%rip)        # 18f38 <__cxa_end_catch@CXXABI_1.3>
    363b:	0f 1f 44 00 00       	nopl   0x0(%rax,%rax,1)

0000000000003640 <__fprintf_chk@plt>:
    3640:	f3 0f 1e fa          	endbr64 
    3644:	f2 ff 25 f5 58 01 00 	bnd jmpq *0x158f5(%rip)        # 18f40 <__fprintf_chk@GLIBC_2.3.4>
    364b:	0f 1f 44 00 00       	nopl   0x0(%rax,%rax,1)

0000000000003650 <_ZNSt9basic_iosIcSt11char_traitsIcEE5clearESt12_Ios_Iostate@plt>:
    3650:	f3 0f 1e fa          	endbr64 
    3654:	f2 ff 25 ed 58 01 00 	bnd jmpq *0x158ed(%rip)        # 18f48 <_ZNSt9basic_iosIcSt11char_traitsIcEE5clearESt12_Ios_Iostate@GLIBCXX_3.4>
    365b:	0f 1f 44 00 00       	nopl   0x0(%rax,%rax,1)

0000000000003660 <__cxa_throw@plt>:
    3660:	f3 0f 1e fa          	endbr64 
    3664:	f2 ff 25 e5 58 01 00 	bnd jmpq *0x158e5(%rip)        # 18f50 <__cxa_throw@CXXABI_1.3>
    366b:	0f 1f 44 00 00       	nopl   0x0(%rax,%rax,1)

0000000000003670 <_ZNSolsEi@plt>:
    3670:	f3 0f 1e fa          	endbr64 
    3674:	f2 ff 25 dd 58 01 00 	bnd jmpq *0x158dd(%rip)        # 18f58 <_ZNSolsEi@GLIBCXX_3.4>
    367b:	0f 1f 44 00 00       	nopl   0x0(%rax,%rax,1)

0000000000003680 <_Unwind_Resume@plt>:
    3680:	f3 0f 1e fa          	endbr64 
    3684:	f2 ff 25 d5 58 01 00 	bnd jmpq *0x158d5(%rip)        # 18f60 <_Unwind_Resume@GCC_3.0>
    368b:	0f 1f 44 00 00       	nopl   0x0(%rax,%rax,1)

0000000000003690 <mmap@plt>:
    3690:	f3 0f 1e fa          	endbr64 
    3694:	f2 ff 25 cd 58 01 00 	bnd jmpq *0x158cd(%rip)        # 18f68 <mmap@GLIBC_2.2.5>
    369b:	0f 1f 44 00 00       	nopl   0x0(%rax,%rax,1)

00000000000036a0 <_ZNSt7__cxx1112basic_stringIcSt11char_traitsIcESaIcEE9_M_createERmm@plt>:
    36a0:	f3 0f 1e fa          	endbr64 
    36a4:	f2 ff 25 c5 58 01 00 	bnd jmpq *0x158c5(%rip)        # 18f70 <_ZNSt7__cxx1112basic_stringIcSt11char_traitsIcESaIcEE9_M_createERmm@GLIBCXX_3.4.21>
    36ab:	0f 1f 44 00 00       	nopl   0x0(%rax,%rax,1)

00000000000036b0 <__cxa_guard_acquire@plt>:
    36b0:	f3 0f 1e fa          	endbr64 
    36b4:	f2 ff 25 bd 58 01 00 	bnd jmpq *0x158bd(%rip)        # 18f78 <__cxa_guard_acquire@CXXABI_1.3>
    36bb:	0f 1f 44 00 00       	nopl   0x0(%rax,%rax,1)

00000000000036c0 <_ZNSt9exceptionD2Ev@plt>:
    36c0:	f3 0f 1e fa          	endbr64 
    36c4:	f2 ff 25 b5 58 01 00 	bnd jmpq *0x158b5(%rip)        # 18f80 <_ZNSt9exceptionD2Ev@GLIBCXX_3.4>
    36cb:	0f 1f 44 00 00       	nopl   0x0(%rax,%rax,1)

00000000000036d0 <_ZNSt7__cxx1112basic_stringIcSt11char_traitsIcESaIcEE6appendEPKc@plt>:
    36d0:	f3 0f 1e fa          	endbr64 
    36d4:	f2 ff 25 ad 58 01 00 	bnd jmpq *0x158ad(%rip)        # 18f88 <_ZNSt7__cxx1112basic_stringIcSt11char_traitsIcESaIcEE6appendEPKc@GLIBCXX_3.4.21>
    36db:	0f 1f 44 00 00       	nopl   0x0(%rax,%rax,1)

00000000000036e0 <_ZNSt7__cxx1112basic_stringIcSt11char_traitsIcESaIcEE6assignEPKc@plt>:
    36e0:	f3 0f 1e fa          	endbr64 
    36e4:	f2 ff 25 a5 58 01 00 	bnd jmpq *0x158a5(%rip)        # 18f90 <_ZNSt7__cxx1112basic_stringIcSt11char_traitsIcESaIcEE6assignEPKc@GLIBCXX_3.4.21>
    36eb:	0f 1f 44 00 00       	nopl   0x0(%rax,%rax,1)

00000000000036f0 <_ZNKSt7__cxx1112basic_stringIcSt11char_traitsIcESaIcEE5rfindEcm@plt>:
    36f0:	f3 0f 1e fa          	endbr64 
    36f4:	f2 ff 25 9d 58 01 00 	bnd jmpq *0x1589d(%rip)        # 18f98 <_ZNKSt7__cxx1112basic_stringIcSt11char_traitsIcESaIcEE5rfindEcm@GLIBCXX_3.4.21>
    36fb:	0f 1f 44 00 00       	nopl   0x0(%rax,%rax,1)

Disassembly of section .text:

0000000000003700 <_Z18cybozu_test_mulPrev.cold>:
    3700:	48 8b 7c 24 40       	mov    0x40(%rsp),%rdi
    3705:	48 3b 7c 24 08       	cmp    0x8(%rsp),%rdi
    370a:	74 05                	je     3711 <_Z18cybozu_test_mulPrev.cold+0x11>
    370c:	e8 ef fd ff ff       	callq  3500 <_ZdlPv@plt>
    3711:	48 8b 7c 24 60       	mov    0x60(%rsp),%rdi
    3716:	48 3b 7c 24 10       	cmp    0x10(%rsp),%rdi
    371b:	74 05                	je     3722 <_Z18cybozu_test_mulPrev.cold+0x22>
    371d:	e8 de fd ff ff       	callq  3500 <_ZdlPv@plt>
    3722:	48 89 ef             	mov    %rbp,%rdi
    3725:	e8 56 ff ff ff       	callq  3680 <_Unwind_Resume@plt>

000000000000372a <_ZN5Xbyak13CodeGenerator6setSIBERKNS_6RegExpEii.part.0>:
    372a:	50                   	push   %rax
    372b:	58                   	pop    %rax
    372c:	bf 10 00 00 00       	mov    $0x10,%edi
    3731:	50                   	push   %rax
    3732:	e8 e9 fc ff ff       	callq  3420 <__cxa_allocate_exception@plt>
    3737:	48 8d 15 c2 3b 00 00 	lea    0x3bc2(%rip),%rdx        # 7300 <_ZN5Xbyak5ErrorD1Ev>
    373e:	48 8d 35 fb 52 01 00 	lea    0x152fb(%rip),%rsi        # 18a40 <_ZTVN10__cxxabiv120__si_class_type_infoE@CXXABI_1.3>
    3745:	48 89 c7             	mov    %rax,%rdi
    3748:	48 8d 05 a9 53 01 00 	lea    0x153a9(%rip),%rax        # 18af8 <_ZTVN5Xbyak5ErrorE>
    374f:	c7 47 08 10 00 00 00 	movl   $0x10,0x8(%rdi)
    3756:	48 83 c0 10          	add    $0x10,%rax
    375a:	48 89 07             	mov    %rax,(%rdi)
    375d:	e8 fe fe ff ff       	callq  3660 <__cxa_throw@plt>

0000000000003762 <_ZNK5Xbyak6RegExp6verifyEv.part.0>:
    3762:	50                   	push   %rax
    3763:	58                   	pop    %rax
    3764:	bf 10 00 00 00       	mov    $0x10,%edi
    3769:	50                   	push   %rax
    376a:	e8 b1 fc ff ff       	callq  3420 <__cxa_allocate_exception@plt>
    376f:	48 8d 15 8a 3b 00 00 	lea    0x3b8a(%rip),%rdx        # 7300 <_ZN5Xbyak5ErrorD1Ev>
    3776:	48 8d 35 c3 52 01 00 	lea    0x152c3(%rip),%rsi        # 18a40 <_ZTVN10__cxxabiv120__si_class_type_infoE@CXXABI_1.3>
    377d:	48 89 c7             	mov    %rax,%rdi
    3780:	48 8d 05 71 53 01 00 	lea    0x15371(%rip),%rax        # 18af8 <_ZTVN5Xbyak5ErrorE>
    3787:	c7 47 08 06 00 00 00 	movl   $0x6,0x8(%rdi)
    378e:	48 83 c0 10          	add    $0x10,%rax
    3792:	48 89 07             	mov    %rax,(%rdi)
    3795:	e8 c6 fe ff ff       	callq  3660 <__cxa_throw@plt>

000000000000379a <_ZN5Xbyak13MmapAllocator5allocEm.part.0>:
    379a:	50                   	push   %rax
    379b:	58                   	pop    %rax
    379c:	bf 10 00 00 00       	mov    $0x10,%edi
    37a1:	50                   	push   %rax
    37a2:	e8 79 fc ff ff       	callq  3420 <__cxa_allocate_exception@plt>
    37a7:	48 8d 15 52 3b 00 00 	lea    0x3b52(%rip),%rdx        # 7300 <_ZN5Xbyak5ErrorD1Ev>
    37ae:	48 8d 35 8b 52 01 00 	lea    0x1528b(%rip),%rsi        # 18a40 <_ZTVN10__cxxabiv120__si_class_type_infoE@CXXABI_1.3>
    37b5:	48 89 c7             	mov    %rax,%rdi
    37b8:	48 8d 05 39 53 01 00 	lea    0x15339(%rip),%rax        # 18af8 <_ZTVN5Xbyak5ErrorE>
    37bf:	c7 47 08 16 00 00 00 	movl   $0x16,0x8(%rdi)
    37c6:	48 83 c0 10          	add    $0x10,%rax
    37ca:	48 89 07             	mov    %rax,(%rdi)
    37cd:	e8 8e fe ff ff       	callq  3660 <__cxa_throw@plt>

00000000000037d2 <_ZN5Xbyak9CodeArray2dbEi.part.0>:
    37d2:	50                   	push   %rax
    37d3:	58                   	pop    %rax
    37d4:	bf 10 00 00 00       	mov    $0x10,%edi
    37d9:	50                   	push   %rax
    37da:	e8 41 fc ff ff       	callq  3420 <__cxa_allocate_exception@plt>
    37df:	48 8d 15 1a 3b 00 00 	lea    0x3b1a(%rip),%rdx        # 7300 <_ZN5Xbyak5ErrorD1Ev>
    37e6:	48 8d 35 53 52 01 00 	lea    0x15253(%rip),%rsi        # 18a40 <_ZTVN10__cxxabiv120__si_class_type_infoE@CXXABI_1.3>
    37ed:	48 89 c7             	mov    %rax,%rdi
    37f0:	48 8d 05 01 53 01 00 	lea    0x15301(%rip),%rax        # 18af8 <_ZTVN5Xbyak5ErrorE>
    37f7:	c7 47 08 02 00 00 00 	movl   $0x2,0x8(%rdi)
    37fe:	48 83 c0 10          	add    $0x10,%rax
    3802:	48 89 07             	mov    %rax,(%rdi)
    3805:	e8 56 fe ff ff       	callq  3660 <__cxa_throw@plt>

000000000000380a <_ZN5Xbyak9CodeArray2dbEmm.part.0>:
    380a:	50                   	push   %rax
    380b:	58                   	pop    %rax
    380c:	bf 10 00 00 00       	mov    $0x10,%edi
    3811:	50                   	push   %rax
    3812:	e8 09 fc ff ff       	callq  3420 <__cxa_allocate_exception@plt>
    3817:	48 8d 15 e2 3a 00 00 	lea    0x3ae2(%rip),%rdx        # 7300 <_ZN5Xbyak5ErrorD1Ev>
    381e:	48 8d 35 1b 52 01 00 	lea    0x1521b(%rip),%rsi        # 18a40 <_ZTVN10__cxxabiv120__si_class_type_infoE@CXXABI_1.3>
    3825:	48 89 c7             	mov    %rax,%rdi
    3828:	48 8d 05 c9 52 01 00 	lea    0x152c9(%rip),%rax        # 18af8 <_ZTVN5Xbyak5ErrorE>
    382f:	c7 47 08 0d 00 00 00 	movl   $0xd,0x8(%rdi)
    3836:	48 83 c0 10          	add    $0x10,%rax
    383a:	48 89 07             	mov    %rax,(%rdi)
    383d:	e8 1e fe ff ff       	callq  3660 <__cxa_throw@plt>

0000000000003842 <_ZN5Xbyak9CodeArray14setProtectModeENS0_11ProtectModeEb.part.0>:
    3842:	50                   	push   %rax
    3843:	58                   	pop    %rax
    3844:	bf 10 00 00 00       	mov    $0x10,%edi
    3849:	50                   	push   %rax
    384a:	e8 d1 fb ff ff       	callq  3420 <__cxa_allocate_exception@plt>
    384f:	48 8d 15 aa 3a 00 00 	lea    0x3aaa(%rip),%rdx        # 7300 <_ZN5Xbyak5ErrorD1Ev>
    3856:	48 8d 35 e3 51 01 00 	lea    0x151e3(%rip),%rsi        # 18a40 <_ZTVN10__cxxabiv120__si_class_type_infoE@CXXABI_1.3>
    385d:	48 89 c7             	mov    %rax,%rdi
    3860:	48 8d 05 91 52 01 00 	lea    0x15291(%rip),%rax        # 18af8 <_ZTVN5Xbyak5ErrorE>
    3867:	c7 47 08 0e 00 00 00 	movl   $0xe,0x8(%rdi)
    386e:	48 83 c0 10          	add    $0x10,%rax
    3872:	48 89 07             	mov    %rax,(%rdi)
    3875:	e8 e6 fd ff ff       	callq  3660 <__cxa_throw@plt>

000000000000387a <_ZN5Xbyak13CodeGenerator3movERKNS_7OperandES3_.part.0>:
    387a:	50                   	push   %rax
    387b:	58                   	pop    %rax
    387c:	bf 10 00 00 00       	mov    $0x10,%edi
    3881:	50                   	push   %rax
    3882:	e8 99 fb ff ff       	callq  3420 <__cxa_allocate_exception@plt>
    3887:	48 8d 15 72 3a 00 00 	lea    0x3a72(%rip),%rdx        # 7300 <_ZN5Xbyak5ErrorD1Ev>
    388e:	48 8d 35 ab 51 01 00 	lea    0x151ab(%rip),%rsi        # 18a40 <_ZTVN10__cxxabiv120__si_class_type_infoE@CXXABI_1.3>
    3895:	48 89 c7             	mov    %rax,%rdi
    3898:	48 8d 05 59 52 01 00 	lea    0x15259(%rip),%rax        # 18af8 <_ZTVN5Xbyak5ErrorE>
    389f:	c7 47 08 05 00 00 00 	movl   $0x5,0x8(%rdi)
    38a6:	48 83 c0 10          	add    $0x10,%rax
    38aa:	48 89 07             	mov    %rax,(%rdi)
    38ad:	e8 ae fd ff ff       	callq  3660 <__cxa_throw@plt>

00000000000038b2 <_ZN5Xbyak13CodeGenerator15verifyDuplicateEiiii.isra.0.part.0>:
    38b2:	53                   	push   %rbx
    38b3:	89 fb                	mov    %edi,%ebx
    38b5:	bf 10 00 00 00       	mov    $0x10,%edi
    38ba:	e8 61 fb ff ff       	callq  3420 <__cxa_allocate_exception@plt>
    38bf:	48 8d 15 3a 3a 00 00 	lea    0x3a3a(%rip),%rdx        # 7300 <_ZN5Xbyak5ErrorD1Ev>
    38c6:	48 8d 35 73 51 01 00 	lea    0x15173(%rip),%rsi        # 18a40 <_ZTVN10__cxxabiv120__si_class_type_infoE@CXXABI_1.3>
    38cd:	48 89 c7             	mov    %rax,%rdi
    38d0:	48 8d 05 21 52 01 00 	lea    0x15221(%rip),%rax        # 18af8 <_ZTVN5Xbyak5ErrorE>
    38d7:	89 5f 08             	mov    %ebx,0x8(%rdi)
    38da:	48 83 c0 10          	add    $0x10,%rax
    38de:	48 89 07             	mov    %rax,(%rdi)
    38e1:	e8 7a fd ff ff       	callq  3660 <__cxa_throw@plt>

00000000000038e6 <_ZNK5Xbyak13CodeGenerator16verifyMemHasSizeERKNS_7OperandE.isra.0.part.0>:
    38e6:	50                   	push   %rax
    38e7:	58                   	pop    %rax
    38e8:	bf 10 00 00 00       	mov    $0x10,%edi
    38ed:	50                   	push   %rax
    38ee:	e8 2d fb ff ff       	callq  3420 <__cxa_allocate_exception@plt>
    38f3:	48 8d 15 06 3a 00 00 	lea    0x3a06(%rip),%rdx        # 7300 <_ZN5Xbyak5ErrorD1Ev>
    38fa:	48 8d 35 3f 51 01 00 	lea    0x1513f(%rip),%rsi        # 18a40 <_ZTVN10__cxxabiv120__si_class_type_infoE@CXXABI_1.3>
    3901:	48 89 c7             	mov    %rax,%rdi
    3904:	48 8d 05 ed 51 01 00 	lea    0x151ed(%rip),%rax        # 18af8 <_ZTVN5Xbyak5ErrorE>
    390b:	c7 47 08 11 00 00 00 	movl   $0x11,0x8(%rdi)
    3912:	48 83 c0 10          	add    $0x10,%rax
    3916:	48 89 07             	mov    %rax,(%rdi)
    3919:	e8 42 fd ff ff       	callq  3660 <__cxa_throw@plt>

000000000000391e <_ZN5XbyakplERKNS_6RegExpES2_.part.0>:
    391e:	50                   	push   %rax
    391f:	58                   	pop    %rax
    3920:	bf 10 00 00 00       	mov    $0x10,%edi
    3925:	50                   	push   %rax
    3926:	e8 f5 fa ff ff       	callq  3420 <__cxa_allocate_exception@plt>
    392b:	48 8d 15 ce 39 00 00 	lea    0x39ce(%rip),%rdx        # 7300 <_ZN5Xbyak5ErrorD1Ev>
    3932:	48 8d 35 07 51 01 00 	lea    0x15107(%rip),%rsi        # 18a40 <_ZTVN10__cxxabiv120__si_class_type_infoE@CXXABI_1.3>
    3939:	48 89 c7             	mov    %rax,%rdi
    393c:	48 8d 05 b5 51 01 00 	lea    0x151b5(%rip),%rax        # 18af8 <_ZTVN5Xbyak5ErrorE>
    3943:	c7 47 08 01 00 00 00 	movl   $0x1,0x8(%rdi)
    394a:	48 83 c0 10          	add    $0x10,%rax
    394e:	48 89 07             	mov    %rax,(%rdi)
    3951:	e8 0a fd ff ff       	callq  3660 <__cxa_throw@plt>

0000000000003956 <_ZN5Xbyak13CodeGenerator6opModMERKNS_7AddressERKNS_3RegEiiii.part.0>:
    3956:	50                   	push   %rax
    3957:	58                   	pop    %rax
    3958:	bf 10 00 00 00       	mov    $0x10,%edi
    395d:	50                   	push   %rax
    395e:	e8 bd fa ff ff       	callq  3420 <__cxa_allocate_exception@plt>
    3963:	48 8d 15 96 39 00 00 	lea    0x3996(%rip),%rdx        # 7300 <_ZN5Xbyak5ErrorD1Ev>
    396a:	48 8d 35 cf 50 01 00 	lea    0x150cf(%rip),%rsi        # 18a40 <_ZTVN10__cxxabiv120__si_class_type_infoE@CXXABI_1.3>
    3971:	48 89 c7             	mov    %rax,%rdi
    3974:	48 8d 05 7d 51 01 00 	lea    0x1517d(%rip),%rax        # 18af8 <_ZTVN5Xbyak5ErrorE>
    397b:	c7 47 08 0f 00 00 00 	movl   $0xf,0x8(%rdi)
    3982:	48 83 c0 10          	add    $0x10,%rax
    3986:	48 89 07             	mov    %rax,(%rdi)
    3989:	e8 d2 fc ff ff       	callq  3660 <__cxa_throw@plt>

000000000000398e <_ZN5Xbyak13CodeGenerator3movERKNS_7OperandEm.part.0>:
    398e:	50                   	push   %rax
    398f:	58                   	pop    %rax
    3990:	bf 10 00 00 00       	mov    $0x10,%edi
    3995:	50                   	push   %rax
    3996:	e8 85 fa ff ff       	callq  3420 <__cxa_allocate_exception@plt>
    399b:	48 8d 15 5e 39 00 00 	lea    0x395e(%rip),%rdx        # 7300 <_ZN5Xbyak5ErrorD1Ev>
    39a2:	48 8d 35 97 50 01 00 	lea    0x15097(%rip),%rsi        # 18a40 <_ZTVN10__cxxabiv120__si_class_type_infoE@CXXABI_1.3>
    39a9:	48 89 c7             	mov    %rax,%rdi
    39ac:	48 8d 05 45 51 01 00 	lea    0x15145(%rip),%rax        # 18af8 <_ZTVN5Xbyak5ErrorE>
    39b3:	c7 47 08 07 00 00 00 	movl   $0x7,0x8(%rdi)
    39ba:	48 83 c0 10          	add    $0x10,%rax
    39be:	48 89 07             	mov    %rax,(%rdi)
    39c1:	e8 9a fc ff ff       	callq  3660 <__cxa_throw@plt>

00000000000039c6 <_ZN5Xbyak13CodeGenerator5opVexERKNS_3RegEPKNS_7OperandERS5_iii.part.0>:
    39c6:	50                   	push   %rax
    39c7:	58                   	pop    %rax
    39c8:	bf 10 00 00 00       	mov    $0x10,%edi
    39cd:	50                   	push   %rax
    39ce:	e8 4d fa ff ff       	callq  3420 <__cxa_allocate_exception@plt>
    39d3:	48 8d 15 26 39 00 00 	lea    0x3926(%rip),%rdx        # 7300 <_ZN5Xbyak5ErrorD1Ev>
    39da:	48 8d 35 5f 50 01 00 	lea    0x1505f(%rip),%rsi        # 18a40 <_ZTVN10__cxxabiv120__si_class_type_infoE@CXXABI_1.3>
    39e1:	48 89 c7             	mov    %rax,%rdi
    39e4:	48 8d 05 0d 51 01 00 	lea    0x1510d(%rip),%rax        # 18af8 <_ZTVN5Xbyak5ErrorE>
    39eb:	c7 47 08 28 00 00 00 	movl   $0x28,0x8(%rdi)
    39f2:	48 83 c0 10          	add    $0x10,%rax
    39f6:	48 89 07             	mov    %rax,(%rdi)
    39f9:	e8 62 fc ff ff       	callq  3660 <__cxa_throw@plt>

00000000000039fe <mcl_init.cold>:
    39fe:	48 83 e8 01          	sub    $0x1,%rax
    3a02:	75 3d                	jne    3a41 <mcl_init.cold+0x43>
    3a04:	e8 e7 f9 ff ff       	callq  33f0 <__cxa_begin_catch@plt>
    3a09:	48 89 c7             	mov    %rax,%rdi
    3a0c:	48 8b 00             	mov    (%rax),%rax
    3a0f:	ff 50 10             	callq  *0x10(%rax)
    3a12:	48 8d 15 54 18 01 00 	lea    0x11854(%rip),%rdx        # 1526d <_IO_stdin_used+0x26d>
    3a19:	be 01 00 00 00       	mov    $0x1,%esi
    3a1e:	48 89 c1             	mov    %rax,%rcx
    3a21:	48 8b 05 a8 55 01 00 	mov    0x155a8(%rip),%rax        # 18fd0 <stderr@GLIBC_2.2.5>
    3a28:	48 8b 38             	mov    (%rax),%rdi
    3a2b:	31 c0                	xor    %eax,%eax
    3a2d:	e8 0e fc ff ff       	callq  3640 <__fprintf_chk@plt>
    3a32:	e8 f9 fb ff ff       	callq  3630 <__cxa_end_catch@plt>
    3a37:	b8 01 00 00 00       	mov    $0x1,%eax
    3a3c:	e9 52 38 00 00       	jmpq   7293 <mcl_init+0x13>
    3a41:	e8 3a fc ff ff       	callq  3680 <_Unwind_Resume@plt>
    3a46:	f3 0f 1e fa          	endbr64 
    3a4a:	48 89 c5             	mov    %rax,%rbp
    3a4d:	e8 de fb ff ff       	callq  3630 <__cxa_end_catch@plt>
    3a52:	48 89 ef             	mov    %rbp,%rdi
    3a55:	e8 26 fc ff ff       	callq  3680 <_Unwind_Resume@plt>

0000000000003a5a <_GLOBAL__sub_I_mcl.cpp.cold>:
    3a5a:	bf 10 00 00 00       	mov    $0x10,%edi
    3a5f:	e8 bc f9 ff ff       	callq  3420 <__cxa_allocate_exception@plt>
    3a64:	48 8d 15 95 38 00 00 	lea    0x3895(%rip),%rdx        # 7300 <_ZN5Xbyak5ErrorD1Ev>
    3a6b:	48 8d 35 ce 4f 01 00 	lea    0x14fce(%rip),%rsi        # 18a40 <_ZTVN10__cxxabiv120__si_class_type_infoE@CXXABI_1.3>
    3a72:	48 89 c7             	mov    %rax,%rdi
    3a75:	48 8d 05 7c 50 01 00 	lea    0x1507c(%rip),%rax        # 18af8 <_ZTVN5Xbyak5ErrorE>
    3a7c:	c7 47 08 16 00 00 00 	movl   $0x16,0x8(%rdi)
    3a83:	48 83 c0 10          	add    $0x10,%rax
    3a87:	48 89 07             	mov    %rax,(%rdi)
    3a8a:	e8 d1 fb ff ff       	callq  3660 <__cxa_throw@plt>
    3a8f:	f3 0f 1e fa          	endbr64 
    3a93:	49 89 c4             	mov    %rax,%r12
    3a96:	49 8d 45 10          	lea    0x10(%r13),%rax
    3a9a:	48 8b 7d 40          	mov    0x40(%rbp),%rdi
    3a9e:	48 89 45 28          	mov    %rax,0x28(%rbp)
    3aa2:	48 85 ff             	test   %rdi,%rdi
    3aa5:	0f 85 7e 01 00 00    	jne    3c29 <_GLOBAL__sub_I_mcl.cpp.cold+0x1cf>
    3aab:	48 8b 45 38          	mov    0x38(%rbp),%rax
    3aaf:	48 8b 7d 30          	mov    0x30(%rbp),%rdi
    3ab3:	31 f6                	xor    %esi,%esi
    3ab5:	48 8d 14 c5 00 00 00 	lea    0x0(,%rax,8),%rdx
    3abc:	00 
    3abd:	e8 7e f9 ff ff       	callq  3440 <memset@plt>
    3ac2:	48 8b 7d 30          	mov    0x30(%rbp),%rdi
    3ac6:	48 8d 45 60          	lea    0x60(%rbp),%rax
    3aca:	48 c7 45 48 00 00 00 	movq   $0x0,0x48(%rbp)
    3ad1:	00 
    3ad2:	48 c7 45 40 00 00 00 	movq   $0x0,0x40(%rbp)
    3ad9:	00 
    3ada:	48 39 c7             	cmp    %rax,%rdi
    3add:	74 05                	je     3ae4 <_GLOBAL__sub_I_mcl.cpp.cold+0x8a>
    3adf:	e8 1c fa ff ff       	callq  3500 <_ZdlPv@plt>
    3ae4:	48 8b 7d 08          	mov    0x8(%rbp),%rdi
    3ae8:	48 8d 5d 08          	lea    0x8(%rbp),%rbx
    3aec:	48 39 df             	cmp    %rbx,%rdi
    3aef:	0f 85 54 01 00 00    	jne    3c49 <_GLOBAL__sub_I_mcl.cpp.cold+0x1ef>
    3af5:	4c 89 e7             	mov    %r12,%rdi
    3af8:	e8 83 fb ff ff       	callq  3680 <_Unwind_Resume@plt>
    3afd:	48 8b bd 38 01 00 00 	mov    0x138(%rbp),%rdi
    3b04:	48 85 ff             	test   %rdi,%rdi
    3b07:	0f 85 2c 01 00 00    	jne    3c39 <_GLOBAL__sub_I_mcl.cpp.cold+0x1df>
    3b0d:	48 8b 85 30 01 00 00 	mov    0x130(%rbp),%rax
    3b14:	48 8b bd 28 01 00 00 	mov    0x128(%rbp),%rdi
    3b1b:	31 f6                	xor    %esi,%esi
    3b1d:	48 8d 14 c5 00 00 00 	lea    0x0(,%rax,8),%rdx
    3b24:	00 
    3b25:	e8 16 f9 ff ff       	callq  3440 <memset@plt>
    3b2a:	48 8b bd 28 01 00 00 	mov    0x128(%rbp),%rdi
    3b31:	48 8d 85 58 01 00 00 	lea    0x158(%rbp),%rax
    3b38:	48 c7 85 40 01 00 00 	movq   $0x0,0x140(%rbp)
    3b3f:	00 00 00 00 
    3b43:	48 c7 85 38 01 00 00 	movq   $0x0,0x138(%rbp)
    3b4a:	00 00 00 00 
    3b4e:	48 39 c7             	cmp    %rax,%rdi
    3b51:	74 05                	je     3b58 <_GLOBAL__sub_I_mcl.cpp.cold+0xfe>
    3b53:	e8 a8 f9 ff ff       	callq  3500 <_ZdlPv@plt>
    3b58:	48 8b bd 00 01 00 00 	mov    0x100(%rbp),%rdi
    3b5f:	48 85 ff             	test   %rdi,%rdi
    3b62:	0f 85 f1 00 00 00    	jne    3c59 <_GLOBAL__sub_I_mcl.cpp.cold+0x1ff>
    3b68:	48 8b 85 f8 00 00 00 	mov    0xf8(%rbp),%rax
    3b6f:	48 8b bd f0 00 00 00 	mov    0xf0(%rbp),%rdi
    3b76:	31 f6                	xor    %esi,%esi
    3b78:	48 8d 14 c5 00 00 00 	lea    0x0(,%rax,8),%rdx
    3b7f:	00 
    3b80:	e8 bb f8 ff ff       	callq  3440 <memset@plt>
    3b85:	48 8b bd f0 00 00 00 	mov    0xf0(%rbp),%rdi
    3b8c:	48 8d 85 20 01 00 00 	lea    0x120(%rbp),%rax
    3b93:	48 c7 85 08 01 00 00 	movq   $0x0,0x108(%rbp)
    3b9a:	00 00 00 00 
    3b9e:	48 c7 85 00 01 00 00 	movq   $0x0,0x100(%rbp)
    3ba5:	00 00 00 00 
    3ba9:	48 39 c7             	cmp    %rax,%rdi
    3bac:	0f 85 b7 00 00 00    	jne    3c69 <_GLOBAL__sub_I_mcl.cpp.cold+0x20f>
    3bb2:	48 8b bd c8 00 00 00 	mov    0xc8(%rbp),%rdi
    3bb9:	48 85 ff             	test   %rdi,%rdi
    3bbc:	0f 85 b1 00 00 00    	jne    3c73 <_GLOBAL__sub_I_mcl.cpp.cold+0x219>
    3bc2:	48 8b 85 c0 00 00 00 	mov    0xc0(%rbp),%rax
    3bc9:	48 8b bd b8 00 00 00 	mov    0xb8(%rbp),%rdi
    3bd0:	31 f6                	xor    %esi,%esi
    3bd2:	48 8d 14 c5 00 00 00 	lea    0x0(,%rax,8),%rdx
    3bd9:	00 
    3bda:	e8 61 f8 ff ff       	callq  3440 <memset@plt>
    3bdf:	48 8b bd b8 00 00 00 	mov    0xb8(%rbp),%rdi
    3be6:	48 8d 85 e8 00 00 00 	lea    0xe8(%rbp),%rax
    3bed:	48 c7 85 d0 00 00 00 	movq   $0x0,0xd0(%rbp)
    3bf4:	00 00 00 00 
    3bf8:	48 c7 85 c8 00 00 00 	movq   $0x0,0xc8(%rbp)
    3bff:	00 00 00 00 
    3c03:	48 39 c7             	cmp    %rax,%rdi
    3c06:	74 05                	je     3c0d <_GLOBAL__sub_I_mcl.cpp.cold+0x1b3>
    3c08:	e8 f3 f8 ff ff       	callq  3500 <_ZdlPv@plt>
    3c0d:	48 8d bd 98 00 00 00 	lea    0x98(%rbp),%rdi
    3c14:	e8 07 64 00 00       	callq  a020 <_ZNSt7__cxx1110_List_baseIN5Xbyak12LabelManager11SlabelStateESaIS3_EE8_M_clearEv>
    3c19:	48 89 ef             	mov    %rbp,%rdi
    3c1c:	e8 bf 3a 00 00       	callq  76e0 <_ZN5Xbyak9CodeArrayD1Ev>
    3c21:	4c 89 e7             	mov    %r12,%rdi
    3c24:	e8 57 fa ff ff       	callq  3680 <_Unwind_Resume@plt>
    3c29:	48 8b 1f             	mov    (%rdi),%rbx
    3c2c:	e8 cf f8 ff ff       	callq  3500 <_ZdlPv@plt>
    3c31:	48 89 df             	mov    %rbx,%rdi
    3c34:	e9 69 fe ff ff       	jmpq   3aa2 <_GLOBAL__sub_I_mcl.cpp.cold+0x48>
    3c39:	48 8b 1f             	mov    (%rdi),%rbx
    3c3c:	e8 bf f8 ff ff       	callq  3500 <_ZdlPv@plt>
    3c41:	48 89 df             	mov    %rbx,%rdi
    3c44:	e9 bb fe ff ff       	jmpq   3b04 <_GLOBAL__sub_I_mcl.cpp.cold+0xaa>
    3c49:	48 8b 2f             	mov    (%rdi),%rbp
    3c4c:	e8 af f8 ff ff       	callq  3500 <_ZdlPv@plt>
    3c51:	48 89 ef             	mov    %rbp,%rdi
    3c54:	e9 93 fe ff ff       	jmpq   3aec <_GLOBAL__sub_I_mcl.cpp.cold+0x92>
    3c59:	48 8b 1f             	mov    (%rdi),%rbx
    3c5c:	e8 9f f8 ff ff       	callq  3500 <_ZdlPv@plt>
    3c61:	48 89 df             	mov    %rbx,%rdi
    3c64:	e9 f6 fe ff ff       	jmpq   3b5f <_GLOBAL__sub_I_mcl.cpp.cold+0x105>
    3c69:	e8 92 f8 ff ff       	callq  3500 <_ZdlPv@plt>
    3c6e:	e9 3f ff ff ff       	jmpq   3bb2 <_GLOBAL__sub_I_mcl.cpp.cold+0x158>
    3c73:	48 8b 1f             	mov    (%rdi),%rbx
    3c76:	e8 85 f8 ff ff       	callq  3500 <_ZdlPv@plt>
    3c7b:	48 89 df             	mov    %rbx,%rdi
    3c7e:	e9 36 ff ff ff       	jmpq   3bb9 <_GLOBAL__sub_I_mcl.cpp.cold+0x15f>
    3c83:	90                   	nop

0000000000003c84 <_ZNSt7__cxx1112basic_stringIcSt11char_traitsIcESaIcEEC2EPKcRKS3_.isra.0>:
    3c84:	41 54                	push   %r12
    3c86:	48 8d 47 10          	lea    0x10(%rdi),%rax
    3c8a:	55                   	push   %rbp
    3c8b:	53                   	push   %rbx
    3c8c:	48 83 ec 10          	sub    $0x10,%rsp
    3c90:	48 89 07             	mov    %rax,(%rdi)
    3c93:	48 85 f6             	test   %rsi,%rsi
    3c96:	74 7b                	je     3d13 <_ZNSt7__cxx1112basic_stringIcSt11char_traitsIcESaIcEEC2EPKcRKS3_.isra.0+0x8f>
    3c98:	48 89 fd             	mov    %rdi,%rbp
    3c9b:	48 83 c9 ff          	or     $0xffffffffffffffff,%rcx
    3c9f:	31 c0                	xor    %eax,%eax
    3ca1:	48 89 f7             	mov    %rsi,%rdi
    3ca4:	f2 ae                	repnz scas %es:(%rdi),%al
    3ca6:	49 89 f4             	mov    %rsi,%r12
    3ca9:	48 f7 d1             	not    %rcx
    3cac:	48 8d 59 ff          	lea    -0x1(%rcx),%rbx
    3cb0:	48 89 5c 24 08       	mov    %rbx,0x8(%rsp)
    3cb5:	48 83 fb 0f          	cmp    $0xf,%rbx
    3cb9:	76 1c                	jbe    3cd7 <_ZNSt7__cxx1112basic_stringIcSt11char_traitsIcESaIcEEC2EPKcRKS3_.isra.0+0x53>
    3cbb:	48 8d 74 24 08       	lea    0x8(%rsp),%rsi
    3cc0:	31 d2                	xor    %edx,%edx
    3cc2:	48 89 ef             	mov    %rbp,%rdi
    3cc5:	e8 d6 f9 ff ff       	callq  36a0 <_ZNSt7__cxx1112basic_stringIcSt11char_traitsIcESaIcEE9_M_createERmm@plt>
    3cca:	48 89 45 00          	mov    %rax,0x0(%rbp)
    3cce:	48 8b 44 24 08       	mov    0x8(%rsp),%rax
    3cd3:	48 89 45 10          	mov    %rax,0x10(%rbp)
    3cd7:	48 8b 45 00          	mov    0x0(%rbp),%rax
    3cdb:	48 83 fb 01          	cmp    $0x1,%rbx
    3cdf:	75 08                	jne    3ce9 <_ZNSt7__cxx1112basic_stringIcSt11char_traitsIcESaIcEEC2EPKcRKS3_.isra.0+0x65>
    3ce1:	41 8a 14 24          	mov    (%r12),%dl
    3ce5:	88 10                	mov    %dl,(%rax)
    3ce7:	eb 10                	jmp    3cf9 <_ZNSt7__cxx1112basic_stringIcSt11char_traitsIcESaIcEEC2EPKcRKS3_.isra.0+0x75>
    3ce9:	48 85 db             	test   %rbx,%rbx
    3cec:	74 0b                	je     3cf9 <_ZNSt7__cxx1112basic_stringIcSt11char_traitsIcESaIcEEC2EPKcRKS3_.isra.0+0x75>
    3cee:	48 89 c7             	mov    %rax,%rdi
    3cf1:	4c 89 e6             	mov    %r12,%rsi
    3cf4:	48 89 d9             	mov    %rbx,%rcx
    3cf7:	f3 a4                	rep movsb %ds:(%rsi),%es:(%rdi)
    3cf9:	48 8b 44 24 08       	mov    0x8(%rsp),%rax
    3cfe:	48 8b 55 00          	mov    0x0(%rbp),%rdx
    3d02:	48 89 45 08          	mov    %rax,0x8(%rbp)
    3d06:	c6 04 02 00          	movb   $0x0,(%rdx,%rax,1)
    3d0a:	48 83 c4 10          	add    $0x10,%rsp
    3d0e:	5b                   	pop    %rbx
    3d0f:	5d                   	pop    %rbp
    3d10:	41 5c                	pop    %r12
    3d12:	c3                   	retq   
    3d13:	48 8d 3d 7e 13 01 00 	lea    0x1137e(%rip),%rdi        # 15098 <_IO_stdin_used+0x98>
    3d1a:	e8 81 f7 ff ff       	callq  34a0 <_ZSt19__throw_logic_errorPKc@plt>
    3d1f:	90                   	nop

0000000000003d20 <main>:
    3d20:	f3 0f 1e fa          	endbr64 
    3d24:	48 89 f2             	mov    %rsi,%rdx
    3d27:	89 fe                	mov    %edi,%esi
    3d29:	48 8b 3d a0 54 01 00 	mov    0x154a0(%rip),%rdi        # 191d0 <_ZN6cybozu4testL7autoRunE>
    3d30:	e9 5b 2b 00 00       	jmpq   6890 <_ZN6cybozu4test7AutoRun3runEiPPc>
    3d35:	66 66 2e 0f 1f 84 00 	data16 nopw %cs:0x0(%rax,%rax,1)
    3d3c:	00 00 00 00 

0000000000003d40 <_GLOBAL__sub_I_main.cpp>:
    3d40:	f3 0f 1e fa          	endbr64 
    3d44:	55                   	push   %rbp
    3d45:	48 8d 3d 8c 54 01 00 	lea    0x1548c(%rip),%rdi        # 191d8 <_ZStL8__ioinit>
    3d4c:	53                   	push   %rbx
    3d4d:	48 83 ec 08          	sub    $0x8,%rsp
    3d51:	e8 aa f8 ff ff       	callq  3600 <_ZNSt8ios_base4InitC1Ev@plt>
    3d56:	48 8b 3d 9b 52 01 00 	mov    0x1529b(%rip),%rdi        # 18ff8 <_ZNSt8ios_base4InitD1Ev@GLIBCXX_3.4>
    3d5d:	48 8d 15 a4 52 01 00 	lea    0x152a4(%rip),%rdx        # 19008 <__dso_handle>
    3d64:	48 8d 35 6d 54 01 00 	lea    0x1546d(%rip),%rsi        # 191d8 <_ZStL8__ioinit>
    3d6b:	e8 70 f7 ff ff       	callq  34e0 <__cxa_atexit@plt>
    3d70:	48 8d 2d 69 54 01 00 	lea    0x15469(%rip),%rbp        # 191e0 <_ZGVZN6cybozu4test7AutoRun11getInstanceEvE8instance>
    3d77:	0f b6 45 00          	movzbl 0x0(%rbp),%eax
    3d7b:	84 c0                	test   %al,%al
    3d7d:	74 46                	je     3dc5 <_GLOBAL__sub_I_main.cpp+0x85>
    3d7f:	48 8d 1d 7a 54 01 00 	lea    0x1547a(%rip),%rbx        # 19200 <_ZZN6cybozu4test7AutoRun11getInstanceEvE8instance>
    3d86:	bf 20 00 00 00       	mov    $0x20,%edi
    3d8b:	48 89 1d 3e 54 01 00 	mov    %rbx,0x1543e(%rip)        # 191d0 <_ZN6cybozu4testL7autoRunE>
    3d92:	e8 89 f7 ff ff       	callq  3520 <_Znwm@plt>
    3d97:	48 8d 73 20          	lea    0x20(%rbx),%rsi
    3d9b:	48 89 c7             	mov    %rax,%rdi
    3d9e:	48 8d 05 16 14 01 00 	lea    0x11416(%rip),%rax        # 151bb <_IO_stdin_used+0x1bb>
    3da5:	48 89 47 10          	mov    %rax,0x10(%rdi)
    3da9:	48 8d 05 f0 23 00 00 	lea    0x23f0(%rip),%rax        # 61a0 <_Z18cybozu_test_mulPrev>
    3db0:	48 89 47 18          	mov    %rax,0x18(%rdi)
    3db4:	e8 07 f6 ff ff       	callq  33c0 <_ZNSt8__detail15_List_node_base7_M_hookEPS0_@plt>
    3db9:	48 83 43 30 01       	addq   $0x1,0x30(%rbx)
    3dbe:	48 83 c4 08          	add    $0x8,%rsp
    3dc2:	5b                   	pop    %rbx
    3dc3:	5d                   	pop    %rbp
    3dc4:	c3                   	retq   
    3dc5:	48 89 ef             	mov    %rbp,%rdi
    3dc8:	e8 e3 f8 ff ff       	callq  36b0 <__cxa_guard_acquire@plt>
    3dcd:	48 8d 1d 2c 54 01 00 	lea    0x1542c(%rip),%rbx        # 19200 <_ZZN6cybozu4test7AutoRun11getInstanceEvE8instance>
    3dd4:	85 c0                	test   %eax,%eax
    3dd6:	74 ae                	je     3d86 <_GLOBAL__sub_I_main.cpp+0x46>
    3dd8:	48 8d 43 20          	lea    0x20(%rbx),%rax
    3ddc:	66 0f ef c9          	pxor   %xmm1,%xmm1
    3de0:	48 89 ef             	mov    %rbp,%rdi
    3de3:	48 c7 43 10 00 00 00 	movq   $0x0,0x10(%rbx)
    3dea:	00 
    3deb:	c7 43 18 00 00 00 00 	movl   $0x0,0x18(%rbx)
    3df2:	66 48 0f 6e c0       	movq   %rax,%xmm0
    3df7:	48 c7 43 30 00 00 00 	movq   $0x0,0x30(%rbx)
    3dfe:	00 
    3dff:	66 0f 6c c0          	punpcklqdq %xmm0,%xmm0
    3e03:	0f 11 0b             	movups %xmm1,(%rbx)
    3e06:	0f 11 43 20          	movups %xmm0,0x20(%rbx)
    3e0a:	e8 51 f6 ff ff       	callq  3460 <__cxa_guard_release@plt>
    3e0f:	48 8d 3d 3a 2a 00 00 	lea    0x2a3a(%rip),%rdi        # 6850 <_ZN6cybozu4test7AutoRunD1Ev>
    3e16:	48 8d 15 eb 51 01 00 	lea    0x151eb(%rip),%rdx        # 19008 <__dso_handle>
    3e1d:	48 89 de             	mov    %rbx,%rsi
    3e20:	e8 bb f6 ff ff       	callq  34e0 <__cxa_atexit@plt>
    3e25:	e9 5c ff ff ff       	jmpq   3d86 <_GLOBAL__sub_I_main.cpp+0x46>
    3e2a:	66 0f 1f 44 00 00    	nopw   0x0(%rax,%rax,1)

0000000000003e30 <_GLOBAL__sub_I_mcl.cpp>:
    3e30:	f3 0f 1e fa          	endbr64 
    3e34:	41 55                	push   %r13
    3e36:	48 8d 3d 2b 60 01 00 	lea    0x1602b(%rip),%rdi        # 19e68 <_ZStL8__ioinit>
    3e3d:	41 54                	push   %r12
    3e3f:	55                   	push   %rbp
    3e40:	53                   	push   %rbx
    3e41:	48 83 ec 28          	sub    $0x28,%rsp
    3e45:	4c 8d 2d d4 4c 01 00 	lea    0x14cd4(%rip),%r13        # 18b20 <_ZTVN5Xbyak13MmapAllocatorE>
    3e4c:	48 8d 2d ed 53 01 00 	lea    0x153ed(%rip),%rbp        # 19240 <s_mcl>
    3e53:	49 8d 45 10          	lea    0x10(%r13),%rax
    3e57:	48 8d 5d 60          	lea    0x60(%rbp),%rbx
    3e5b:	66 48 0f 6e c0       	movq   %rax,%xmm0
    3e60:	48 8d 05 f1 4c 01 00 	lea    0x14cf1(%rip),%rax        # 18b58 <_ZTVN5Xbyak9CodeArrayE>
    3e67:	4c 8d 65 08          	lea    0x8(%rbp),%r12
    3e6b:	66 48 0f 6e d3       	movq   %rbx,%xmm2
    3e70:	66 49 0f 6e dc       	movq   %r12,%xmm3
    3e75:	66 0f 6c c2          	punpcklqdq %xmm2,%xmm0
    3e79:	48 83 c0 10          	add    $0x10,%rax
    3e7d:	0f 29 44 24 10       	movaps %xmm0,0x10(%rsp)
    3e82:	66 48 0f 6e c8       	movq   %rax,%xmm1
    3e87:	66 0f 6c cb          	punpcklqdq %xmm3,%xmm1
    3e8b:	0f 29 0c 24          	movaps %xmm1,(%rsp)
    3e8f:	e8 6c f7 ff ff       	callq  3600 <_ZNSt8ios_base4InitC1Ev@plt>
    3e94:	48 8b 3d 5d 51 01 00 	mov    0x1515d(%rip),%rdi        # 18ff8 <_ZNSt8ios_base4InitD1Ev@GLIBCXX_3.4>
    3e9b:	48 8d 35 c6 5f 01 00 	lea    0x15fc6(%rip),%rsi        # 19e68 <_ZStL8__ioinit>
    3ea2:	48 8d 15 5f 51 01 00 	lea    0x1515f(%rip),%rdx        # 19008 <__dso_handle>
    3ea9:	e8 32 f6 ff ff       	callq  34e0 <__cxa_atexit@plt>
    3eae:	48 8d 7b c8          	lea    -0x38(%rbx),%rdi
    3eb2:	66 0f 6f 0c 24       	movdqa (%rsp),%xmm1
    3eb7:	66 0f 6f 44 24 10    	movdqa 0x10(%rsp),%xmm0
    3ebd:	4c 89 65 10          	mov    %r12,0x10(%rbp)
    3ec1:	be 00 90 00 00       	mov    $0x9000,%esi
    3ec6:	48 c7 45 18 00 00 00 	movq   $0x0,0x18(%rbp)
    3ecd:	00 
    3ece:	c7 45 20 02 00 00 00 	movl   $0x2,0x20(%rbp)
    3ed5:	48 c7 45 38 01 00 00 	movq   $0x1,0x38(%rbp)
    3edc:	00 
    3edd:	48 c7 45 40 00 00 00 	movq   $0x0,0x40(%rbp)
    3ee4:	00 
    3ee5:	48 c7 45 48 00 00 00 	movq   $0x0,0x48(%rbp)
    3eec:	00 
    3eed:	c7 45 50 00 00 80 3f 	movl   $0x3f800000,0x50(%rbp)
    3ef4:	48 c7 45 58 00 00 00 	movq   $0x0,0x58(%rbp)
    3efb:	00 
    3efc:	48 c7 45 60 00 00 00 	movq   $0x0,0x60(%rbp)
    3f03:	00 
    3f04:	48 89 7d 68          	mov    %rdi,0x68(%rbp)
    3f08:	48 c7 45 70 00 90 00 	movq   $0x9000,0x70(%rbp)
    3f0f:	00 
    3f10:	0f 11 4d 00          	movups %xmm1,0x0(%rbp)
    3f14:	0f 11 45 28          	movups %xmm0,0x28(%rbp)
    3f18:	e8 f3 75 00 00       	callq  b510 <_ZN5Xbyak13MmapAllocator5allocEm>
    3f1d:	48 83 7d 70 00       	cmpq   $0x0,0x70(%rbp)
    3f22:	48 89 45 78          	mov    %rax,0x78(%rbp)
    3f26:	48 c7 85 80 00 00 00 	movq   $0x0,0x80(%rbp)
    3f2d:	00 00 00 00 
    3f31:	c6 85 88 00 00 00 00 	movb   $0x0,0x88(%rbp)
    3f38:	74 09                	je     3f43 <_GLOBAL__sub_I_mcl.cpp+0x113>
    3f3a:	48 85 c0             	test   %rax,%rax
    3f3d:	0f 84 17 fb ff ff    	je     3a5a <_GLOBAL__sub_I_mcl.cpp.cold>
    3f43:	48 8d 05 2e 4c 01 00 	lea    0x14c2e(%rip),%rax        # 18b78 <_ZTVN5Xbyak13CodeGeneratorE>
    3f4a:	48 c7 85 a8 00 00 00 	movq   $0x0,0xa8(%rbp)
    3f51:	00 00 00 00 
    3f55:	48 8d bd 90 00 00 00 	lea    0x90(%rbp),%rdi
    3f5c:	48 c7 85 c0 00 00 00 	movq   $0x1,0xc0(%rbp)
    3f63:	01 00 00 00 
    3f67:	48 c7 85 c8 00 00 00 	movq   $0x0,0xc8(%rbp)
    3f6e:	00 00 00 00 
    3f72:	48 83 c0 10          	add    $0x10,%rax
    3f76:	48 89 45 00          	mov    %rax,0x0(%rbp)
    3f7a:	48 8d 85 98 00 00 00 	lea    0x98(%rbp),%rax
    3f81:	48 c7 85 d0 00 00 00 	movq   $0x0,0xd0(%rbp)
    3f88:	00 00 00 00 
    3f8c:	66 48 0f 6e c0       	movq   %rax,%xmm0
    3f91:	48 8d 85 e8 00 00 00 	lea    0xe8(%rbp),%rax
    3f98:	48 89 85 b8 00 00 00 	mov    %rax,0xb8(%rbp)
    3f9f:	66 0f 6c c0          	punpcklqdq %xmm0,%xmm0
    3fa3:	48 8d 85 20 01 00 00 	lea    0x120(%rbp),%rax
    3faa:	48 89 85 f0 00 00 00 	mov    %rax,0xf0(%rbp)
    3fb1:	48 8d 85 58 01 00 00 	lea    0x158(%rbp),%rax
    3fb8:	c7 85 d8 00 00 00 00 	movl   $0x3f800000,0xd8(%rbp)
    3fbf:	00 80 3f 
    3fc2:	48 c7 85 e0 00 00 00 	movq   $0x0,0xe0(%rbp)
    3fc9:	00 00 00 00 
    3fcd:	48 c7 85 e8 00 00 00 	movq   $0x0,0xe8(%rbp)
    3fd4:	00 00 00 00 
    3fd8:	48 c7 85 f8 00 00 00 	movq   $0x1,0xf8(%rbp)
    3fdf:	01 00 00 00 
    3fe3:	48 c7 85 00 01 00 00 	movq   $0x0,0x100(%rbp)
    3fea:	00 00 00 00 
    3fee:	48 c7 85 08 01 00 00 	movq   $0x0,0x108(%rbp)
    3ff5:	00 00 00 00 
    3ff9:	c7 85 10 01 00 00 00 	movl   $0x3f800000,0x110(%rbp)
    4000:	00 80 3f 
    4003:	48 c7 85 18 01 00 00 	movq   $0x0,0x118(%rbp)
    400a:	00 00 00 00 
    400e:	48 c7 85 20 01 00 00 	movq   $0x0,0x120(%rbp)
    4015:	00 00 00 00 
    4019:	48 89 85 28 01 00 00 	mov    %rax,0x128(%rbp)
    4020:	48 c7 85 30 01 00 00 	movq   $0x1,0x130(%rbp)
    4027:	01 00 00 00 
    402b:	48 c7 85 38 01 00 00 	movq   $0x0,0x138(%rbp)
    4032:	00 00 00 00 
    4036:	48 c7 85 40 01 00 00 	movq   $0x0,0x140(%rbp)
    403d:	00 00 00 00 
    4041:	c7 85 48 01 00 00 00 	movl   $0x3f800000,0x148(%rbp)
    4048:	00 80 3f 
    404b:	48 c7 85 50 01 00 00 	movq   $0x0,0x150(%rbp)
    4052:	00 00 00 00 
    4056:	48 c7 85 58 01 00 00 	movq   $0x0,0x158(%rbp)
    405d:	00 00 00 00 
    4061:	0f 11 85 98 00 00 00 	movups %xmm0,0x98(%rbp)
    4068:	e8 d3 63 00 00       	callq  a440 <_ZN5Xbyak12LabelManager5resetEv>
    406d:	8b 85 60 01 00 00    	mov    0x160(%rbp),%eax
    4073:	80 a5 64 01 00 00 c0 	andb   $0xc0,0x164(%rbp)
    407a:	48 8d 8d a0 01 00 00 	lea    0x1a0(%rbp),%rcx
    4081:	80 a5 6c 01 00 00 c0 	andb   $0xc0,0x16c(%rbp)
    4088:	66 48 0f 6e c1       	movq   %rcx,%xmm0
    408d:	25 00 00 00 80       	and    $0x80000000,%eax
    4092:	80 a5 74 01 00 00 c0 	andb   $0xc0,0x174(%rbp)
    4099:	0d 00 01 40 00       	or     $0x400100,%eax
    409e:	80 a5 7c 01 00 00 c0 	andb   $0xc0,0x17c(%rbp)
    40a5:	89 85 60 01 00 00    	mov    %eax,0x160(%rbp)
    40ab:	8b 85 68 01 00 00    	mov    0x168(%rbp),%eax
    40b1:	80 a5 84 01 00 00 c0 	andb   $0xc0,0x184(%rbp)
    40b8:	25 00 00 00 80       	and    $0x80000000,%eax
    40bd:	80 a5 8c 01 00 00 c0 	andb   $0xc0,0x18c(%rbp)
    40c4:	0d 01 01 40 00       	or     $0x400101,%eax
    40c9:	80 a5 94 01 00 00 c0 	andb   $0xc0,0x194(%rbp)
    40d0:	89 85 68 01 00 00    	mov    %eax,0x168(%rbp)
    40d6:	8b 85 70 01 00 00    	mov    0x170(%rbp),%eax
    40dc:	80 a5 9c 01 00 00 c0 	andb   $0xc0,0x19c(%rbp)
    40e3:	25 00 00 00 80       	and    $0x80000000,%eax
    40e8:	0d 02 01 40 00       	or     $0x400102,%eax
    40ed:	89 85 70 01 00 00    	mov    %eax,0x170(%rbp)
    40f3:	8b 85 78 01 00 00    	mov    0x178(%rbp),%eax
    40f9:	25 00 00 00 80       	and    $0x80000000,%eax
    40fe:	0d 03 01 40 00       	or     $0x400103,%eax
    4103:	89 85 78 01 00 00    	mov    %eax,0x178(%rbp)
    4109:	8b 85 80 01 00 00    	mov    0x180(%rbp),%eax
    410f:	25 00 00 00 80       	and    $0x80000000,%eax
    4114:	0d 04 01 40 00       	or     $0x400104,%eax
    4119:	89 85 80 01 00 00    	mov    %eax,0x180(%rbp)
    411f:	8b 85 88 01 00 00    	mov    0x188(%rbp),%eax
    4125:	25 00 00 00 80       	and    $0x80000000,%eax
    412a:	0d 05 01 40 00       	or     $0x400105,%eax
    412f:	89 85 88 01 00 00    	mov    %eax,0x188(%rbp)
    4135:	8b 85 90 01 00 00    	mov    0x190(%rbp),%eax
    413b:	25 00 00 00 80       	and    $0x80000000,%eax
    4140:	0d 06 01 40 00       	or     $0x400106,%eax
    4145:	89 85 90 01 00 00    	mov    %eax,0x190(%rbp)
    414b:	8b 85 98 01 00 00    	mov    0x198(%rbp),%eax
    4151:	25 00 00 00 80       	and    $0x80000000,%eax
    4156:	0d 07 01 40 00       	or     $0x400107,%eax
    415b:	89 85 98 01 00 00    	mov    %eax,0x198(%rbp)
    4161:	8b 85 a0 01 00 00    	mov    0x1a0(%rbp),%eax
    4167:	80 a5 a4 01 00 00 c0 	andb   $0xc0,0x1a4(%rbp)
    416e:	25 00 00 00 80       	and    $0x80000000,%eax
    4173:	80 a5 ac 01 00 00 c0 	andb   $0xc0,0x1ac(%rbp)
    417a:	0d 00 04 80 00       	or     $0x800400,%eax
    417f:	89 85 a0 01 00 00    	mov    %eax,0x1a0(%rbp)
    4185:	8b 85 a8 01 00 00    	mov    0x1a8(%rbp),%eax
    418b:	25 00 00 00 80       	and    $0x80000000,%eax
    4190:	0d 01 04 80 00       	or     $0x800401,%eax
    4195:	89 85 a8 01 00 00    	mov    %eax,0x1a8(%rbp)
    419b:	8b 85 b0 01 00 00    	mov    0x1b0(%rbp),%eax
    41a1:	25 00 00 00 80       	and    $0x80000000,%eax
    41a6:	0d 02 04 80 00       	or     $0x800402,%eax
    41ab:	80 a5 b4 01 00 00 c0 	andb   $0xc0,0x1b4(%rbp)
    41b2:	89 85 b0 01 00 00    	mov    %eax,0x1b0(%rbp)
    41b8:	8b 85 b8 01 00 00    	mov    0x1b8(%rbp),%eax
    41be:	80 a5 bc 01 00 00 c0 	andb   $0xc0,0x1bc(%rbp)
    41c5:	25 00 00 00 80       	and    $0x80000000,%eax
    41ca:	80 a5 c4 01 00 00 c0 	andb   $0xc0,0x1c4(%rbp)
    41d1:	0d 03 04 80 00       	or     $0x800403,%eax
    41d6:	80 a5 cc 01 00 00 c0 	andb   $0xc0,0x1cc(%rbp)
    41dd:	89 85 b8 01 00 00    	mov    %eax,0x1b8(%rbp)
    41e3:	8b 85 c0 01 00 00    	mov    0x1c0(%rbp),%eax
    41e9:	80 a5 d4 01 00 00 c0 	andb   $0xc0,0x1d4(%rbp)
    41f0:	25 00 00 00 80       	and    $0x80000000,%eax
    41f5:	80 a5 dc 01 00 00 c0 	andb   $0xc0,0x1dc(%rbp)
    41fc:	0d 04 04 80 00       	or     $0x800404,%eax
    4201:	89 85 c0 01 00 00    	mov    %eax,0x1c0(%rbp)
    4207:	8b 85 c8 01 00 00    	mov    0x1c8(%rbp),%eax
    420d:	25 00 00 00 80       	and    $0x80000000,%eax
    4212:	0d 05 04 80 00       	or     $0x800405,%eax
    4217:	89 85 c8 01 00 00    	mov    %eax,0x1c8(%rbp)
    421d:	8b 85 d0 01 00 00    	mov    0x1d0(%rbp),%eax
    4223:	25 00 00 00 80       	and    $0x80000000,%eax
    4228:	0d 06 04 80 00       	or     $0x800406,%eax
    422d:	89 85 d0 01 00 00    	mov    %eax,0x1d0(%rbp)
    4233:	8b 85 d8 01 00 00    	mov    0x1d8(%rbp),%eax
    4239:	25 00 00 00 80       	and    $0x80000000,%eax
    423e:	0d 07 04 80 00       	or     $0x800407,%eax
    4243:	89 85 d8 01 00 00    	mov    %eax,0x1d8(%rbp)
    4249:	8b 85 e0 01 00 00    	mov    0x1e0(%rbp),%eax
    424f:	80 a5 e4 01 00 00 c0 	andb   $0xc0,0x1e4(%rbp)
    4256:	25 00 00 00 80       	and    $0x80000000,%eax
    425b:	80 a5 ec 01 00 00 c0 	andb   $0xc0,0x1ec(%rbp)
    4262:	0d 00 08 00 01       	or     $0x1000800,%eax
    4267:	80 a5 f4 01 00 00 c0 	andb   $0xc0,0x1f4(%rbp)
    426e:	89 85 e0 01 00 00    	mov    %eax,0x1e0(%rbp)
    4274:	8b 85 e8 01 00 00    	mov    0x1e8(%rbp),%eax
    427a:	80 a5 fc 01 00 00 c0 	andb   $0xc0,0x1fc(%rbp)
    4281:	25 00 00 00 80       	and    $0x80000000,%eax
    4286:	80 a5 04 02 00 00 c0 	andb   $0xc0,0x204(%rbp)
    428d:	0d 01 08 00 01       	or     $0x1000801,%eax
    4292:	89 85 e8 01 00 00    	mov    %eax,0x1e8(%rbp)
    4298:	8b 85 f0 01 00 00    	mov    0x1f0(%rbp),%eax
    429e:	25 00 00 00 80       	and    $0x80000000,%eax
    42a3:	0d 02 08 00 01       	or     $0x1000802,%eax
    42a8:	89 85 f0 01 00 00    	mov    %eax,0x1f0(%rbp)
    42ae:	8b 85 f8 01 00 00    	mov    0x1f8(%rbp),%eax
    42b4:	25 00 00 00 80       	and    $0x80000000,%eax
    42b9:	0d 03 08 00 01       	or     $0x1000803,%eax
    42be:	89 85 f8 01 00 00    	mov    %eax,0x1f8(%rbp)
    42c4:	8b 85 00 02 00 00    	mov    0x200(%rbp),%eax
    42ca:	25 00 00 00 80       	and    $0x80000000,%eax
    42cf:	0d 04 08 00 01       	or     $0x1000804,%eax
    42d4:	89 85 00 02 00 00    	mov    %eax,0x200(%rbp)
    42da:	8b 85 08 02 00 00    	mov    0x208(%rbp),%eax
    42e0:	25 00 00 00 80       	and    $0x80000000,%eax
    42e5:	0d 05 08 00 01       	or     $0x1000805,%eax
    42ea:	80 a5 0c 02 00 00 c0 	andb   $0xc0,0x20c(%rbp)
    42f1:	89 85 08 02 00 00    	mov    %eax,0x208(%rbp)
    42f7:	8b 85 10 02 00 00    	mov    0x210(%rbp),%eax
    42fd:	80 a5 14 02 00 00 c0 	andb   $0xc0,0x214(%rbp)
    4304:	25 00 00 00 80       	and    $0x80000000,%eax
    4309:	80 a5 1c 02 00 00 c0 	andb   $0xc0,0x21c(%rbp)
    4310:	0d 06 08 00 01       	or     $0x1000806,%eax
    4315:	89 85 10 02 00 00    	mov    %eax,0x210(%rbp)
    431b:	8b 85 18 02 00 00    	mov    0x218(%rbp),%eax
    4321:	25 00 00 00 80       	and    $0x80000000,%eax
    4326:	0d 07 08 00 01       	or     $0x1000807,%eax
    432b:	89 85 18 02 00 00    	mov    %eax,0x218(%rbp)
    4331:	8b 85 20 02 00 00    	mov    0x220(%rbp),%eax
    4337:	80 a5 24 02 00 00 c0 	andb   $0xc0,0x224(%rbp)
    433e:	25 00 00 00 80       	and    $0x80000000,%eax
    4343:	80 a5 2c 02 00 00 c0 	andb   $0xc0,0x22c(%rbp)
    434a:	0d 00 10 00 02       	or     $0x2001000,%eax
    434f:	80 a5 34 02 00 00 c0 	andb   $0xc0,0x234(%rbp)
    4356:	89 85 20 02 00 00    	mov    %eax,0x220(%rbp)
    435c:	8b 85 28 02 00 00    	mov    0x228(%rbp),%eax
    4362:	80 a5 3c 02 00 00 c0 	andb   $0xc0,0x23c(%rbp)
    4369:	25 00 00 00 80       	and    $0x80000000,%eax
    436e:	80 a5 44 02 00 00 c0 	andb   $0xc0,0x244(%rbp)
    4375:	0d 01 10 00 02       	or     $0x2001001,%eax
    437a:	80 a5 4c 02 00 00 c0 	andb   $0xc0,0x24c(%rbp)
    4381:	89 85 28 02 00 00    	mov    %eax,0x228(%rbp)
    4387:	8b 85 30 02 00 00    	mov    0x230(%rbp),%eax
    438d:	80 a5 54 02 00 00 c0 	andb   $0xc0,0x254(%rbp)
    4394:	25 00 00 00 80       	and    $0x80000000,%eax
    4399:	80 a5 5c 02 00 00 c0 	andb   $0xc0,0x25c(%rbp)
    43a0:	0d 02 10 00 02       	or     $0x2001002,%eax
    43a5:	89 85 30 02 00 00    	mov    %eax,0x230(%rbp)
    43ab:	8b 85 38 02 00 00    	mov    0x238(%rbp),%eax
    43b1:	25 00 00 00 80       	and    $0x80000000,%eax
    43b6:	0d 03 10 00 02       	or     $0x2001003,%eax
    43bb:	89 85 38 02 00 00    	mov    %eax,0x238(%rbp)
    43c1:	8b 85 40 02 00 00    	mov    0x240(%rbp),%eax
    43c7:	25 00 00 00 80       	and    $0x80000000,%eax
    43cc:	0d 04 10 00 02       	or     $0x2001004,%eax
    43d1:	89 85 40 02 00 00    	mov    %eax,0x240(%rbp)
    43d7:	8b 85 48 02 00 00    	mov    0x248(%rbp),%eax
    43dd:	25 00 00 00 80       	and    $0x80000000,%eax
    43e2:	0d 05 10 00 02       	or     $0x2001005,%eax
    43e7:	89 85 48 02 00 00    	mov    %eax,0x248(%rbp)
    43ed:	8b 85 50 02 00 00    	mov    0x250(%rbp),%eax
    43f3:	25 00 00 00 80       	and    $0x80000000,%eax
    43f8:	0d 06 10 00 02       	or     $0x2001006,%eax
    43fd:	89 85 50 02 00 00    	mov    %eax,0x250(%rbp)
    4403:	8b 85 58 02 00 00    	mov    0x258(%rbp),%eax
    4409:	25 00 00 00 80       	and    $0x80000000,%eax
    440e:	0d 07 10 00 02       	or     $0x2001007,%eax
    4413:	89 85 58 02 00 00    	mov    %eax,0x258(%rbp)
    4419:	48 8d 85 a8 01 00 00 	lea    0x1a8(%rbp),%rax
    4420:	66 48 0f 6e e0       	movq   %rax,%xmm4
    4425:	48 8d 50 10          	lea    0x10(%rax),%rdx
    4429:	48 8d 58 08          	lea    0x8(%rax),%rbx
    442d:	66 0f 6c c4          	punpcklqdq %xmm4,%xmm0
    4431:	66 48 0f 6e ea       	movq   %rdx,%xmm5
    4436:	48 8d 48 18          	lea    0x18(%rax),%rcx
    443a:	0f 11 85 60 02 00 00 	movups %xmm0,0x260(%rbp)
    4441:	66 48 0f 6e c3       	movq   %rbx,%xmm0
    4446:	48 8d 50 20          	lea    0x20(%rax),%rdx
    444a:	48 8d 58 28          	lea    0x28(%rax),%rbx
    444e:	66 0f 6c c5          	punpcklqdq %xmm5,%xmm0
    4452:	66 48 0f 6e f2       	movq   %rdx,%xmm6
    4457:	48 8d 50 30          	lea    0x30(%rax),%rdx
    445b:	0f 11 85 70 02 00 00 	movups %xmm0,0x270(%rbp)
    4462:	66 48 0f 6e c1       	movq   %rcx,%xmm0
    4467:	66 48 0f 6e fa       	movq   %rdx,%xmm7
    446c:	48 8d 48 38          	lea    0x38(%rax),%rcx
    4470:	66 0f 6c c6          	punpcklqdq %xmm6,%xmm0
    4474:	48 8d 50 40          	lea    0x40(%rax),%rdx
    4478:	48 8d b8 88 00 00 00 	lea    0x88(%rax),%rdi
    447f:	0f 11 85 80 02 00 00 	movups %xmm0,0x280(%rbp)
    4486:	66 48 0f 6e c3       	movq   %rbx,%xmm0
    448b:	48 8d 58 48          	lea    0x48(%rax),%rbx
    448f:	66 48 0f 6e d2       	movq   %rdx,%xmm2
    4494:	66 0f 6c c7          	punpcklqdq %xmm7,%xmm0
    4498:	48 8d 50 50          	lea    0x50(%rax),%rdx
    449c:	0f 11 85 90 02 00 00 	movups %xmm0,0x290(%rbp)
    44a3:	66 48 0f 6e c1       	movq   %rcx,%xmm0
    44a8:	48 8d 48 58          	lea    0x58(%rax),%rcx
    44ac:	66 48 0f 6e da       	movq   %rdx,%xmm3
    44b1:	66 0f 6c c2          	punpcklqdq %xmm2,%xmm0
    44b5:	48 8d 50 60          	lea    0x60(%rax),%rdx
    44b9:	0f 11 85 a0 02 00 00 	movups %xmm0,0x2a0(%rbp)
    44c0:	66 48 0f 6e c3       	movq   %rbx,%xmm0
    44c5:	48 8d 58 68          	lea    0x68(%rax),%rbx
    44c9:	66 48 0f 6e e2       	movq   %rdx,%xmm4
    44ce:	66 0f 6c c3          	punpcklqdq %xmm3,%xmm0
    44d2:	48 8d 50 70          	lea    0x70(%rax),%rdx
    44d6:	0f 11 85 b0 02 00 00 	movups %xmm0,0x2b0(%rbp)
    44dd:	66 48 0f 6e c1       	movq   %rcx,%xmm0
    44e2:	48 8d 48 78          	lea    0x78(%rax),%rcx
    44e6:	66 48 0f 6e ea       	movq   %rdx,%xmm5
    44eb:	66 0f 6c c4          	punpcklqdq %xmm4,%xmm0
    44ef:	48 8d 90 80 00 00 00 	lea    0x80(%rax),%rdx
    44f6:	0f 11 85 c0 02 00 00 	movups %xmm0,0x2c0(%rbp)
    44fd:	66 48 0f 6e c3       	movq   %rbx,%xmm0
    4502:	66 48 0f 6e f2       	movq   %rdx,%xmm6
    4507:	48 8d 90 90 00 00 00 	lea    0x90(%rax),%rdx
    450e:	66 0f 6c c5          	punpcklqdq %xmm5,%xmm0
    4512:	66 48 0f 6e fa       	movq   %rdx,%xmm7
    4517:	48 8d 98 98 00 00 00 	lea    0x98(%rax),%rbx
    451e:	0f 11 85 d0 02 00 00 	movups %xmm0,0x2d0(%rbp)
    4525:	66 48 0f 6e c1       	movq   %rcx,%xmm0
    452a:	48 8d 90 a0 00 00 00 	lea    0xa0(%rax),%rdx
    4531:	66 0f 6c c6          	punpcklqdq %xmm6,%xmm0
    4535:	66 48 0f 6e d2       	movq   %rdx,%xmm2
    453a:	48 8d 90 b0 00 00 00 	lea    0xb0(%rax),%rdx
    4541:	48 05 a8 00 00 00    	add    $0xa8,%rax
    4547:	0f 11 85 e0 02 00 00 	movups %xmm0,0x2e0(%rbp)
    454e:	66 48 0f 6e c7       	movq   %rdi,%xmm0
    4553:	66 48 0f 6e da       	movq   %rdx,%xmm3
    4558:	66 0f 6c c7          	punpcklqdq %xmm7,%xmm0
    455c:	80 a5 24 03 00 00 c0 	andb   $0xc0,0x324(%rbp)
    4563:	0f 11 85 f0 02 00 00 	movups %xmm0,0x2f0(%rbp)
    456a:	66 48 0f 6e c3       	movq   %rbx,%xmm0
    456f:	66 0f 6c c2          	punpcklqdq %xmm2,%xmm0
    4573:	80 a5 2c 03 00 00 c0 	andb   $0xc0,0x32c(%rbp)
    457a:	0f 11 85 00 03 00 00 	movups %xmm0,0x300(%rbp)
    4581:	66 48 0f 6e c0       	movq   %rax,%xmm0
    4586:	8b 85 20 03 00 00    	mov    0x320(%rbp),%eax
    458c:	66 0f 6c c3          	punpcklqdq %xmm3,%xmm0
    4590:	80 a5 34 03 00 00 c0 	andb   $0xc0,0x334(%rbp)
    4597:	25 00 00 00 80       	and    $0x80000000,%eax
    459c:	80 a5 3c 03 00 00 c0 	andb   $0xc0,0x33c(%rbp)
    45a3:	0d 80 00 20 00       	or     $0x200080,%eax
    45a8:	80 a5 44 03 00 00 c0 	andb   $0xc0,0x344(%rbp)
    45af:	89 85 20 03 00 00    	mov    %eax,0x320(%rbp)
    45b5:	8b 85 28 03 00 00    	mov    0x328(%rbp),%eax
    45bb:	0f 11 85 10 03 00 00 	movups %xmm0,0x310(%rbp)
    45c2:	25 00 00 00 80       	and    $0x80000000,%eax
    45c7:	0d 81 00 20 00       	or     $0x200081,%eax
    45cc:	89 85 28 03 00 00    	mov    %eax,0x328(%rbp)
    45d2:	8b 85 30 03 00 00    	mov    0x330(%rbp),%eax
    45d8:	25 00 00 00 80       	and    $0x80000000,%eax
    45dd:	0d 82 00 20 00       	or     $0x200082,%eax
    45e2:	89 85 30 03 00 00    	mov    %eax,0x330(%rbp)
    45e8:	8b 85 38 03 00 00    	mov    0x338(%rbp),%eax
    45ee:	25 00 00 00 80       	and    $0x80000000,%eax
    45f3:	0d 83 00 20 00       	or     $0x200083,%eax
    45f8:	89 85 38 03 00 00    	mov    %eax,0x338(%rbp)
    45fe:	8b 85 40 03 00 00    	mov    0x340(%rbp),%eax
    4604:	25 00 00 00 80       	and    $0x80000000,%eax
    4609:	0d 84 00 20 00       	or     $0x200084,%eax
    460e:	89 85 40 03 00 00    	mov    %eax,0x340(%rbp)
    4614:	8b 85 48 03 00 00    	mov    0x348(%rbp),%eax
    461a:	25 00 00 00 80       	and    $0x80000000,%eax
    461f:	0d 85 00 20 00       	or     $0x200085,%eax
    4624:	89 85 48 03 00 00    	mov    %eax,0x348(%rbp)
    462a:	8b 85 50 03 00 00    	mov    0x350(%rbp),%eax
    4630:	80 a5 4c 03 00 00 c0 	andb   $0xc0,0x34c(%rbp)
    4637:	25 00 00 00 80       	and    $0x80000000,%eax
    463c:	80 a5 54 03 00 00 c0 	andb   $0xc0,0x354(%rbp)
    4643:	0d 86 00 20 00       	or     $0x200086,%eax
    4648:	80 a5 5c 03 00 00 c0 	andb   $0xc0,0x35c(%rbp)
    464f:	89 85 50 03 00 00    	mov    %eax,0x350(%rbp)
    4655:	8b 85 58 03 00 00    	mov    0x358(%rbp),%eax
    465b:	80 a5 64 03 00 00 c0 	andb   $0xc0,0x364(%rbp)
    4662:	25 00 00 00 80       	and    $0x80000000,%eax
    4667:	80 a5 6c 03 00 00 c0 	andb   $0xc0,0x36c(%rbp)
    466e:	0d 87 00 20 00       	or     $0x200087,%eax
    4673:	89 85 58 03 00 00    	mov    %eax,0x358(%rbp)
    4679:	8b 85 60 03 00 00    	mov    0x360(%rbp),%eax
    467f:	25 00 00 00 80       	and    $0x80000000,%eax
    4684:	0d 80 00 10 00       	or     $0x100080,%eax
    4689:	89 85 60 03 00 00    	mov    %eax,0x360(%rbp)
    468f:	8b 85 68 03 00 00    	mov    0x368(%rbp),%eax
    4695:	25 00 00 00 80       	and    $0x80000000,%eax
    469a:	0d 81 00 10 00       	or     $0x100081,%eax
    469f:	89 85 68 03 00 00    	mov    %eax,0x368(%rbp)
    46a5:	8b 85 70 03 00 00    	mov    0x370(%rbp),%eax
    46ab:	25 00 00 00 80       	and    $0x80000000,%eax
    46b0:	0d 82 00 10 00       	or     $0x100082,%eax
    46b5:	80 a5 74 03 00 00 c0 	andb   $0xc0,0x374(%rbp)
    46bc:	89 85 70 03 00 00    	mov    %eax,0x370(%rbp)
    46c2:	8b 85 78 03 00 00    	mov    0x378(%rbp),%eax
    46c8:	80 a5 7c 03 00 00 c0 	andb   $0xc0,0x37c(%rbp)
    46cf:	25 00 00 00 80       	and    $0x80000000,%eax
    46d4:	80 a5 84 03 00 00 c0 	andb   $0xc0,0x384(%rbp)
    46db:	0d 83 00 10 00       	or     $0x100083,%eax
    46e0:	89 85 78 03 00 00    	mov    %eax,0x378(%rbp)
    46e6:	8b 85 80 03 00 00    	mov    0x380(%rbp),%eax
    46ec:	25 00 00 00 80       	and    $0x80000000,%eax
    46f1:	0d 84 00 10 00       	or     $0x100084,%eax
    46f6:	89 85 80 03 00 00    	mov    %eax,0x380(%rbp)
    46fc:	8b 85 88 03 00 00    	mov    0x388(%rbp),%eax
    4702:	25 00 00 00 80       	and    $0x80000000,%eax
    4707:	0d 85 00 10 00       	or     $0x100085,%eax
    470c:	89 85 88 03 00 00    	mov    %eax,0x388(%rbp)
    4712:	80 a5 8c 03 00 00 c0 	andb   $0xc0,0x38c(%rbp)
    4719:	8b 85 90 03 00 00    	mov    0x390(%rbp),%eax
    471f:	80 a5 94 03 00 00 c0 	andb   $0xc0,0x394(%rbp)
    4726:	25 00 00 00 80       	and    $0x80000000,%eax
    472b:	80 a5 9c 03 00 00 c0 	andb   $0xc0,0x39c(%rbp)
    4732:	0d 86 00 10 00       	or     $0x100086,%eax
    4737:	80 a5 a4 03 00 00 c0 	andb   $0xc0,0x3a4(%rbp)
    473e:	89 85 90 03 00 00    	mov    %eax,0x390(%rbp)
    4744:	8b 85 98 03 00 00    	mov    0x398(%rbp),%eax
    474a:	80 a5 ac 03 00 00 c0 	andb   $0xc0,0x3ac(%rbp)
    4751:	25 00 00 00 80       	and    $0x80000000,%eax
    4756:	80 a5 b4 03 00 00 c0 	andb   $0xc0,0x3b4(%rbp)
    475d:	0d 87 00 10 00       	or     $0x100087,%eax
    4762:	80 a5 bc 03 00 00 c0 	andb   $0xc0,0x3bc(%rbp)
    4769:	89 85 98 03 00 00    	mov    %eax,0x398(%rbp)
    476f:	8b 85 a0 03 00 00    	mov    0x3a0(%rbp),%eax
    4775:	80 a5 c4 03 00 00 c0 	andb   $0xc0,0x3c4(%rbp)
    477c:	25 00 00 00 80       	and    $0x80000000,%eax
    4781:	0d 80 00 08 00       	or     $0x80080,%eax
    4786:	89 85 a0 03 00 00    	mov    %eax,0x3a0(%rbp)
    478c:	8b 85 a8 03 00 00    	mov    0x3a8(%rbp),%eax
    4792:	25 00 00 00 80       	and    $0x80000000,%eax
    4797:	0d 81 00 08 00       	or     $0x80081,%eax
    479c:	89 85 a8 03 00 00    	mov    %eax,0x3a8(%rbp)
    47a2:	8b 85 b0 03 00 00    	mov    0x3b0(%rbp),%eax
    47a8:	25 00 00 00 80       	and    $0x80000000,%eax
    47ad:	0d 82 00 08 00       	or     $0x80082,%eax
    47b2:	89 85 b0 03 00 00    	mov    %eax,0x3b0(%rbp)
    47b8:	8b 85 b8 03 00 00    	mov    0x3b8(%rbp),%eax
    47be:	25 00 00 00 80       	and    $0x80000000,%eax
    47c3:	0d 83 00 08 00       	or     $0x80083,%eax
    47c8:	89 85 b8 03 00 00    	mov    %eax,0x3b8(%rbp)
    47ce:	8b 85 c0 03 00 00    	mov    0x3c0(%rbp),%eax
    47d4:	25 00 00 00 80       	and    $0x80000000,%eax
    47d9:	0d 84 00 08 00       	or     $0x80084,%eax
    47de:	89 85 c0 03 00 00    	mov    %eax,0x3c0(%rbp)
    47e4:	8b 85 c8 03 00 00    	mov    0x3c8(%rbp),%eax
    47ea:	25 00 00 00 80       	and    $0x80000000,%eax
    47ef:	0d 85 00 08 00       	or     $0x80085,%eax
    47f4:	89 85 c8 03 00 00    	mov    %eax,0x3c8(%rbp)
    47fa:	80 a5 cc 03 00 00 c0 	andb   $0xc0,0x3cc(%rbp)
    4801:	8b 85 d0 03 00 00    	mov    0x3d0(%rbp),%eax
    4807:	80 a5 d4 03 00 00 c0 	andb   $0xc0,0x3d4(%rbp)
    480e:	25 00 00 00 80       	and    $0x80000000,%eax
    4813:	80 a5 dc 03 00 00 c0 	andb   $0xc0,0x3dc(%rbp)
    481a:	0d 86 00 08 00       	or     $0x80086,%eax
    481f:	c7 85 e0 03 00 00 00 	movl   $0x0,0x3e0(%rbp)
    4826:	00 00 00 
    4829:	89 85 d0 03 00 00    	mov    %eax,0x3d0(%rbp)
    482f:	8b 85 d8 03 00 00    	mov    0x3d8(%rbp),%eax
    4835:	c6 85 e4 03 00 00 00 	movb   $0x0,0x3e4(%rbp)
    483c:	25 00 00 00 80       	and    $0x80000000,%eax
    4841:	c7 85 e8 03 00 00 08 	movl   $0x8,0x3e8(%rbp)
    4848:	00 00 00 
    484b:	0d 87 00 08 00       	or     $0x80087,%eax
    4850:	c6 85 ec 03 00 00 00 	movb   $0x0,0x3ec(%rbp)
    4857:	89 85 d8 03 00 00    	mov    %eax,0x3d8(%rbp)
    485d:	c7 85 f0 03 00 00 10 	movl   $0x10,0x3f0(%rbp)
    4864:	00 00 00 
    4867:	c6 85 f4 03 00 00 00 	movb   $0x0,0x3f4(%rbp)
    486e:	c7 85 f8 03 00 00 20 	movl   $0x20,0x3f8(%rbp)
    4875:	00 00 00 
    4878:	c6 85 fc 03 00 00 00 	movb   $0x0,0x3fc(%rbp)
    487f:	c7 85 00 04 00 00 40 	movl   $0x40,0x400(%rbp)
    4886:	00 00 00 
    4889:	c6 85 04 04 00 00 00 	movb   $0x0,0x404(%rbp)
    4890:	c7 85 08 04 00 00 80 	movl   $0x80,0x408(%rbp)
    4897:	00 00 00 
    489a:	c6 85 0c 04 00 00 00 	movb   $0x0,0x40c(%rbp)
    48a1:	c7 85 10 04 00 00 00 	movl   $0x100,0x410(%rbp)
    48a8:	01 00 00 
    48ab:	c6 85 14 04 00 00 00 	movb   $0x0,0x414(%rbp)
    48b2:	c7 85 18 04 00 00 00 	movl   $0x200,0x418(%rbp)
    48b9:	02 00 00 
    48bc:	c6 85 1c 04 00 00 00 	movb   $0x0,0x41c(%rbp)
    48c3:	c7 85 20 04 00 00 00 	movl   $0x0,0x420(%rbp)
    48ca:	00 00 00 
    48cd:	c6 85 24 04 00 00 01 	movb   $0x1,0x424(%rbp)
    48d4:	c7 85 28 04 00 00 80 	movl   $0x80,0x428(%rbp)
    48db:	00 00 00 
    48de:	c6 85 2c 04 00 00 01 	movb   $0x1,0x42c(%rbp)
    48e5:	c7 85 30 04 00 00 00 	movl   $0x100,0x430(%rbp)
    48ec:	01 00 00 
    48ef:	c6 85 34 04 00 00 01 	movb   $0x1,0x434(%rbp)
    48f6:	c7 85 38 04 00 00 00 	movl   $0x200,0x438(%rbp)
    48fd:	02 00 00 
    4900:	c6 85 3c 04 00 00 01 	movb   $0x1,0x43c(%rbp)
    4907:	8b 85 40 04 00 00    	mov    0x440(%rbp),%eax
    490d:	80 a5 44 04 00 00 c0 	andb   $0xc0,0x444(%rbp)
    4914:	25 00 00 00 80       	and    $0x80000000,%eax
    4919:	80 a5 4c 04 00 00 c0 	andb   $0xc0,0x44c(%rbp)
    4920:	0d 00 02 20 00       	or     $0x200200,%eax
    4925:	80 a5 54 04 00 00 c0 	andb   $0xc0,0x454(%rbp)
    492c:	89 85 40 04 00 00    	mov    %eax,0x440(%rbp)
    4932:	8b 85 48 04 00 00    	mov    0x448(%rbp),%eax
    4938:	80 a5 5c 04 00 00 c0 	andb   $0xc0,0x45c(%rbp)
    493f:	25 00 00 00 80       	and    $0x80000000,%eax
    4944:	80 a5 64 04 00 00 c0 	andb   $0xc0,0x464(%rbp)
    494b:	0d 01 02 20 00       	or     $0x200201,%eax
    4950:	80 a5 6c 04 00 00 c0 	andb   $0xc0,0x46c(%rbp)
    4957:	89 85 48 04 00 00    	mov    %eax,0x448(%rbp)
    495d:	8b 85 50 04 00 00    	mov    0x450(%rbp),%eax
    4963:	80 a5 74 04 00 00 c0 	andb   $0xc0,0x474(%rbp)
    496a:	25 00 00 00 80       	and    $0x80000000,%eax
    496f:	0d 02 02 20 00       	or     $0x200202,%eax
    4974:	89 85 50 04 00 00    	mov    %eax,0x450(%rbp)
    497a:	8b 85 58 04 00 00    	mov    0x458(%rbp),%eax
    4980:	25 00 00 00 80       	and    $0x80000000,%eax
    4985:	0d 03 02 20 00       	or     $0x200203,%eax
    498a:	89 85 58 04 00 00    	mov    %eax,0x458(%rbp)
    4990:	8b 85 60 04 00 00    	mov    0x460(%rbp),%eax
    4996:	25 00 00 00 80       	and    $0x80000000,%eax
    499b:	0d 04 02 20 00       	or     $0x200204,%eax
    49a0:	89 85 60 04 00 00    	mov    %eax,0x460(%rbp)
    49a6:	8b 85 68 04 00 00    	mov    0x468(%rbp),%eax
    49ac:	25 00 00 00 80       	and    $0x80000000,%eax
    49b1:	0d 05 02 20 00       	or     $0x200205,%eax
    49b6:	89 85 68 04 00 00    	mov    %eax,0x468(%rbp)
    49bc:	8b 85 70 04 00 00    	mov    0x470(%rbp),%eax
    49c2:	25 00 00 00 80       	and    $0x80000000,%eax
    49c7:	0d 06 02 20 00       	or     $0x200206,%eax
    49cc:	89 85 70 04 00 00    	mov    %eax,0x470(%rbp)
    49d2:	8b 85 78 04 00 00    	mov    0x478(%rbp),%eax
    49d8:	25 00 00 00 80       	and    $0x80000000,%eax
    49dd:	0d 07 02 20 00       	or     $0x200207,%eax
    49e2:	80 a5 7c 04 00 00 c0 	andb   $0xc0,0x47c(%rbp)
    49e9:	89 85 78 04 00 00    	mov    %eax,0x478(%rbp)
    49ef:	8b 85 80 04 00 00    	mov    0x480(%rbp),%eax
    49f5:	80 a5 84 04 00 00 c0 	andb   $0xc0,0x484(%rbp)
    49fc:	25 00 00 00 80       	and    $0x80000000,%eax
    4a01:	80 a5 8c 04 00 00 c0 	andb   $0xc0,0x48c(%rbp)
    4a08:	0d 00 20 40 00       	or     $0x402000,%eax
    4a0d:	80 a5 94 04 00 00 c0 	andb   $0xc0,0x494(%rbp)
    4a14:	89 85 80 04 00 00    	mov    %eax,0x480(%rbp)
    4a1a:	8b 85 88 04 00 00    	mov    0x488(%rbp),%eax
    4a20:	80 a5 9c 04 00 00 c0 	andb   $0xc0,0x49c(%rbp)
    4a27:	25 00 00 00 80       	and    $0x80000000,%eax
    4a2c:	80 a5 a4 04 00 00 c0 	andb   $0xc0,0x4a4(%rbp)
    4a33:	0d 01 20 40 00       	or     $0x402001,%eax
    4a38:	80 a5 ac 04 00 00 c0 	andb   $0xc0,0x4ac(%rbp)
    4a3f:	89 85 88 04 00 00    	mov    %eax,0x488(%rbp)
    4a45:	8b 85 90 04 00 00    	mov    0x490(%rbp),%eax
    4a4b:	80 a5 b4 04 00 00 c0 	andb   $0xc0,0x4b4(%rbp)
    4a52:	25 00 00 00 80       	and    $0x80000000,%eax
    4a57:	80 a5 bc 04 00 00 c0 	andb   $0xc0,0x4bc(%rbp)
    4a5e:	0d 02 20 40 00       	or     $0x402002,%eax
    4a63:	89 85 90 04 00 00    	mov    %eax,0x490(%rbp)
    4a69:	8b 85 98 04 00 00    	mov    0x498(%rbp),%eax
    4a6f:	25 00 00 00 80       	and    $0x80000000,%eax
    4a74:	0d 03 20 40 00       	or     $0x402003,%eax
    4a79:	89 85 98 04 00 00    	mov    %eax,0x498(%rbp)
    4a7f:	8b 85 a0 04 00 00    	mov    0x4a0(%rbp),%eax
    4a85:	25 00 00 00 80       	and    $0x80000000,%eax
    4a8a:	0d 04 20 40 00       	or     $0x402004,%eax
    4a8f:	89 85 a0 04 00 00    	mov    %eax,0x4a0(%rbp)
    4a95:	8b 85 a8 04 00 00    	mov    0x4a8(%rbp),%eax
    4a9b:	25 00 00 00 80       	and    $0x80000000,%eax
    4aa0:	0d 05 20 40 00       	or     $0x402005,%eax
    4aa5:	89 85 a8 04 00 00    	mov    %eax,0x4a8(%rbp)
    4aab:	8b 85 b0 04 00 00    	mov    0x4b0(%rbp),%eax
    4ab1:	25 00 00 00 80       	and    $0x80000000,%eax
    4ab6:	0d 06 20 40 00       	or     $0x402006,%eax
    4abb:	89 85 b0 04 00 00    	mov    %eax,0x4b0(%rbp)
    4ac1:	8b 85 b8 04 00 00    	mov    0x4b8(%rbp),%eax
    4ac7:	25 00 00 00 80       	and    $0x80000000,%eax
    4acc:	0d 07 20 40 00       	or     $0x402007,%eax
    4ad1:	89 85 b8 04 00 00    	mov    %eax,0x4b8(%rbp)
    4ad7:	8b 85 c0 04 00 00    	mov    0x4c0(%rbp),%eax
    4add:	66 0f 6f 05 1b 0d 01 	movdqa 0x10d1b(%rip),%xmm0        # 15800 <_ZZN5Xbyak13CodeGenerator3nopEmbE6nopTbl+0x60>
    4ae4:	00 
    4ae5:	25 00 00 00 80       	and    $0x80000000,%eax
    4aea:	0d 00 40 80 00       	or     $0x804000,%eax
    4aef:	89 85 c0 04 00 00    	mov    %eax,0x4c0(%rbp)
    4af5:	48 8d 05 44 47 01 00 	lea    0x14744(%rip),%rax        # 19240 <s_mcl>
    4afc:	8b 90 c8 04 00 00    	mov    0x4c8(%rax),%edx
    4b02:	80 a0 c4 04 00 00 c0 	andb   $0xc0,0x4c4(%rax)
    4b09:	48 89 c6             	mov    %rax,%rsi
    4b0c:	80 a0 cc 04 00 00 c0 	andb   $0xc0,0x4cc(%rax)
    4b13:	48 8d 8e 58 06 00 00 	lea    0x658(%rsi),%rcx
    4b1a:	48 8d be 68 06 00 00 	lea    0x668(%rsi),%rdi
    4b21:	81 e2 00 00 00 80    	and    $0x80000000,%edx
    4b27:	0f 11 80 e0 04 00 00 	movups %xmm0,0x4e0(%rax)
    4b2e:	66 48 0f 6e c1       	movq   %rcx,%xmm0
    4b33:	48 8d 9e 78 06 00 00 	lea    0x678(%rsi),%rbx
    4b3a:	81 ca 01 40 80 00    	or     $0x804001,%edx
    4b40:	48 8d 8e 88 06 00 00 	lea    0x688(%rsi),%rcx
    4b47:	c7 80 f0 04 00 00 04 	movl   $0x4,0x4f0(%rax)
    4b4e:	00 00 00 
    4b51:	89 90 c8 04 00 00    	mov    %edx,0x4c8(%rax)
    4b57:	8b 90 d0 04 00 00    	mov    0x4d0(%rax),%edx
    4b5d:	81 e2 00 00 00 80    	and    $0x80000000,%edx
    4b63:	81 ca 02 40 80 00    	or     $0x804002,%edx
    4b69:	80 a0 d4 04 00 00 c0 	andb   $0xc0,0x4d4(%rax)
    4b70:	89 90 d0 04 00 00    	mov    %edx,0x4d0(%rax)
    4b76:	8b 90 d8 04 00 00    	mov    0x4d8(%rax),%edx
    4b7c:	80 a0 dc 04 00 00 c0 	andb   $0xc0,0x4dc(%rax)
    4b83:	81 e2 00 00 00 80    	and    $0x80000000,%edx
    4b89:	80 a0 fc 04 00 00 c0 	andb   $0xc0,0x4fc(%rax)
    4b90:	81 ca 03 40 80 00    	or     $0x804003,%edx
    4b96:	80 a0 04 05 00 00 c0 	andb   $0xc0,0x504(%rax)
    4b9d:	89 90 d8 04 00 00    	mov    %edx,0x4d8(%rax)
    4ba3:	8b 90 f8 04 00 00    	mov    0x4f8(%rax),%edx
    4ba9:	80 a0 0c 05 00 00 c0 	andb   $0xc0,0x50c(%rax)
    4bb0:	81 e2 00 00 00 80    	and    $0x80000000,%edx
    4bb6:	81 ca 80 00 40 00    	or     $0x400080,%edx
    4bbc:	89 90 f8 04 00 00    	mov    %edx,0x4f8(%rax)
    4bc2:	8b 90 00 05 00 00    	mov    0x500(%rax),%edx
    4bc8:	81 e2 00 00 00 80    	and    $0x80000000,%edx
    4bce:	81 ca 81 00 40 00    	or     $0x400081,%edx
    4bd4:	89 90 00 05 00 00    	mov    %edx,0x500(%rax)
    4bda:	8b 90 08 05 00 00    	mov    0x508(%rax),%edx
    4be0:	81 e2 00 00 00 80    	and    $0x80000000,%edx
    4be6:	81 ca 82 00 40 00    	or     $0x400082,%edx
    4bec:	89 90 08 05 00 00    	mov    %edx,0x508(%rax)
    4bf2:	8b 90 10 05 00 00    	mov    0x510(%rax),%edx
    4bf8:	80 a0 14 05 00 00 c0 	andb   $0xc0,0x514(%rax)
    4bff:	81 e2 00 00 00 80    	and    $0x80000000,%edx
    4c05:	80 a0 1c 05 00 00 c0 	andb   $0xc0,0x51c(%rax)
    4c0c:	81 ca 83 00 40 00    	or     $0x400083,%edx
    4c12:	80 a0 24 05 00 00 c0 	andb   $0xc0,0x524(%rax)
    4c19:	89 90 10 05 00 00    	mov    %edx,0x510(%rax)
    4c1f:	8b 90 18 05 00 00    	mov    0x518(%rax),%edx
    4c25:	80 a0 2c 05 00 00 c0 	andb   $0xc0,0x52c(%rax)
    4c2c:	81 e2 00 00 00 80    	and    $0x80000000,%edx
    4c32:	80 a0 34 05 00 00 c0 	andb   $0xc0,0x534(%rax)
    4c39:	81 ca 84 00 40 00    	or     $0x400084,%edx
    4c3f:	80 a0 3c 05 00 00 c0 	andb   $0xc0,0x53c(%rax)
    4c46:	89 90 18 05 00 00    	mov    %edx,0x518(%rax)
    4c4c:	8b 90 20 05 00 00    	mov    0x520(%rax),%edx
    4c52:	81 e2 00 00 00 80    	and    $0x80000000,%edx
    4c58:	81 ca 85 00 40 00    	or     $0x400085,%edx
    4c5e:	89 90 20 05 00 00    	mov    %edx,0x520(%rax)
    4c64:	8b 90 28 05 00 00    	mov    0x528(%rax),%edx
    4c6a:	81 e2 00 00 00 80    	and    $0x80000000,%edx
    4c70:	81 ca 86 00 40 00    	or     $0x400086,%edx
    4c76:	89 90 28 05 00 00    	mov    %edx,0x528(%rax)
    4c7c:	8b 90 30 05 00 00    	mov    0x530(%rax),%edx
    4c82:	81 e2 00 00 00 80    	and    $0x80000000,%edx
    4c88:	81 ca 87 00 40 00    	or     $0x400087,%edx
    4c8e:	89 90 30 05 00 00    	mov    %edx,0x530(%rax)
    4c94:	8b 90 38 05 00 00    	mov    0x538(%rax),%edx
    4c9a:	81 e2 00 00 00 80    	and    $0x80000000,%edx
    4ca0:	81 ca 88 00 40 00    	or     $0x400088,%edx
    4ca6:	89 90 38 05 00 00    	mov    %edx,0x538(%rax)
    4cac:	8b 90 40 05 00 00    	mov    0x540(%rax),%edx
    4cb2:	81 e2 00 00 00 80    	and    $0x80000000,%edx
    4cb8:	80 a0 44 05 00 00 c0 	andb   $0xc0,0x544(%rax)
    4cbf:	81 ca 89 00 40 00    	or     $0x400089,%edx
    4cc5:	80 a0 4c 05 00 00 c0 	andb   $0xc0,0x54c(%rax)
    4ccc:	89 90 40 05 00 00    	mov    %edx,0x540(%rax)
    4cd2:	8b 90 48 05 00 00    	mov    0x548(%rax),%edx
    4cd8:	81 e2 00 00 00 80    	and    $0x80000000,%edx
    4cde:	81 ca 8a 00 40 00    	or     $0x40008a,%edx
    4ce4:	89 90 48 05 00 00    	mov    %edx,0x548(%rax)
    4cea:	8b 90 50 05 00 00    	mov    0x550(%rax),%edx
    4cf0:	80 a0 54 05 00 00 c0 	andb   $0xc0,0x554(%rax)
    4cf7:	81 e2 00 00 00 80    	and    $0x80000000,%edx
    4cfd:	80 a0 5c 05 00 00 c0 	andb   $0xc0,0x55c(%rax)
    4d04:	81 ca 8b 00 40 00    	or     $0x40008b,%edx
    4d0a:	80 a0 64 05 00 00 c0 	andb   $0xc0,0x564(%rax)
    4d11:	89 90 50 05 00 00    	mov    %edx,0x550(%rax)
    4d17:	8b 90 58 05 00 00    	mov    0x558(%rax),%edx
    4d1d:	80 a0 6c 05 00 00 c0 	andb   $0xc0,0x56c(%rax)
    4d24:	81 e2 00 00 00 80    	and    $0x80000000,%edx
    4d2a:	80 a0 74 05 00 00 c0 	andb   $0xc0,0x574(%rax)
    4d31:	81 ca 8c 00 40 00    	or     $0x40008c,%edx
    4d37:	80 a0 7c 05 00 00 c0 	andb   $0xc0,0x57c(%rax)
    4d3e:	89 90 58 05 00 00    	mov    %edx,0x558(%rax)
    4d44:	8b 90 60 05 00 00    	mov    0x560(%rax),%edx
    4d4a:	80 a0 84 05 00 00 c0 	andb   $0xc0,0x584(%rax)
    4d51:	81 e2 00 00 00 80    	and    $0x80000000,%edx
    4d57:	80 a0 8c 05 00 00 c0 	andb   $0xc0,0x58c(%rax)
    4d5e:	81 ca 8d 00 40 00    	or     $0x40008d,%edx
    4d64:	89 90 60 05 00 00    	mov    %edx,0x560(%rax)
    4d6a:	8b 90 68 05 00 00    	mov    0x568(%rax),%edx
    4d70:	81 e2 00 00 00 80    	and    $0x80000000,%edx
    4d76:	81 ca 8e 00 40 00    	or     $0x40008e,%edx
    4d7c:	89 90 68 05 00 00    	mov    %edx,0x568(%rax)
    4d82:	8b 90 70 05 00 00    	mov    0x570(%rax),%edx
    4d88:	81 e2 00 00 00 80    	and    $0x80000000,%edx
    4d8e:	81 ca 8f 00 40 00    	or     $0x40008f,%edx
    4d94:	89 90 70 05 00 00    	mov    %edx,0x570(%rax)
    4d9a:	8b 90 78 05 00 00    	mov    0x578(%rax),%edx
    4da0:	81 e2 00 00 00 80    	and    $0x80000000,%edx
    4da6:	81 ca 88 00 20 00    	or     $0x200088,%edx
    4dac:	89 90 78 05 00 00    	mov    %edx,0x578(%rax)
    4db2:	8b 90 80 05 00 00    	mov    0x580(%rax),%edx
    4db8:	81 e2 00 00 00 80    	and    $0x80000000,%edx
    4dbe:	81 ca 89 00 20 00    	or     $0x200089,%edx
    4dc4:	89 90 80 05 00 00    	mov    %edx,0x580(%rax)
    4dca:	8b 90 88 05 00 00    	mov    0x588(%rax),%edx
    4dd0:	81 e2 00 00 00 80    	and    $0x80000000,%edx
    4dd6:	81 ca 8a 00 20 00    	or     $0x20008a,%edx
    4ddc:	89 90 88 05 00 00    	mov    %edx,0x588(%rax)
    4de2:	8b 90 90 05 00 00    	mov    0x590(%rax),%edx
    4de8:	81 e2 00 00 00 80    	and    $0x80000000,%edx
    4dee:	81 ca 8b 00 20 00    	or     $0x20008b,%edx
    4df4:	80 a0 94 05 00 00 c0 	andb   $0xc0,0x594(%rax)
    4dfb:	89 90 90 05 00 00    	mov    %edx,0x590(%rax)
    4e01:	8b 90 98 05 00 00    	mov    0x598(%rax),%edx
    4e07:	80 a0 9c 05 00 00 c0 	andb   $0xc0,0x59c(%rax)
    4e0e:	81 e2 00 00 00 80    	and    $0x80000000,%edx
    4e14:	80 a0 a4 05 00 00 c0 	andb   $0xc0,0x5a4(%rax)
    4e1b:	81 ca 8c 00 20 00    	or     $0x20008c,%edx
    4e21:	80 a0 ac 05 00 00 c0 	andb   $0xc0,0x5ac(%rax)
    4e28:	89 90 98 05 00 00    	mov    %edx,0x598(%rax)
    4e2e:	8b 90 a0 05 00 00    	mov    0x5a0(%rax),%edx
    4e34:	80 a0 b4 05 00 00 c0 	andb   $0xc0,0x5b4(%rax)
    4e3b:	81 e2 00 00 00 80    	and    $0x80000000,%edx
    4e41:	80 a0 bc 05 00 00 c0 	andb   $0xc0,0x5bc(%rax)
    4e48:	81 ca 8d 00 20 00    	or     $0x20008d,%edx
    4e4e:	80 a0 c4 05 00 00 c0 	andb   $0xc0,0x5c4(%rax)
    4e55:	89 90 a0 05 00 00    	mov    %edx,0x5a0(%rax)
    4e5b:	8b 90 a8 05 00 00    	mov    0x5a8(%rax),%edx
    4e61:	80 a0 cc 05 00 00 c0 	andb   $0xc0,0x5cc(%rax)
    4e68:	81 e2 00 00 00 80    	and    $0x80000000,%edx
    4e6e:	81 ca 8e 00 20 00    	or     $0x20008e,%edx
    4e74:	89 90 a8 05 00 00    	mov    %edx,0x5a8(%rax)
    4e7a:	8b 90 b0 05 00 00    	mov    0x5b0(%rax),%edx
    4e80:	81 e2 00 00 00 80    	and    $0x80000000,%edx
    4e86:	81 ca 8f 00 20 00    	or     $0x20008f,%edx
    4e8c:	89 90 b0 05 00 00    	mov    %edx,0x5b0(%rax)
    4e92:	8b 90 b8 05 00 00    	mov    0x5b8(%rax),%edx
    4e98:	81 e2 00 00 00 80    	and    $0x80000000,%edx
    4e9e:	81 ca 88 00 10 00    	or     $0x100088,%edx
    4ea4:	89 90 b8 05 00 00    	mov    %edx,0x5b8(%rax)
    4eaa:	8b 90 c0 05 00 00    	mov    0x5c0(%rax),%edx
    4eb0:	81 e2 00 00 00 80    	and    $0x80000000,%edx
    4eb6:	81 ca 89 00 10 00    	or     $0x100089,%edx
    4ebc:	89 90 c0 05 00 00    	mov    %edx,0x5c0(%rax)
    4ec2:	8b 90 c8 05 00 00    	mov    0x5c8(%rax),%edx
    4ec8:	81 e2 00 00 00 80    	and    $0x80000000,%edx
    4ece:	81 ca 8a 00 10 00    	or     $0x10008a,%edx
    4ed4:	89 90 c8 05 00 00    	mov    %edx,0x5c8(%rax)
    4eda:	8b 90 d0 05 00 00    	mov    0x5d0(%rax),%edx
    4ee0:	80 a0 d4 05 00 00 c0 	andb   $0xc0,0x5d4(%rax)
    4ee7:	81 e2 00 00 00 80    	and    $0x80000000,%edx
    4eed:	80 a0 dc 05 00 00 c0 	andb   $0xc0,0x5dc(%rax)
    4ef4:	81 ca 8b 00 10 00    	or     $0x10008b,%edx
    4efa:	80 a0 e4 05 00 00 c0 	andb   $0xc0,0x5e4(%rax)
    4f01:	89 90 d0 05 00 00    	mov    %edx,0x5d0(%rax)
    4f07:	8b 90 d8 05 00 00    	mov    0x5d8(%rax),%edx
    4f0d:	81 e2 00 00 00 80    	and    $0x80000000,%edx
    4f13:	81 ca 8c 00 10 00    	or     $0x10008c,%edx
    4f19:	89 90 d8 05 00 00    	mov    %edx,0x5d8(%rax)
    4f1f:	8b 90 e0 05 00 00    	mov    0x5e0(%rax),%edx
    4f25:	81 e2 00 00 00 80    	and    $0x80000000,%edx
    4f2b:	81 ca 8d 00 10 00    	or     $0x10008d,%edx
    4f31:	89 90 e0 05 00 00    	mov    %edx,0x5e0(%rax)
    4f37:	8b 90 e8 05 00 00    	mov    0x5e8(%rax),%edx
    4f3d:	81 e2 00 00 00 80    	and    $0x80000000,%edx
    4f43:	81 ca 8e 00 10 00    	or     $0x10008e,%edx
    4f49:	80 a0 ec 05 00 00 c0 	andb   $0xc0,0x5ec(%rax)
    4f50:	89 90 e8 05 00 00    	mov    %edx,0x5e8(%rax)
    4f56:	8b 90 f0 05 00 00    	mov    0x5f0(%rax),%edx
    4f5c:	80 a0 f4 05 00 00 c0 	andb   $0xc0,0x5f4(%rax)
    4f63:	81 e2 00 00 00 80    	and    $0x80000000,%edx
    4f69:	80 a0 fc 05 00 00 c0 	andb   $0xc0,0x5fc(%rax)
    4f70:	81 ca 8f 00 10 00    	or     $0x10008f,%edx
    4f76:	80 a0 04 06 00 00 c0 	andb   $0xc0,0x604(%rax)
    4f7d:	89 90 f0 05 00 00    	mov    %edx,0x5f0(%rax)
    4f83:	8b 90 f8 05 00 00    	mov    0x5f8(%rax),%edx
    4f89:	80 a0 0c 06 00 00 c0 	andb   $0xc0,0x60c(%rax)
    4f90:	81 e2 00 00 00 80    	and    $0x80000000,%edx
    4f96:	81 ca 88 00 08 00    	or     $0x80088,%edx
    4f9c:	89 90 f8 05 00 00    	mov    %edx,0x5f8(%rax)
    4fa2:	8b 90 00 06 00 00    	mov    0x600(%rax),%edx
    4fa8:	81 e2 00 00 00 80    	and    $0x80000000,%edx
    4fae:	81 ca 89 00 08 00    	or     $0x80089,%edx
    4fb4:	89 90 00 06 00 00    	mov    %edx,0x600(%rax)
    4fba:	8b 90 08 06 00 00    	mov    0x608(%rax),%edx
    4fc0:	81 e2 00 00 00 80    	and    $0x80000000,%edx
    4fc6:	81 ca 8a 00 08 00    	or     $0x8008a,%edx
    4fcc:	89 90 08 06 00 00    	mov    %edx,0x608(%rax)
    4fd2:	8b 90 10 06 00 00    	mov    0x610(%rax),%edx
    4fd8:	80 a0 14 06 00 00 c0 	andb   $0xc0,0x614(%rax)
    4fdf:	81 e2 00 00 00 80    	and    $0x80000000,%edx
    4fe5:	80 a0 1c 06 00 00 c0 	andb   $0xc0,0x61c(%rax)
    4fec:	81 ca 8b 00 08 00    	or     $0x8008b,%edx
    4ff2:	80 a0 24 06 00 00 c0 	andb   $0xc0,0x624(%rax)
    4ff9:	89 90 10 06 00 00    	mov    %edx,0x610(%rax)
    4fff:	8b 90 18 06 00 00    	mov    0x618(%rax),%edx
    5005:	80 a0 2c 06 00 00 c0 	andb   $0xc0,0x62c(%rax)
    500c:	81 e2 00 00 00 80    	and    $0x80000000,%edx
    5012:	80 a0 34 06 00 00 c0 	andb   $0xc0,0x634(%rax)
    5019:	81 ca 8c 00 08 00    	or     $0x8008c,%edx
    501f:	80 a0 3c 06 00 00 c0 	andb   $0xc0,0x63c(%rax)
    5026:	89 90 18 06 00 00    	mov    %edx,0x618(%rax)
    502c:	8b 90 20 06 00 00    	mov    0x620(%rax),%edx
    5032:	81 e2 00 00 00 80    	and    $0x80000000,%edx
    5038:	81 ca 8d 00 08 00    	or     $0x8008d,%edx
    503e:	89 90 20 06 00 00    	mov    %edx,0x620(%rax)
    5044:	8b 90 28 06 00 00    	mov    0x628(%rax),%edx
    504a:	81 e2 00 00 00 80    	and    $0x80000000,%edx
    5050:	81 ca 8e 00 08 00    	or     $0x8008e,%edx
    5056:	89 90 28 06 00 00    	mov    %edx,0x628(%rax)
    505c:	8b 90 30 06 00 00    	mov    0x630(%rax),%edx
    5062:	81 e2 00 00 00 80    	and    $0x80000000,%edx
    5068:	81 ca 8f 00 08 00    	or     $0x8008f,%edx
    506e:	89 90 30 06 00 00    	mov    %edx,0x630(%rax)
    5074:	8b 90 38 06 00 00    	mov    0x638(%rax),%edx
    507a:	81 e2 00 00 00 80    	and    $0x80000000,%edx
    5080:	81 ca a4 00 08 00    	or     $0x800a4,%edx
    5086:	89 90 38 06 00 00    	mov    %edx,0x638(%rax)
    508c:	8b 90 40 06 00 00    	mov    0x640(%rax),%edx
    5092:	81 e2 00 00 00 80    	and    $0x80000000,%edx
    5098:	80 a0 44 06 00 00 c0 	andb   $0xc0,0x644(%rax)
    509f:	81 ca a5 00 08 00    	or     $0x800a5,%edx
    50a5:	80 a0 4c 06 00 00 c0 	andb   $0xc0,0x64c(%rax)
    50ac:	89 90 40 06 00 00    	mov    %edx,0x640(%rax)
    50b2:	8b 90 48 06 00 00    	mov    0x648(%rax),%edx
    50b8:	81 e2 00 00 00 80    	and    $0x80000000,%edx
    50be:	81 ca a6 00 08 00    	or     $0x800a6,%edx
    50c4:	89 90 48 06 00 00    	mov    %edx,0x648(%rax)
    50ca:	8b 90 50 06 00 00    	mov    0x650(%rax),%edx
    50d0:	80 a0 54 06 00 00 c0 	andb   $0xc0,0x654(%rax)
    50d7:	81 e2 00 00 00 80    	and    $0x80000000,%edx
    50dd:	80 a0 5c 06 00 00 c0 	andb   $0xc0,0x65c(%rax)
    50e4:	81 ca a7 00 08 00    	or     $0x800a7,%edx
    50ea:	80 a0 64 06 00 00 c0 	andb   $0xc0,0x664(%rax)
    50f1:	89 90 50 06 00 00    	mov    %edx,0x650(%rax)
    50f7:	8b 90 58 06 00 00    	mov    0x658(%rax),%edx
    50fd:	80 a0 6c 06 00 00 c0 	andb   $0xc0,0x66c(%rax)
    5104:	81 e2 00 00 00 80    	and    $0x80000000,%edx
    510a:	80 a0 74 06 00 00 c0 	andb   $0xc0,0x674(%rax)
    5111:	81 ca 08 04 80 00    	or     $0x800408,%edx
    5117:	80 a0 7c 06 00 00 c0 	andb   $0xc0,0x67c(%rax)
    511e:	89 90 58 06 00 00    	mov    %edx,0x658(%rax)
    5124:	8b 90 60 06 00 00    	mov    0x660(%rax),%edx
    512a:	80 a0 84 06 00 00 c0 	andb   $0xc0,0x684(%rax)
    5131:	81 e2 00 00 00 80    	and    $0x80000000,%edx
    5137:	80 a0 8c 06 00 00 c0 	andb   $0xc0,0x68c(%rax)
    513e:	81 ca 09 04 80 00    	or     $0x800409,%edx
    5144:	89 90 60 06 00 00    	mov    %edx,0x660(%rax)
    514a:	8b 90 68 06 00 00    	mov    0x668(%rax),%edx
    5150:	81 e2 00 00 00 80    	and    $0x80000000,%edx
    5156:	81 ca 0a 04 80 00    	or     $0x80040a,%edx
    515c:	89 90 68 06 00 00    	mov    %edx,0x668(%rax)
    5162:	8b 90 70 06 00 00    	mov    0x670(%rax),%edx
    5168:	81 e2 00 00 00 80    	and    $0x80000000,%edx
    516e:	81 ca 0b 04 80 00    	or     $0x80040b,%edx
    5174:	89 90 70 06 00 00    	mov    %edx,0x670(%rax)
    517a:	8b 90 78 06 00 00    	mov    0x678(%rax),%edx
    5180:	81 e2 00 00 00 80    	and    $0x80000000,%edx
    5186:	81 ca 0c 04 80 00    	or     $0x80040c,%edx
    518c:	89 90 78 06 00 00    	mov    %edx,0x678(%rax)
    5192:	8b 90 80 06 00 00    	mov    0x680(%rax),%edx
    5198:	81 e2 00 00 00 80    	and    $0x80000000,%edx
    519e:	81 ca 0d 04 80 00    	or     $0x80040d,%edx
    51a4:	89 90 80 06 00 00    	mov    %edx,0x680(%rax)
    51aa:	8b 90 88 06 00 00    	mov    0x688(%rax),%edx
    51b0:	81 e2 00 00 00 80    	and    $0x80000000,%edx
    51b6:	81 ca 0e 04 80 00    	or     $0x80040e,%edx
    51bc:	89 90 88 06 00 00    	mov    %edx,0x688(%rax)
    51c2:	8b 90 90 06 00 00    	mov    0x690(%rax),%edx
    51c8:	81 e2 00 00 00 80    	and    $0x80000000,%edx
    51ce:	81 ca 0f 04 80 00    	or     $0x80040f,%edx
    51d4:	80 a0 94 06 00 00 c0 	andb   $0xc0,0x694(%rax)
    51db:	89 90 90 06 00 00    	mov    %edx,0x690(%rax)
    51e1:	8b 90 98 06 00 00    	mov    0x698(%rax),%edx
    51e7:	80 a0 9c 06 00 00 c0 	andb   $0xc0,0x69c(%rax)
    51ee:	81 e2 00 00 00 80    	and    $0x80000000,%edx
    51f4:	80 a0 a4 06 00 00 c0 	andb   $0xc0,0x6a4(%rax)
    51fb:	81 ca 10 04 80 00    	or     $0x800410,%edx
    5201:	80 a0 ac 06 00 00 c0 	andb   $0xc0,0x6ac(%rax)
    5208:	89 90 98 06 00 00    	mov    %edx,0x698(%rax)
    520e:	8b 90 a0 06 00 00    	mov    0x6a0(%rax),%edx
    5214:	80 a0 b4 06 00 00 c0 	andb   $0xc0,0x6b4(%rax)
    521b:	81 e2 00 00 00 80    	and    $0x80000000,%edx
    5221:	80 a0 bc 06 00 00 c0 	andb   $0xc0,0x6bc(%rax)
    5228:	81 ca 11 04 80 00    	or     $0x800411,%edx
    522e:	80 a0 c4 06 00 00 c0 	andb   $0xc0,0x6c4(%rax)
    5235:	89 90 a0 06 00 00    	mov    %edx,0x6a0(%rax)
    523b:	8b 90 a8 06 00 00    	mov    0x6a8(%rax),%edx
    5241:	80 a0 cc 06 00 00 c0 	andb   $0xc0,0x6cc(%rax)
    5248:	81 e2 00 00 00 80    	and    $0x80000000,%edx
    524e:	81 ca 12 04 80 00    	or     $0x800412,%edx
    5254:	89 90 a8 06 00 00    	mov    %edx,0x6a8(%rax)
    525a:	8b 90 b0 06 00 00    	mov    0x6b0(%rax),%edx
    5260:	81 e2 00 00 00 80    	and    $0x80000000,%edx
    5266:	81 ca 13 04 80 00    	or     $0x800413,%edx
    526c:	89 90 b0 06 00 00    	mov    %edx,0x6b0(%rax)
    5272:	8b 90 b8 06 00 00    	mov    0x6b8(%rax),%edx
    5278:	81 e2 00 00 00 80    	and    $0x80000000,%edx
    527e:	81 ca 14 04 80 00    	or     $0x800414,%edx
    5284:	89 90 b8 06 00 00    	mov    %edx,0x6b8(%rax)
    528a:	8b 90 c0 06 00 00    	mov    0x6c0(%rax),%edx
    5290:	81 e2 00 00 00 80    	and    $0x80000000,%edx
    5296:	81 ca 15 04 80 00    	or     $0x800415,%edx
    529c:	89 90 c0 06 00 00    	mov    %edx,0x6c0(%rax)
    52a2:	8b 90 c8 06 00 00    	mov    0x6c8(%rax),%edx
    52a8:	81 e2 00 00 00 80    	and    $0x80000000,%edx
    52ae:	81 ca 16 04 80 00    	or     $0x800416,%edx
    52b4:	89 90 c8 06 00 00    	mov    %edx,0x6c8(%rax)
    52ba:	8b 90 d0 06 00 00    	mov    0x6d0(%rax),%edx
    52c0:	80 a0 d4 06 00 00 c0 	andb   $0xc0,0x6d4(%rax)
    52c7:	81 e2 00 00 00 80    	and    $0x80000000,%edx
    52cd:	80 a0 dc 06 00 00 c0 	andb   $0xc0,0x6dc(%rax)
    52d4:	81 ca 17 04 80 00    	or     $0x800417,%edx
    52da:	80 a0 e4 06 00 00 c0 	andb   $0xc0,0x6e4(%rax)
    52e1:	89 90 d0 06 00 00    	mov    %edx,0x6d0(%rax)
    52e7:	8b 90 d8 06 00 00    	mov    0x6d8(%rax),%edx
    52ed:	81 e2 00 00 00 80    	and    $0x80000000,%edx
    52f3:	81 ca 18 04 80 00    	or     $0x800418,%edx
    52f9:	89 90 d8 06 00 00    	mov    %edx,0x6d8(%rax)
    52ff:	8b 90 e0 06 00 00    	mov    0x6e0(%rax),%edx
    5305:	81 e2 00 00 00 80    	and    $0x80000000,%edx
    530b:	81 ca 19 04 80 00    	or     $0x800419,%edx
    5311:	89 90 e0 06 00 00    	mov    %edx,0x6e0(%rax)
    5317:	8b 90 e8 06 00 00    	mov    0x6e8(%rax),%edx
    531d:	81 e2 00 00 00 80    	and    $0x80000000,%edx
    5323:	81 ca 1a 04 80 00    	or     $0x80041a,%edx
    5329:	80 a0 ec 06 00 00 c0 	andb   $0xc0,0x6ec(%rax)
    5330:	89 90 e8 06 00 00    	mov    %edx,0x6e8(%rax)
    5336:	8b 90 f0 06 00 00    	mov    0x6f0(%rax),%edx
    533c:	80 a0 f4 06 00 00 c0 	andb   $0xc0,0x6f4(%rax)
    5343:	81 e2 00 00 00 80    	and    $0x80000000,%edx
    5349:	80 a0 fc 06 00 00 c0 	andb   $0xc0,0x6fc(%rax)
    5350:	81 ca 1b 04 80 00    	or     $0x80041b,%edx
    5356:	80 a0 04 07 00 00 c0 	andb   $0xc0,0x704(%rax)
    535d:	89 90 f0 06 00 00    	mov    %edx,0x6f0(%rax)
    5363:	8b 90 f8 06 00 00    	mov    0x6f8(%rax),%edx
    5369:	80 a0 0c 07 00 00 c0 	andb   $0xc0,0x70c(%rax)
    5370:	81 e2 00 00 00 80    	and    $0x80000000,%edx
    5376:	81 ca 1c 04 80 00    	or     $0x80041c,%edx
    537c:	89 90 f8 06 00 00    	mov    %edx,0x6f8(%rax)
    5382:	8b 90 00 07 00 00    	mov    0x700(%rax),%edx
    5388:	81 e2 00 00 00 80    	and    $0x80000000,%edx
    538e:	81 ca 1d 04 80 00    	or     $0x80041d,%edx
    5394:	89 90 00 07 00 00    	mov    %edx,0x700(%rax)
    539a:	8b 90 08 07 00 00    	mov    0x708(%rax),%edx
    53a0:	81 e2 00 00 00 80    	and    $0x80000000,%edx
    53a6:	81 ca 1e 04 80 00    	or     $0x80041e,%edx
    53ac:	89 90 08 07 00 00    	mov    %edx,0x708(%rax)
    53b2:	8b 90 10 07 00 00    	mov    0x710(%rax),%edx
    53b8:	80 a0 14 07 00 00 c0 	andb   $0xc0,0x714(%rax)
    53bf:	81 e2 00 00 00 80    	and    $0x80000000,%edx
    53c5:	80 a0 1c 07 00 00 c0 	andb   $0xc0,0x71c(%rax)
    53cc:	81 ca 1f 04 80 00    	or     $0x80041f,%edx
    53d2:	80 a0 24 07 00 00 c0 	andb   $0xc0,0x724(%rax)
    53d9:	89 90 10 07 00 00    	mov    %edx,0x710(%rax)
    53df:	8b 90 18 07 00 00    	mov    0x718(%rax),%edx
    53e5:	80 a0 2c 07 00 00 c0 	andb   $0xc0,0x72c(%rax)
    53ec:	81 e2 00 00 00 80    	and    $0x80000000,%edx
    53f2:	80 a0 34 07 00 00 c0 	andb   $0xc0,0x734(%rax)
    53f9:	81 ca 08 08 00 01    	or     $0x1000808,%edx
    53ff:	80 a0 3c 07 00 00 c0 	andb   $0xc0,0x73c(%rax)
    5406:	89 90 18 07 00 00    	mov    %edx,0x718(%rax)
    540c:	8b 90 20 07 00 00    	mov    0x720(%rax),%edx
    5412:	81 e2 00 00 00 80    	and    $0x80000000,%edx
    5418:	81 ca 09 08 00 01    	or     $0x1000809,%edx
    541e:	89 90 20 07 00 00    	mov    %edx,0x720(%rax)
    5424:	8b 90 28 07 00 00    	mov    0x728(%rax),%edx
    542a:	81 e2 00 00 00 80    	and    $0x80000000,%edx
    5430:	81 ca 0a 08 00 01    	or     $0x100080a,%edx
    5436:	89 90 28 07 00 00    	mov    %edx,0x728(%rax)
    543c:	8b 90 30 07 00 00    	mov    0x730(%rax),%edx
    5442:	81 e2 00 00 00 80    	and    $0x80000000,%edx
    5448:	81 ca 0b 08 00 01    	or     $0x100080b,%edx
    544e:	89 90 30 07 00 00    	mov    %edx,0x730(%rax)
    5454:	8b 90 38 07 00 00    	mov    0x738(%rax),%edx
    545a:	81 e2 00 00 00 80    	and    $0x80000000,%edx
    5460:	81 ca 0c 08 00 01    	or     $0x100080c,%edx
    5466:	89 90 38 07 00 00    	mov    %edx,0x738(%rax)
    546c:	8b 90 40 07 00 00    	mov    0x740(%rax),%edx
    5472:	81 e2 00 00 00 80    	and    $0x80000000,%edx
    5478:	80 a0 44 07 00 00 c0 	andb   $0xc0,0x744(%rax)
    547f:	81 ca 0d 08 00 01    	or     $0x100080d,%edx
    5485:	80 a0 4c 07 00 00 c0 	andb   $0xc0,0x74c(%rax)
    548c:	89 90 40 07 00 00    	mov    %edx,0x740(%rax)
    5492:	8b 90 48 07 00 00    	mov    0x748(%rax),%edx
    5498:	81 e2 00 00 00 80    	and    $0x80000000,%edx
    549e:	81 ca 0e 08 00 01    	or     $0x100080e,%edx
    54a4:	89 90 48 07 00 00    	mov    %edx,0x748(%rax)
    54aa:	8b 90 50 07 00 00    	mov    0x750(%rax),%edx
    54b0:	80 a0 54 07 00 00 c0 	andb   $0xc0,0x754(%rax)
    54b7:	81 e2 00 00 00 80    	and    $0x80000000,%edx
    54bd:	80 a0 5c 07 00 00 c0 	andb   $0xc0,0x75c(%rax)
    54c4:	81 ca 0f 08 00 01    	or     $0x100080f,%edx
    54ca:	80 a0 64 07 00 00 c0 	andb   $0xc0,0x764(%rax)
    54d1:	89 90 50 07 00 00    	mov    %edx,0x750(%rax)
    54d7:	8b 90 58 07 00 00    	mov    0x758(%rax),%edx
    54dd:	80 a0 6c 07 00 00 c0 	andb   $0xc0,0x76c(%rax)
    54e4:	81 e2 00 00 00 80    	and    $0x80000000,%edx
    54ea:	80 a0 74 07 00 00 c0 	andb   $0xc0,0x774(%rax)
    54f1:	81 ca 10 08 00 01    	or     $0x1000810,%edx
    54f7:	80 a6 7c 07 00 00 c0 	andb   $0xc0,0x77c(%rsi)
    54fe:	89 90 58 07 00 00    	mov    %edx,0x758(%rax)
    5504:	8b 90 60 07 00 00    	mov    0x760(%rax),%edx
    550a:	80 a6 84 07 00 00 c0 	andb   $0xc0,0x784(%rsi)
    5511:	81 e2 00 00 00 80    	and    $0x80000000,%edx
    5517:	80 a6 8c 07 00 00 c0 	andb   $0xc0,0x78c(%rsi)
    551e:	81 ca 11 08 00 01    	or     $0x1000811,%edx
    5524:	89 90 60 07 00 00    	mov    %edx,0x760(%rax)
    552a:	8b 90 68 07 00 00    	mov    0x768(%rax),%edx
    5530:	81 e2 00 00 00 80    	and    $0x80000000,%edx
    5536:	81 ca 12 08 00 01    	or     $0x1000812,%edx
    553c:	89 90 68 07 00 00    	mov    %edx,0x768(%rax)
    5542:	8b 90 70 07 00 00    	mov    0x770(%rax),%edx
    5548:	81 e2 00 00 00 80    	and    $0x80000000,%edx
    554e:	81 ca 13 08 00 01    	or     $0x1000813,%edx
    5554:	89 90 70 07 00 00    	mov    %edx,0x770(%rax)
    555a:	8b 80 78 07 00 00    	mov    0x778(%rax),%eax
    5560:	48 8d 96 70 06 00 00 	lea    0x670(%rsi),%rdx
    5567:	66 48 0f 6e ea       	movq   %rdx,%xmm5
    556c:	48 8d 96 80 06 00 00 	lea    0x680(%rsi),%rdx
    5573:	25 00 00 00 80       	and    $0x80000000,%eax
    5578:	66 48 0f 6e f2       	movq   %rdx,%xmm6
    557d:	48 8d 96 90 06 00 00 	lea    0x690(%rsi),%rdx
    5584:	0d 14 08 00 01       	or     $0x1000814,%eax
    5589:	66 48 0f 6e fa       	movq   %rdx,%xmm7
    558e:	48 8d 96 a0 06 00 00 	lea    0x6a0(%rsi),%rdx
    5595:	89 86 78 07 00 00    	mov    %eax,0x778(%rsi)
    559b:	8b 86 80 07 00 00    	mov    0x780(%rsi),%eax
    55a1:	66 48 0f 6e ca       	movq   %rdx,%xmm1
    55a6:	48 8d 96 b0 06 00 00 	lea    0x6b0(%rsi),%rdx
    55ad:	66 48 0f 6e d2       	movq   %rdx,%xmm2
    55b2:	48 8d 96 c0 06 00 00 	lea    0x6c0(%rsi),%rdx
    55b9:	25 00 00 00 80       	and    $0x80000000,%eax
    55be:	66 48 0f 6e da       	movq   %rdx,%xmm3
    55c3:	48 8d 96 d0 06 00 00 	lea    0x6d0(%rsi),%rdx
    55ca:	0d 15 08 00 01       	or     $0x1000815,%eax
    55cf:	89 86 80 07 00 00    	mov    %eax,0x780(%rsi)
    55d5:	8b 86 88 07 00 00    	mov    0x788(%rsi),%eax
    55db:	25 00 00 00 80       	and    $0x80000000,%eax
    55e0:	0d 16 08 00 01       	or     $0x1000816,%eax
    55e5:	89 86 88 07 00 00    	mov    %eax,0x788(%rsi)
    55eb:	8b 86 90 07 00 00    	mov    0x790(%rsi),%eax
    55f1:	25 00 00 00 80       	and    $0x80000000,%eax
    55f6:	0d 17 08 00 01       	or     $0x1000817,%eax
    55fb:	80 a6 94 07 00 00 c0 	andb   $0xc0,0x794(%rsi)
    5602:	89 86 90 07 00 00    	mov    %eax,0x790(%rsi)
    5608:	8b 86 98 07 00 00    	mov    0x798(%rsi),%eax
    560e:	80 a6 9c 07 00 00 c0 	andb   $0xc0,0x79c(%rsi)
    5615:	25 00 00 00 80       	and    $0x80000000,%eax
    561a:	80 a6 a4 07 00 00 c0 	andb   $0xc0,0x7a4(%rsi)
    5621:	0d 18 08 00 01       	or     $0x1000818,%eax
    5626:	80 a6 ac 07 00 00 c0 	andb   $0xc0,0x7ac(%rsi)
    562d:	89 86 98 07 00 00    	mov    %eax,0x798(%rsi)
    5633:	8b 86 a0 07 00 00    	mov    0x7a0(%rsi),%eax
    5639:	80 a6 b4 07 00 00 c0 	andb   $0xc0,0x7b4(%rsi)
    5640:	25 00 00 00 80       	and    $0x80000000,%eax
    5645:	80 a6 bc 07 00 00 c0 	andb   $0xc0,0x7bc(%rsi)
    564c:	0d 19 08 00 01       	or     $0x1000819,%eax
    5651:	80 a6 c4 07 00 00 c0 	andb   $0xc0,0x7c4(%rsi)
    5658:	89 86 a0 07 00 00    	mov    %eax,0x7a0(%rsi)
    565e:	8b 86 a8 07 00 00    	mov    0x7a8(%rsi),%eax
    5664:	80 a6 cc 07 00 00 c0 	andb   $0xc0,0x7cc(%rsi)
    566b:	25 00 00 00 80       	and    $0x80000000,%eax
    5670:	0d 1a 08 00 01       	or     $0x100081a,%eax
    5675:	89 86 a8 07 00 00    	mov    %eax,0x7a8(%rsi)
    567b:	8b 86 b0 07 00 00    	mov    0x7b0(%rsi),%eax
    5681:	25 00 00 00 80       	and    $0x80000000,%eax
    5686:	0d 1b 08 00 01       	or     $0x100081b,%eax
    568b:	89 86 b0 07 00 00    	mov    %eax,0x7b0(%rsi)
    5691:	8b 86 b8 07 00 00    	mov    0x7b8(%rsi),%eax
    5697:	25 00 00 00 80       	and    $0x80000000,%eax
    569c:	0d 1c 08 00 01       	or     $0x100081c,%eax
    56a1:	89 86 b8 07 00 00    	mov    %eax,0x7b8(%rsi)
    56a7:	8b 86 c0 07 00 00    	mov    0x7c0(%rsi),%eax
    56ad:	25 00 00 00 80       	and    $0x80000000,%eax
    56b2:	0d 1d 08 00 01       	or     $0x100081d,%eax
    56b7:	89 86 c0 07 00 00    	mov    %eax,0x7c0(%rsi)
    56bd:	8b 86 c8 07 00 00    	mov    0x7c8(%rsi),%eax
    56c3:	25 00 00 00 80       	and    $0x80000000,%eax
    56c8:	0d 1e 08 00 01       	or     $0x100081e,%eax
    56cd:	89 86 c8 07 00 00    	mov    %eax,0x7c8(%rsi)
    56d3:	8b 86 d0 07 00 00    	mov    0x7d0(%rsi),%eax
    56d9:	80 a6 d4 07 00 00 c0 	andb   $0xc0,0x7d4(%rsi)
    56e0:	25 00 00 00 80       	and    $0x80000000,%eax
    56e5:	80 a6 dc 07 00 00 c0 	andb   $0xc0,0x7dc(%rsi)
    56ec:	0d 1f 08 00 01       	or     $0x100081f,%eax
    56f1:	80 a6 e4 07 00 00 c0 	andb   $0xc0,0x7e4(%rsi)
    56f8:	89 86 d0 07 00 00    	mov    %eax,0x7d0(%rsi)
    56fe:	8b 86 d8 07 00 00    	mov    0x7d8(%rsi),%eax
    5704:	25 00 00 00 80       	and    $0x80000000,%eax
    5709:	0d 08 10 00 02       	or     $0x2001008,%eax
    570e:	89 86 d8 07 00 00    	mov    %eax,0x7d8(%rsi)
    5714:	8b 86 e0 07 00 00    	mov    0x7e0(%rsi),%eax
    571a:	25 00 00 00 80       	and    $0x80000000,%eax
    571f:	0d 09 10 00 02       	or     $0x2001009,%eax
    5724:	89 86 e0 07 00 00    	mov    %eax,0x7e0(%rsi)
    572a:	8b 86 e8 07 00 00    	mov    0x7e8(%rsi),%eax
    5730:	25 00 00 00 80       	and    $0x80000000,%eax
    5735:	0d 0a 10 00 02       	or     $0x200100a,%eax
    573a:	80 a6 ec 07 00 00 c0 	andb   $0xc0,0x7ec(%rsi)
    5741:	89 86 e8 07 00 00    	mov    %eax,0x7e8(%rsi)
    5747:	8b 86 f0 07 00 00    	mov    0x7f0(%rsi),%eax
    574d:	80 a6 f4 07 00 00 c0 	andb   $0xc0,0x7f4(%rsi)
    5754:	25 00 00 00 80       	and    $0x80000000,%eax
    5759:	80 a6 fc 07 00 00 c0 	andb   $0xc0,0x7fc(%rsi)
    5760:	0d 0b 10 00 02       	or     $0x200100b,%eax
    5765:	80 a6 04 08 00 00 c0 	andb   $0xc0,0x804(%rsi)
    576c:	89 86 f0 07 00 00    	mov    %eax,0x7f0(%rsi)
    5772:	8b 86 f8 07 00 00    	mov    0x7f8(%rsi),%eax
    5778:	80 a6 0c 08 00 00 c0 	andb   $0xc0,0x80c(%rsi)
    577f:	25 00 00 00 80       	and    $0x80000000,%eax
    5784:	0d 0c 10 00 02       	or     $0x200100c,%eax
    5789:	89 86 f8 07 00 00    	mov    %eax,0x7f8(%rsi)
    578f:	8b 86 00 08 00 00    	mov    0x800(%rsi),%eax
    5795:	25 00 00 00 80       	and    $0x80000000,%eax
    579a:	0d 0d 10 00 02       	or     $0x200100d,%eax
    579f:	89 86 00 08 00 00    	mov    %eax,0x800(%rsi)
    57a5:	8b 86 08 08 00 00    	mov    0x808(%rsi),%eax
    57ab:	25 00 00 00 80       	and    $0x80000000,%eax
    57b0:	0d 0e 10 00 02       	or     $0x200100e,%eax
    57b5:	89 86 08 08 00 00    	mov    %eax,0x808(%rsi)
    57bb:	8b 86 10 08 00 00    	mov    0x810(%rsi),%eax
    57c1:	80 a6 14 08 00 00 c0 	andb   $0xc0,0x814(%rsi)
    57c8:	25 00 00 00 80       	and    $0x80000000,%eax
    57cd:	80 a6 1c 08 00 00 c0 	andb   $0xc0,0x81c(%rsi)
    57d4:	0d 0f 10 00 02       	or     $0x200100f,%eax
    57d9:	80 a6 24 08 00 00 c0 	andb   $0xc0,0x824(%rsi)
    57e0:	89 86 10 08 00 00    	mov    %eax,0x810(%rsi)
    57e6:	8b 86 18 08 00 00    	mov    0x818(%rsi),%eax
    57ec:	80 a6 2c 08 00 00 c0 	andb   $0xc0,0x82c(%rsi)
    57f3:	25 00 00 00 80       	and    $0x80000000,%eax
    57f8:	80 a6 34 08 00 00 c0 	andb   $0xc0,0x834(%rsi)
    57ff:	0d 10 10 00 02       	or     $0x2001010,%eax
    5804:	80 a6 3c 08 00 00 c0 	andb   $0xc0,0x83c(%rsi)
    580b:	89 86 18 08 00 00    	mov    %eax,0x818(%rsi)
    5811:	8b 86 20 08 00 00    	mov    0x820(%rsi),%eax
    5817:	25 00 00 00 80       	and    $0x80000000,%eax
    581c:	0d 11 10 00 02       	or     $0x2001011,%eax
    5821:	89 86 20 08 00 00    	mov    %eax,0x820(%rsi)
    5827:	8b 86 28 08 00 00    	mov    0x828(%rsi),%eax
    582d:	25 00 00 00 80       	and    $0x80000000,%eax
    5832:	0d 12 10 00 02       	or     $0x2001012,%eax
    5837:	89 86 28 08 00 00    	mov    %eax,0x828(%rsi)
    583d:	8b 86 30 08 00 00    	mov    0x830(%rsi),%eax
    5843:	25 00 00 00 80       	and    $0x80000000,%eax
    5848:	0d 13 10 00 02       	or     $0x2001013,%eax
    584d:	89 86 30 08 00 00    	mov    %eax,0x830(%rsi)
    5853:	8b 86 38 08 00 00    	mov    0x838(%rsi),%eax
    5859:	25 00 00 00 80       	and    $0x80000000,%eax
    585e:	0d 14 10 00 02       	or     $0x2001014,%eax
    5863:	89 86 38 08 00 00    	mov    %eax,0x838(%rsi)
    5869:	8b 86 40 08 00 00    	mov    0x840(%rsi),%eax
    586f:	25 00 00 00 80       	and    $0x80000000,%eax
    5874:	80 a6 44 08 00 00 c0 	andb   $0xc0,0x844(%rsi)
    587b:	0d 15 10 00 02       	or     $0x2001015,%eax
    5880:	80 a6 4c 08 00 00 c0 	andb   $0xc0,0x84c(%rsi)
    5887:	89 86 40 08 00 00    	mov    %eax,0x840(%rsi)
    588d:	8b 86 48 08 00 00    	mov    0x848(%rsi),%eax
    5893:	25 00 00 00 80       	and    $0x80000000,%eax
    5898:	0d 16 10 00 02       	or     $0x2001016,%eax
    589d:	89 86 48 08 00 00    	mov    %eax,0x848(%rsi)
    58a3:	8b 86 50 08 00 00    	mov    0x850(%rsi),%eax
    58a9:	80 a6 54 08 00 00 c0 	andb   $0xc0,0x854(%rsi)
    58b0:	25 00 00 00 80       	and    $0x80000000,%eax
    58b5:	80 a6 5c 08 00 00 c0 	andb   $0xc0,0x85c(%rsi)
    58bc:	0d 17 10 00 02       	or     $0x2001017,%eax
    58c1:	80 a6 64 08 00 00 c0 	andb   $0xc0,0x864(%rsi)
    58c8:	89 86 50 08 00 00    	mov    %eax,0x850(%rsi)
    58ce:	8b 86 58 08 00 00    	mov    0x858(%rsi),%eax
    58d4:	80 a6 6c 08 00 00 c0 	andb   $0xc0,0x86c(%rsi)
    58db:	25 00 00 00 80       	and    $0x80000000,%eax
    58e0:	80 a6 74 08 00 00 c0 	andb   $0xc0,0x874(%rsi)
    58e7:	0d 18 10 00 02       	or     $0x2001018,%eax
    58ec:	80 a6 7c 08 00 00 c0 	andb   $0xc0,0x87c(%rsi)
    58f3:	89 86 58 08 00 00    	mov    %eax,0x858(%rsi)
    58f9:	8b 86 60 08 00 00    	mov    0x860(%rsi),%eax
    58ff:	80 a6 84 08 00 00 c0 	andb   $0xc0,0x884(%rsi)
    5906:	25 00 00 00 80       	and    $0x80000000,%eax
    590b:	80 a6 8c 08 00 00 c0 	andb   $0xc0,0x88c(%rsi)
    5912:	0d 19 10 00 02       	or     $0x2001019,%eax
    5917:	89 86 60 08 00 00    	mov    %eax,0x860(%rsi)
    591d:	8b 86 68 08 00 00    	mov    0x868(%rsi),%eax
    5923:	25 00 00 00 80       	and    $0x80000000,%eax
    5928:	0d 1a 10 00 02       	or     $0x200101a,%eax
    592d:	89 86 68 08 00 00    	mov    %eax,0x868(%rsi)
    5933:	8b 86 70 08 00 00    	mov    0x870(%rsi),%eax
    5939:	25 00 00 00 80       	and    $0x80000000,%eax
    593e:	0d 1b 10 00 02       	or     $0x200101b,%eax
    5943:	89 86 70 08 00 00    	mov    %eax,0x870(%rsi)
    5949:	8b 86 78 08 00 00    	mov    0x878(%rsi),%eax
    594f:	25 00 00 00 80       	and    $0x80000000,%eax
    5954:	0d 1c 10 00 02       	or     $0x200101c,%eax
    5959:	89 86 78 08 00 00    	mov    %eax,0x878(%rsi)
    595f:	8b 86 80 08 00 00    	mov    0x880(%rsi),%eax
    5965:	25 00 00 00 80       	and    $0x80000000,%eax
    596a:	0d 1d 10 00 02       	or     $0x200101d,%eax
    596f:	89 86 80 08 00 00    	mov    %eax,0x880(%rsi)
    5975:	8b 86 88 08 00 00    	mov    0x888(%rsi),%eax
    597b:	25 00 00 00 80       	and    $0x80000000,%eax
    5980:	0d 1e 10 00 02       	or     $0x200101e,%eax
    5985:	89 86 88 08 00 00    	mov    %eax,0x888(%rsi)
    598b:	8b 86 90 08 00 00    	mov    0x890(%rsi),%eax
    5991:	25 00 00 00 80       	and    $0x80000000,%eax
    5996:	0d 1f 10 00 02       	or     $0x200101f,%eax
    599b:	80 a6 94 08 00 00 c0 	andb   $0xc0,0x894(%rsi)
    59a2:	89 86 90 08 00 00    	mov    %eax,0x890(%rsi)
    59a8:	8b 86 98 08 00 00    	mov    0x898(%rsi),%eax
    59ae:	80 a6 9c 08 00 00 c0 	andb   $0xc0,0x89c(%rsi)
    59b5:	25 00 00 00 80       	and    $0x80000000,%eax
    59ba:	80 a6 a4 08 00 00 c0 	andb   $0xc0,0x8a4(%rsi)
    59c1:	0d 00 80 00 20       	or     $0x20008000,%eax
    59c6:	80 a6 ac 08 00 00 c0 	andb   $0xc0,0x8ac(%rsi)
    59cd:	89 86 98 08 00 00    	mov    %eax,0x898(%rsi)
    59d3:	8b 86 a0 08 00 00    	mov    0x8a0(%rsi),%eax
    59d9:	80 a6 b4 08 00 00 c0 	andb   $0xc0,0x8b4(%rsi)
    59e0:	25 00 00 00 80       	and    $0x80000000,%eax
    59e5:	80 a6 bc 08 00 00 c0 	andb   $0xc0,0x8bc(%rsi)
    59ec:	0d 01 80 00 20       	or     $0x20008001,%eax
    59f1:	80 a6 c4 08 00 00 c0 	andb   $0xc0,0x8c4(%rsi)
    59f8:	89 86 a0 08 00 00    	mov    %eax,0x8a0(%rsi)
    59fe:	8b 86 a8 08 00 00    	mov    0x8a8(%rsi),%eax
    5a04:	80 a6 cc 08 00 00 c0 	andb   $0xc0,0x8cc(%rsi)
    5a0b:	25 00 00 00 80       	and    $0x80000000,%eax
    5a10:	0d 02 80 00 20       	or     $0x20008002,%eax
    5a15:	89 86 a8 08 00 00    	mov    %eax,0x8a8(%rsi)
    5a1b:	8b 86 b0 08 00 00    	mov    0x8b0(%rsi),%eax
    5a21:	25 00 00 00 80       	and    $0x80000000,%eax
    5a26:	0d 03 80 00 20       	or     $0x20008003,%eax
    5a2b:	89 86 b0 08 00 00    	mov    %eax,0x8b0(%rsi)
    5a31:	8b 86 b8 08 00 00    	mov    0x8b8(%rsi),%eax
    5a37:	25 00 00 00 80       	and    $0x80000000,%eax
    5a3c:	0d 04 80 00 20       	or     $0x20008004,%eax
    5a41:	89 86 b8 08 00 00    	mov    %eax,0x8b8(%rsi)
    5a47:	8b 86 c0 08 00 00    	mov    0x8c0(%rsi),%eax
    5a4d:	25 00 00 00 80       	and    $0x80000000,%eax
    5a52:	0d 05 80 00 20       	or     $0x20008005,%eax
    5a57:	89 86 c0 08 00 00    	mov    %eax,0x8c0(%rsi)
    5a5d:	8b 86 c8 08 00 00    	mov    0x8c8(%rsi),%eax
    5a63:	25 00 00 00 80       	and    $0x80000000,%eax
    5a68:	0d 06 80 00 20       	or     $0x20008006,%eax
    5a6d:	89 86 c8 08 00 00    	mov    %eax,0x8c8(%rsi)
    5a73:	8b 86 d0 08 00 00    	mov    0x8d0(%rsi),%eax
    5a79:	80 a6 d4 08 00 00 c0 	andb   $0xc0,0x8d4(%rsi)
    5a80:	25 00 00 00 80       	and    $0x80000000,%eax
    5a85:	0d 07 80 00 20       	or     $0x20008007,%eax
    5a8a:	89 86 d0 08 00 00    	mov    %eax,0x8d0(%rsi)
    5a90:	48 8d 86 60 06 00 00 	lea    0x660(%rsi),%rax
    5a97:	66 48 0f 6e e0       	movq   %rax,%xmm4
    5a9c:	66 0f 6c c4          	punpcklqdq %xmm4,%xmm0
    5aa0:	66 48 0f 6e e2       	movq   %rdx,%xmm4
    5aa5:	48 8d 96 e0 06 00 00 	lea    0x6e0(%rsi),%rdx
    5aac:	0f 11 86 d8 08 00 00 	movups %xmm0,0x8d8(%rsi)
    5ab3:	66 48 0f 6e c7       	movq   %rdi,%xmm0
    5ab8:	48 8d be 98 06 00 00 	lea    0x698(%rsi),%rdi
    5abf:	66 0f 6c c5          	punpcklqdq %xmm5,%xmm0
    5ac3:	66 48 0f 6e ea       	movq   %rdx,%xmm5
    5ac8:	48 8d 96 f0 06 00 00 	lea    0x6f0(%rsi),%rdx
    5acf:	0f 11 86 e8 08 00 00 	movups %xmm0,0x8e8(%rsi)
    5ad6:	66 48 0f 6e c3       	movq   %rbx,%xmm0
    5adb:	48 8d 9e a8 06 00 00 	lea    0x6a8(%rsi),%rbx
    5ae2:	66 0f 6c c6          	punpcklqdq %xmm6,%xmm0
    5ae6:	66 48 0f 6e f2       	movq   %rdx,%xmm6
    5aeb:	48 8d 96 00 07 00 00 	lea    0x700(%rsi),%rdx
    5af2:	0f 11 86 f8 08 00 00 	movups %xmm0,0x8f8(%rsi)
    5af9:	66 48 0f 6e c1       	movq   %rcx,%xmm0
    5afe:	48 8d 8e b8 06 00 00 	lea    0x6b8(%rsi),%rcx
    5b05:	66 0f 6c c7          	punpcklqdq %xmm7,%xmm0
    5b09:	66 48 0f 6e fa       	movq   %rdx,%xmm7
    5b0e:	48 8d 96 10 07 00 00 	lea    0x710(%rsi),%rdx
    5b15:	0f 11 86 08 09 00 00 	movups %xmm0,0x908(%rsi)
    5b1c:	66 48 0f 6e c7       	movq   %rdi,%xmm0
    5b21:	48 8d be c8 06 00 00 	lea    0x6c8(%rsi),%rdi
    5b28:	66 0f 6c c1          	punpcklqdq %xmm1,%xmm0
    5b2c:	66 48 0f 6e ca       	movq   %rdx,%xmm1
    5b31:	48 8d 96 20 07 00 00 	lea    0x720(%rsi),%rdx
    5b38:	0f 11 86 18 09 00 00 	movups %xmm0,0x918(%rsi)
    5b3f:	66 48 0f 6e c3       	movq   %rbx,%xmm0
    5b44:	48 8d 9e d8 06 00 00 	lea    0x6d8(%rsi),%rbx
    5b4b:	66 0f 6c c2          	punpcklqdq %xmm2,%xmm0
    5b4f:	66 48 0f 6e d2       	movq   %rdx,%xmm2
    5b54:	48 8d 96 30 07 00 00 	lea    0x730(%rsi),%rdx
    5b5b:	0f 11 86 28 09 00 00 	movups %xmm0,0x928(%rsi)
    5b62:	66 48 0f 6e c1       	movq   %rcx,%xmm0
    5b67:	48 8d 8e e8 06 00 00 	lea    0x6e8(%rsi),%rcx
    5b6e:	66 0f 6c c3          	punpcklqdq %xmm3,%xmm0
    5b72:	66 48 0f 6e da       	movq   %rdx,%xmm3
    5b77:	48 8d 96 40 07 00 00 	lea    0x740(%rsi),%rdx
    5b7e:	0f 11 86 38 09 00 00 	movups %xmm0,0x938(%rsi)
    5b85:	66 48 0f 6e c7       	movq   %rdi,%xmm0
    5b8a:	48 8d be f8 06 00 00 	lea    0x6f8(%rsi),%rdi
    5b91:	66 0f 6c c4          	punpcklqdq %xmm4,%xmm0
    5b95:	66 48 0f 6e e2       	movq   %rdx,%xmm4
    5b9a:	48 8d 96 50 07 00 00 	lea    0x750(%rsi),%rdx
    5ba1:	0f 11 86 48 09 00 00 	movups %xmm0,0x948(%rsi)
    5ba8:	66 48 0f 6e c3       	movq   %rbx,%xmm0
    5bad:	48 8d 9e 08 07 00 00 	lea    0x708(%rsi),%rbx
    5bb4:	66 0f 6c c5          	punpcklqdq %xmm5,%xmm0
    5bb8:	66 48 0f 6e ea       	movq   %rdx,%xmm5
    5bbd:	48 8d 96 60 07 00 00 	lea    0x760(%rsi),%rdx
    5bc4:	0f 11 86 58 09 00 00 	movups %xmm0,0x958(%rsi)
    5bcb:	66 48 0f 6e c1       	movq   %rcx,%xmm0
    5bd0:	48 8d 8e 18 07 00 00 	lea    0x718(%rsi),%rcx
    5bd7:	66 0f 6c c6          	punpcklqdq %xmm6,%xmm0
    5bdb:	66 48 0f 6e f2       	movq   %rdx,%xmm6
    5be0:	48 8d 96 70 07 00 00 	lea    0x770(%rsi),%rdx
    5be7:	0f 11 86 68 09 00 00 	movups %xmm0,0x968(%rsi)
    5bee:	66 48 0f 6e c7       	movq   %rdi,%xmm0
    5bf3:	48 8d be 28 07 00 00 	lea    0x728(%rsi),%rdi
    5bfa:	66 0f 6c c7          	punpcklqdq %xmm7,%xmm0
    5bfe:	66 48 0f 6e fa       	movq   %rdx,%xmm7
    5c03:	48 8d 90 20 01 00 00 	lea    0x120(%rax),%rdx
    5c0a:	0f 11 86 78 09 00 00 	movups %xmm0,0x978(%rsi)
    5c11:	66 48 0f 6e c3       	movq   %rbx,%xmm0
    5c16:	48 8d 9e 38 07 00 00 	lea    0x738(%rsi),%rbx
    5c1d:	66 0f 6c c1          	punpcklqdq %xmm1,%xmm0
    5c21:	66 48 0f 6e ca       	movq   %rdx,%xmm1
    5c26:	48 8d 90 30 01 00 00 	lea    0x130(%rax),%rdx
    5c2d:	0f 11 86 88 09 00 00 	movups %xmm0,0x988(%rsi)
    5c34:	66 48 0f 6e c1       	movq   %rcx,%xmm0
    5c39:	48 8d 8e 48 07 00 00 	lea    0x748(%rsi),%rcx
    5c40:	66 0f 6c c2          	punpcklqdq %xmm2,%xmm0
    5c44:	66 48 0f 6e d2       	movq   %rdx,%xmm2
    5c49:	48 8d 90 40 01 00 00 	lea    0x140(%rax),%rdx
    5c50:	0f 11 86 98 09 00 00 	movups %xmm0,0x998(%rsi)
    5c57:	66 48 0f 6e c7       	movq   %rdi,%xmm0
    5c5c:	48 8d be 58 07 00 00 	lea    0x758(%rsi),%rdi
    5c63:	66 0f 6c c3          	punpcklqdq %xmm3,%xmm0
    5c67:	66 48 0f 6e da       	movq   %rdx,%xmm3
    5c6c:	48 8d 90 50 01 00 00 	lea    0x150(%rax),%rdx
    5c73:	0f 11 86 a8 09 00 00 	movups %xmm0,0x9a8(%rsi)
    5c7a:	66 48 0f 6e c3       	movq   %rbx,%xmm0
    5c7f:	48 8d 9e 68 07 00 00 	lea    0x768(%rsi),%rbx
    5c86:	66 0f 6c c4          	punpcklqdq %xmm4,%xmm0
    5c8a:	66 48 0f 6e e2       	movq   %rdx,%xmm4
    5c8f:	48 8d 90 60 01 00 00 	lea    0x160(%rax),%rdx
    5c96:	0f 11 86 b8 09 00 00 	movups %xmm0,0x9b8(%rsi)
    5c9d:	66 48 0f 6e c1       	movq   %rcx,%xmm0
    5ca2:	48 8d 88 18 01 00 00 	lea    0x118(%rax),%rcx
    5ca9:	66 0f 6c c5          	punpcklqdq %xmm5,%xmm0
    5cad:	66 48 0f 6e ea       	movq   %rdx,%xmm5
    5cb2:	48 8d 90 70 01 00 00 	lea    0x170(%rax),%rdx
    5cb9:	0f 11 86 c8 09 00 00 	movups %xmm0,0x9c8(%rsi)
    5cc0:	66 48 0f 6e c7       	movq   %rdi,%xmm0
    5cc5:	48 8d b8 28 01 00 00 	lea    0x128(%rax),%rdi
    5ccc:	66 0f 6c c6          	punpcklqdq %xmm6,%xmm0
    5cd0:	66 48 0f 6e f2       	movq   %rdx,%xmm6
    5cd5:	48 8d 90 80 01 00 00 	lea    0x180(%rax),%rdx
    5cdc:	0f 11 86 d8 09 00 00 	movups %xmm0,0x9d8(%rsi)
    5ce3:	66 48 0f 6e c3       	movq   %rbx,%xmm0
    5ce8:	48 8d 98 38 01 00 00 	lea    0x138(%rax),%rbx
    5cef:	66 0f 6c c7          	punpcklqdq %xmm7,%xmm0
    5cf3:	66 48 0f 6e fa       	movq   %rdx,%xmm7
    5cf8:	48 8d 90 90 01 00 00 	lea    0x190(%rax),%rdx
    5cff:	0f 11 86 e8 09 00 00 	movups %xmm0,0x9e8(%rsi)
    5d06:	66 48 0f 6e c1       	movq   %rcx,%xmm0
    5d0b:	48 8d 88 48 01 00 00 	lea    0x148(%rax),%rcx
    5d12:	66 0f 6c c1          	punpcklqdq %xmm1,%xmm0
    5d16:	66 48 0f 6e ca       	movq   %rdx,%xmm1
    5d1b:	48 8d 90 a0 01 00 00 	lea    0x1a0(%rax),%rdx
    5d22:	0f 11 86 f8 09 00 00 	movups %xmm0,0x9f8(%rsi)
    5d29:	66 48 0f 6e c7       	movq   %rdi,%xmm0
    5d2e:	48 8d b8 58 01 00 00 	lea    0x158(%rax),%rdi
    5d35:	66 0f 6c c2          	punpcklqdq %xmm2,%xmm0
    5d39:	66 48 0f 6e d2       	movq   %rdx,%xmm2
    5d3e:	48 8d 90 b0 01 00 00 	lea    0x1b0(%rax),%rdx
    5d45:	0f 11 86 08 0a 00 00 	movups %xmm0,0xa08(%rsi)
    5d4c:	66 48 0f 6e c3       	movq   %rbx,%xmm0
    5d51:	48 8d 98 68 01 00 00 	lea    0x168(%rax),%rbx
    5d58:	66 0f 6c c3          	punpcklqdq %xmm3,%xmm0
    5d5c:	66 48 0f 6e da       	movq   %rdx,%xmm3
    5d61:	48 8d 90 c0 01 00 00 	lea    0x1c0(%rax),%rdx
    5d68:	0f 11 86 18 0a 00 00 	movups %xmm0,0xa18(%rsi)
    5d6f:	66 48 0f 6e c1       	movq   %rcx,%xmm0
    5d74:	48 8d 88 78 01 00 00 	lea    0x178(%rax),%rcx
    5d7b:	66 0f 6c c4          	punpcklqdq %xmm4,%xmm0
    5d7f:	66 48 0f 6e e2       	movq   %rdx,%xmm4
    5d84:	48 8d 90 d0 01 00 00 	lea    0x1d0(%rax),%rdx
    5d8b:	0f 11 86 28 0a 00 00 	movups %xmm0,0xa28(%rsi)
    5d92:	66 48 0f 6e c7       	movq   %rdi,%xmm0
    5d97:	48 8d b8 88 01 00 00 	lea    0x188(%rax),%rdi
    5d9e:	66 0f 6c c5          	punpcklqdq %xmm5,%xmm0
    5da2:	66 48 0f 6e ea       	movq   %rdx,%xmm5
    5da7:	48 8d 90 e0 01 00 00 	lea    0x1e0(%rax),%rdx
    5dae:	0f 11 86 38 0a 00 00 	movups %xmm0,0xa38(%rsi)
    5db5:	66 48 0f 6e c3       	movq   %rbx,%xmm0
    5dba:	48 8d 98 98 01 00 00 	lea    0x198(%rax),%rbx
    5dc1:	66 0f 6c c6          	punpcklqdq %xmm6,%xmm0
    5dc5:	66 48 0f 6e f2       	movq   %rdx,%xmm6
    5dca:	48 8d 90 f0 01 00 00 	lea    0x1f0(%rax),%rdx
    5dd1:	0f 11 86 48 0a 00 00 	movups %xmm0,0xa48(%rsi)
    5dd8:	66 48 0f 6e c1       	movq   %rcx,%xmm0
    5ddd:	48 8d 88 a8 01 00 00 	lea    0x1a8(%rax),%rcx
    5de4:	66 0f 6c c7          	punpcklqdq %xmm7,%xmm0
    5de8:	66 48 0f 6e fa       	movq   %rdx,%xmm7
    5ded:	48 8d 90 00 02 00 00 	lea    0x200(%rax),%rdx
    5df4:	0f 11 86 58 0a 00 00 	movups %xmm0,0xa58(%rsi)
    5dfb:	66 48 0f 6e c7       	movq   %rdi,%xmm0
    5e00:	48 8d b8 b8 01 00 00 	lea    0x1b8(%rax),%rdi
    5e07:	66 0f 6c c1          	punpcklqdq %xmm1,%xmm0
    5e0b:	66 48 0f 6e ca       	movq   %rdx,%xmm1
    5e10:	48 8d 90 10 02 00 00 	lea    0x210(%rax),%rdx
    5e17:	0f 11 86 68 0a 00 00 	movups %xmm0,0xa68(%rsi)
    5e1e:	66 48 0f 6e c3       	movq   %rbx,%xmm0
    5e23:	48 8d 98 c8 01 00 00 	lea    0x1c8(%rax),%rbx
    5e2a:	66 0f 6c c2          	punpcklqdq %xmm2,%xmm0
    5e2e:	66 48 0f 6e d2       	movq   %rdx,%xmm2
    5e33:	48 8d 90 20 02 00 00 	lea    0x220(%rax),%rdx
    5e3a:	0f 11 86 78 0a 00 00 	movups %xmm0,0xa78(%rsi)
    5e41:	66 48 0f 6e c1       	movq   %rcx,%xmm0
    5e46:	48 8d 88 d8 01 00 00 	lea    0x1d8(%rax),%rcx
    5e4d:	66 0f 6c c3          	punpcklqdq %xmm3,%xmm0
    5e51:	66 48 0f 6e da       	movq   %rdx,%xmm3
    5e56:	48 8d 90 30 02 00 00 	lea    0x230(%rax),%rdx
    5e5d:	0f 11 86 88 0a 00 00 	movups %xmm0,0xa88(%rsi)
    5e64:	66 48 0f 6e c7       	movq   %rdi,%xmm0
    5e69:	48 8d b8 e8 01 00 00 	lea    0x1e8(%rax),%rdi
    5e70:	66 0f 6c c4          	punpcklqdq %xmm4,%xmm0
    5e74:	66 48 0f 6e e2       	movq   %rdx,%xmm4
    5e79:	48 8d 15 88 31 01 00 	lea    0x13188(%rip),%rdx        # 19008 <__dso_handle>
    5e80:	0f 11 86 98 0a 00 00 	movups %xmm0,0xa98(%rsi)
    5e87:	66 48 0f 6e c3       	movq   %rbx,%xmm0
    5e8c:	48 8d 98 f8 01 00 00 	lea    0x1f8(%rax),%rbx
    5e93:	66 0f 6c c5          	punpcklqdq %xmm5,%xmm0
    5e97:	c6 86 28 0b 00 00 00 	movb   $0x0,0xb28(%rsi)
    5e9e:	0f 11 86 a8 0a 00 00 	movups %xmm0,0xaa8(%rsi)
    5ea5:	66 48 0f 6e c1       	movq   %rcx,%xmm0
    5eaa:	48 8d 88 08 02 00 00 	lea    0x208(%rax),%rcx
    5eb1:	66 0f 6c c6          	punpcklqdq %xmm6,%xmm0
    5eb5:	48 c7 86 18 0b 00 00 	movq   $0x0,0xb18(%rsi)
    5ebc:	00 00 00 00 
    5ec0:	0f 11 86 b8 0a 00 00 	movups %xmm0,0xab8(%rsi)
    5ec7:	66 48 0f 6e c7       	movq   %rdi,%xmm0
    5ecc:	48 8d b8 18 02 00 00 	lea    0x218(%rax),%rdi
    5ed3:	48 05 28 02 00 00    	add    $0x228,%rax
    5ed9:	66 0f 6c c7          	punpcklqdq %xmm7,%xmm0
    5edd:	48 c7 86 20 0b 00 00 	movq   $0x0,0xb20(%rsi)
    5ee4:	00 00 00 00 
    5ee8:	0f 11 86 c8 0a 00 00 	movups %xmm0,0xac8(%rsi)
    5eef:	66 48 0f 6e c3       	movq   %rbx,%xmm0
    5ef4:	48 8d 9e 30 05 00 00 	lea    0x530(%rsi),%rbx
    5efb:	66 0f 6c c1          	punpcklqdq %xmm1,%xmm0
    5eff:	c6 86 48 0b 00 00 00 	movb   $0x0,0xb48(%rsi)
    5f06:	0f 11 86 d8 0a 00 00 	movups %xmm0,0xad8(%rsi)
    5f0d:	66 48 0f 6e c1       	movq   %rcx,%xmm0
    5f12:	48 8d 8e 50 05 00 00 	lea    0x550(%rsi),%rcx
    5f19:	66 0f 6c c2          	punpcklqdq %xmm2,%xmm0
    5f1d:	48 89 b6 90 00 00 00 	mov    %rsi,0x90(%rsi)
    5f24:	0f 11 86 e8 0a 00 00 	movups %xmm0,0xae8(%rsi)
    5f2b:	66 48 0f 6e c7       	movq   %rdi,%xmm0
    5f30:	48 8d be 38 05 00 00 	lea    0x538(%rsi),%rdi
    5f37:	c7 86 40 0b 00 00 04 	movl   $0x4,0xb40(%rsi)
    5f3e:	00 00 00 
    5f41:	66 0f 6c c3          	punpcklqdq %xmm3,%xmm0
    5f45:	0f 11 86 f8 0a 00 00 	movups %xmm0,0xaf8(%rsi)
    5f4c:	66 48 0f 6e c0       	movq   %rax,%xmm0
    5f51:	48 8d 05 40 2c 01 00 	lea    0x12c40(%rip),%rax        # 18b98 <_ZTV4Code>
    5f58:	c7 86 44 0b 00 00 05 	movl   $0x5,0xb44(%rsi)
    5f5f:	00 00 00 
    5f62:	66 0f 6c c4          	punpcklqdq %xmm4,%xmm0
    5f66:	0f 11 86 08 0b 00 00 	movups %xmm0,0xb08(%rsi)
    5f6d:	48 83 c0 10          	add    $0x10,%rax
    5f71:	66 0f 6f 05 97 f8 00 	movdqa 0xf897(%rip),%xmm0        # 15810 <_ZZN5Xbyak13CodeGenerator3nopEmbE6nopTbl+0x70>
    5f78:	00 
    5f79:	48 89 06             	mov    %rax,(%rsi)
    5f7c:	48 8d 86 28 05 00 00 	lea    0x528(%rsi),%rax
    5f83:	0f 11 86 30 0b 00 00 	movups %xmm0,0xb30(%rsi)
    5f8a:	66 48 0f 6e e8       	movq   %rax,%xmm5
    5f8f:	66 48 0f 6e c3       	movq   %rbx,%xmm0
    5f94:	48 8d 86 00 05 00 00 	lea    0x500(%rsi),%rax
    5f9b:	66 0f 6c c5          	punpcklqdq %xmm5,%xmm0
    5f9f:	66 48 0f 6e f0       	movq   %rax,%xmm6
    5fa4:	48 8d 86 40 05 00 00 	lea    0x540(%rsi),%rax
    5fab:	48 c7 86 b8 0b 00 00 	movq   $0x0,0xbb8(%rsi)
    5fb2:	00 00 00 00 
    5fb6:	0f 11 86 50 0b 00 00 	movups %xmm0,0xb50(%rsi)
    5fbd:	66 48 0f 6e c1       	movq   %rcx,%xmm0
    5fc2:	66 48 0f 6e f8       	movq   %rax,%xmm7
    5fc7:	48 8d 9e 48 05 00 00 	lea    0x548(%rsi),%rbx
    5fce:	66 0f 6c c6          	punpcklqdq %xmm6,%xmm0
    5fd2:	48 8d 86 10 05 00 00 	lea    0x510(%rsi),%rax
    5fd9:	48 8d 8e 20 05 00 00 	lea    0x520(%rsi),%rcx
    5fe0:	0f 11 86 60 0b 00 00 	movups %xmm0,0xb60(%rsi)
    5fe7:	66 48 0f 6e c7       	movq   %rdi,%xmm0
    5fec:	66 48 0f 6e c8       	movq   %rax,%xmm1
    5ff1:	48 8d 86 58 05 00 00 	lea    0x558(%rsi),%rax
    5ff8:	66 0f 6c c7          	punpcklqdq %xmm7,%xmm0
    5ffc:	66 48 0f 6e d0       	movq   %rax,%xmm2
    6001:	48 8d 86 68 05 00 00 	lea    0x568(%rsi),%rax
    6008:	0f 11 86 70 0b 00 00 	movups %xmm0,0xb70(%rsi)
    600f:	66 48 0f 6e c3       	movq   %rbx,%xmm0
    6014:	66 48 0f 6e d8       	movq   %rax,%xmm3
    6019:	48 8d be 60 05 00 00 	lea    0x560(%rsi),%rdi
    6020:	66 0f 6c c1          	punpcklqdq %xmm1,%xmm0
    6024:	48 8d 86 70 05 00 00 	lea    0x570(%rsi),%rax
    602b:	0f 11 86 80 0b 00 00 	movups %xmm0,0xb80(%rsi)
    6032:	66 48 0f 6e c1       	movq   %rcx,%xmm0
    6037:	b9 0b 00 00 00       	mov    $0xb,%ecx
    603c:	66 0f 6c c2          	punpcklqdq %xmm2,%xmm0
    6040:	48 89 86 b0 0b 00 00 	mov    %rax,0xbb0(%rsi)
    6047:	31 c0                	xor    %eax,%eax
    6049:	0f 11 86 90 0b 00 00 	movups %xmm0,0xb90(%rsi)
    6050:	66 48 0f 6e c7       	movq   %rdi,%xmm0
    6055:	48 8d be c0 0b 00 00 	lea    0xbc0(%rsi),%rdi
    605c:	f3 48 ab             	rep stos %rax,%es:(%rdi)
    605f:	66 0f 6c c3          	punpcklqdq %xmm3,%xmm0
    6063:	48 8d 3d d6 4d 00 00 	lea    0x4dd6(%rip),%rdi        # ae40 <_ZN4CodeD1Ev>
    606a:	0f 11 86 a0 0b 00 00 	movups %xmm0,0xba0(%rsi)
    6071:	48 83 c4 28          	add    $0x28,%rsp
    6075:	5b                   	pop    %rbx
    6076:	5d                   	pop    %rbp
    6077:	41 5c                	pop    %r12
    6079:	41 5d                	pop    %r13
    607b:	e9 60 d4 ff ff       	jmpq   34e0 <__cxa_atexit@plt>
    6080:	f3 0f 1e fa          	endbr64 
    6084:	e9 0a da ff ff       	jmpq   3a93 <_GLOBAL__sub_I_mcl.cpp.cold+0x39>
    6089:	f3 0f 1e fa          	endbr64 
    608d:	49 89 c4             	mov    %rax,%r12
    6090:	e9 68 da ff ff       	jmpq   3afd <_GLOBAL__sub_I_mcl.cpp.cold+0xa3>
    6095:	66 2e 0f 1f 84 00 00 	nopw   %cs:0x0(%rax,%rax,1)
    609c:	00 00 00 
    609f:	90                   	nop

00000000000060a0 <_start>:
    60a0:	f3 0f 1e fa          	endbr64 
    60a4:	31 ed                	xor    %ebp,%ebp
    60a6:	49 89 d1             	mov    %rdx,%r9
    60a9:	5e                   	pop    %rsi
    60aa:	48 89 e2             	mov    %rsp,%rdx
    60ad:	48 83 e4 f0          	and    $0xfffffffffffffff0,%rsp
    60b1:	50                   	push   %rax
    60b2:	54                   	push   %rsp
    60b3:	4c 8d 05 26 ed 00 00 	lea    0xed26(%rip),%r8        # 14de0 <__libc_csu_fini>
    60ba:	48 8d 0d af ec 00 00 	lea    0xecaf(%rip),%rcx        # 14d70 <__libc_csu_init>
    60c1:	48 8d 3d 58 dc ff ff 	lea    -0x23a8(%rip),%rdi        # 3d20 <main>
    60c8:	ff 15 12 2f 01 00    	callq  *0x12f12(%rip)        # 18fe0 <__libc_start_main@GLIBC_2.2.5>
    60ce:	f4                   	hlt    
    60cf:	90                   	nop

00000000000060d0 <deregister_tm_clones>:
    60d0:	48 8d 3d e9 30 01 00 	lea    0x130e9(%rip),%rdi        # 191c0 <__TMC_END__>
    60d7:	48 8d 05 e2 30 01 00 	lea    0x130e2(%rip),%rax        # 191c0 <__TMC_END__>
    60de:	48 39 f8             	cmp    %rdi,%rax
    60e1:	74 15                	je     60f8 <deregister_tm_clones+0x28>
    60e3:	48 8b 05 ee 2e 01 00 	mov    0x12eee(%rip),%rax        # 18fd8 <_ITM_deregisterTMCloneTable>
    60ea:	48 85 c0             	test   %rax,%rax
    60ed:	74 09                	je     60f8 <deregister_tm_clones+0x28>
    60ef:	ff e0                	jmpq   *%rax
    60f1:	0f 1f 80 00 00 00 00 	nopl   0x0(%rax)
    60f8:	c3                   	retq   
    60f9:	0f 1f 80 00 00 00 00 	nopl   0x0(%rax)

0000000000006100 <register_tm_clones>:
    6100:	48 8d 3d b9 30 01 00 	lea    0x130b9(%rip),%rdi        # 191c0 <__TMC_END__>
    6107:	48 8d 35 b2 30 01 00 	lea    0x130b2(%rip),%rsi        # 191c0 <__TMC_END__>
    610e:	48 29 fe             	sub    %rdi,%rsi
    6111:	48 89 f0             	mov    %rsi,%rax
    6114:	48 c1 ee 3f          	shr    $0x3f,%rsi
    6118:	48 c1 f8 03          	sar    $0x3,%rax
    611c:	48 01 c6             	add    %rax,%rsi
    611f:	48 d1 fe             	sar    %rsi
    6122:	74 14                	je     6138 <register_tm_clones+0x38>
    6124:	48 8b 05 c5 2e 01 00 	mov    0x12ec5(%rip),%rax        # 18ff0 <_ITM_registerTMCloneTable>
    612b:	48 85 c0             	test   %rax,%rax
    612e:	74 08                	je     6138 <register_tm_clones+0x38>
    6130:	ff e0                	jmpq   *%rax
    6132:	66 0f 1f 44 00 00    	nopw   0x0(%rax,%rax,1)
    6138:	c3                   	retq   
    6139:	0f 1f 80 00 00 00 00 	nopl   0x0(%rax)

0000000000006140 <__do_global_dtors_aux>:
    6140:	f3 0f 1e fa          	endbr64 
    6144:	80 3d 75 30 01 00 00 	cmpb   $0x0,0x13075(%rip)        # 191c0 <__TMC_END__>
    614b:	75 2b                	jne    6178 <__do_global_dtors_aux+0x38>
    614d:	55                   	push   %rbp
    614e:	48 83 3d 5a 2e 01 00 	cmpq   $0x0,0x12e5a(%rip)        # 18fb0 <__cxa_finalize@GLIBC_2.2.5>
    6155:	00 
    6156:	48 89 e5             	mov    %rsp,%rbp
    6159:	74 0c                	je     6167 <__do_global_dtors_aux+0x27>
    615b:	48 8b 3d a6 2e 01 00 	mov    0x12ea6(%rip),%rdi        # 19008 <__dso_handle>
    6162:	e8 29 d2 ff ff       	callq  3390 <__cxa_finalize@plt>
    6167:	e8 64 ff ff ff       	callq  60d0 <deregister_tm_clones>
    616c:	c6 05 4d 30 01 00 01 	movb   $0x1,0x1304d(%rip)        # 191c0 <__TMC_END__>
    6173:	5d                   	pop    %rbp
    6174:	c3                   	retq   
    6175:	0f 1f 00             	nopl   (%rax)
    6178:	c3                   	retq   
    6179:	0f 1f 80 00 00 00 00 	nopl   0x0(%rax)

0000000000006180 <frame_dummy>:
    6180:	f3 0f 1e fa          	endbr64 
    6184:	e9 77 ff ff ff       	jmpq   6100 <register_tm_clones>
    6189:	0f 1f 80 00 00 00 00 	nopl   0x0(%rax)

0000000000006190 <_Z10gmp_mulPrePmPKmS1_>:
    6190:	f3 0f 1e fa          	endbr64 
    6194:	b9 0b 00 00 00       	mov    $0xb,%ecx
    6199:	e9 52 d3 ff ff       	jmpq   34f0 <__gmpn_mul_n@plt>
    619e:	66 90                	xchg   %ax,%ax

00000000000061a0 <_Z18cybozu_test_mulPrev>:
    61a0:	f3 0f 1e fa          	endbr64 
    61a4:	41 57                	push   %r15
    61a6:	41 56                	push   %r14
    61a8:	41 55                	push   %r13
    61aa:	41 54                	push   %r12
    61ac:	55                   	push   %rbp
    61ad:	53                   	push   %rbx
    61ae:	48 81 ec a8 02 00 00 	sub    $0x2a8,%rsp
    61b5:	e8 c6 10 00 00       	callq  7280 <mcl_init>
    61ba:	45 31 c0             	xor    %r8d,%r8d
    61bd:	b9 33 13 49 05       	mov    $0x5491333,%ecx
    61c2:	ba b5 3b 12 1f       	mov    $0x1f123bb5,%edx
    61c7:	bf e5 55 9a 15       	mov    $0x159a55e5,%edi
    61cc:	b8 15 cd 5b 07       	mov    $0x75bcd15,%eax
    61d1:	48 8d ac 24 80 00 00 	lea    0x80(%rsp),%rbp
    61d8:	00 
    61d9:	48 8d 9c 24 e0 00 00 	lea    0xe0(%rsp),%rbx
    61e0:	00 
    61e1:	0f 1f 80 00 00 00 00 	nopl   0x0(%rax)
    61e8:	89 c6                	mov    %eax,%esi
    61ea:	c1 e6 0b             	shl    $0xb,%esi
    61ed:	31 f0                	xor    %esi,%eax
    61ef:	89 ce                	mov    %ecx,%esi
    61f1:	c1 ee 13             	shr    $0x13,%esi
    61f4:	31 ce                	xor    %ecx,%esi
    61f6:	31 c6                	xor    %eax,%esi
    61f8:	c1 e8 08             	shr    $0x8,%eax
    61fb:	31 f0                	xor    %esi,%eax
    61fd:	89 fe                	mov    %edi,%esi
    61ff:	c1 e6 0b             	shl    $0xb,%esi
    6202:	31 fe                	xor    %edi,%esi
    6204:	89 f7                	mov    %esi,%edi
    6206:	c1 ef 08             	shr    $0x8,%edi
    6209:	31 f7                	xor    %esi,%edi
    620b:	89 c6                	mov    %eax,%esi
    620d:	c1 ee 13             	shr    $0x13,%esi
    6210:	31 c7                	xor    %eax,%edi
    6212:	31 f7                	xor    %esi,%edi
    6214:	48 89 c6             	mov    %rax,%rsi
    6217:	48 c1 e6 20          	shl    $0x20,%rsi
    621b:	41 89 f9             	mov    %edi,%r9d
    621e:	4c 09 ce             	or     %r9,%rsi
    6221:	4a 89 74 05 00       	mov    %rsi,0x0(%rbp,%r8,1)
    6226:	89 d6                	mov    %edx,%esi
    6228:	c1 e6 0b             	shl    $0xb,%esi
    622b:	31 d6                	xor    %edx,%esi
    622d:	89 f2                	mov    %esi,%edx
    622f:	c1 ea 08             	shr    $0x8,%edx
    6232:	31 f2                	xor    %esi,%edx
    6234:	89 fe                	mov    %edi,%esi
    6236:	c1 ee 13             	shr    $0x13,%esi
    6239:	31 fa                	xor    %edi,%edx
    623b:	31 f2                	xor    %esi,%edx
    623d:	89 ce                	mov    %ecx,%esi
    623f:	c1 e6 0b             	shl    $0xb,%esi
    6242:	31 ce                	xor    %ecx,%esi
    6244:	89 f1                	mov    %esi,%ecx
    6246:	c1 e9 08             	shr    $0x8,%ecx
    6249:	31 f1                	xor    %esi,%ecx
    624b:	89 d6                	mov    %edx,%esi
    624d:	c1 ee 13             	shr    $0x13,%esi
    6250:	31 d1                	xor    %edx,%ecx
    6252:	31 f1                	xor    %esi,%ecx
    6254:	48 89 d6             	mov    %rdx,%rsi
    6257:	48 c1 e6 20          	shl    $0x20,%rsi
    625b:	41 89 c9             	mov    %ecx,%r9d
    625e:	4c 09 ce             	or     %r9,%rsi
    6261:	4a 89 34 03          	mov    %rsi,(%rbx,%r8,1)
    6265:	49 83 c0 08          	add    $0x8,%r8
    6269:	49 83 f8 58          	cmp    $0x58,%r8
    626d:	0f 85 75 ff ff ff    	jne    61e8 <_Z18cybozu_test_mulPrev+0x48>
    6273:	48 8d 3d d1 ee 00 00 	lea    0xeed1(%rip),%rdi        # 1514b <_IO_stdin_used+0x14b>
    627a:	4c 8d b4 24 40 01 00 	lea    0x140(%rsp),%r14
    6281:	00 
    6282:	45 31 e4             	xor    %r12d,%r12d
    6285:	e8 86 d3 ff ff       	callq  3610 <puts@plt>
    628a:	48 89 da             	mov    %rbx,%rdx
    628d:	48 89 ee             	mov    %rbp,%rsi
    6290:	4c 89 f7             	mov    %r14,%rdi
    6293:	48 8d 05 c6 3b 01 00 	lea    0x13bc6(%rip),%rax        # 19e60 <mcl_mulPre>
    629a:	4c 8d ac 24 f0 01 00 	lea    0x1f0(%rsp),%r13
    62a1:	00 
    62a2:	ff 10                	callq  *(%rax)
    62a4:	48 89 da             	mov    %rbx,%rdx
    62a7:	48 89 ee             	mov    %rbp,%rsi
    62aa:	4c 89 ef             	mov    %r13,%rdi
    62ad:	e8 de fe ff ff       	callq  6190 <_Z10gmp_mulPrePmPKmS1_>
    62b2:	48 8d 44 24 70       	lea    0x70(%rsp),%rax
    62b7:	48 89 44 24 10       	mov    %rax,0x10(%rsp)
    62bc:	48 8d 44 24 40       	lea    0x40(%rsp),%rax
    62c1:	48 89 44 24 20       	mov    %rax,0x20(%rsp)
    62c6:	48 8d 44 24 50       	lea    0x50(%rsp),%rax
    62cb:	48 89 44 24 08       	mov    %rax,0x8(%rsp)
    62d0:	48 8d 44 24 38       	lea    0x38(%rsp),%rax
    62d5:	48 89 44 24 18       	mov    %rax,0x18(%rsp)
    62da:	e9 51 01 00 00       	jmpq   6430 <_Z18cybozu_test_mulPrev+0x290>
    62df:	90                   	nop
    62e0:	83 40 10 01          	addl   $0x1,0x10(%rax)
    62e4:	48 8b 7c 24 40       	mov    0x40(%rsp),%rdi
    62e9:	48 3b 7c 24 08       	cmp    0x8(%rsp),%rdi
    62ee:	74 05                	je     62f5 <_Z18cybozu_test_mulPrev+0x155>
    62f0:	e8 0b d2 ff ff       	callq  3500 <_ZdlPv@plt>
    62f5:	48 8b 7c 24 60       	mov    0x60(%rsp),%rdi
    62fa:	48 3b 7c 24 10       	cmp    0x10(%rsp),%rdi
    62ff:	74 05                	je     6306 <_Z18cybozu_test_mulPrev+0x166>
    6301:	e8 fa d1 ff ff       	callq  3500 <_ZdlPv@plt>
    6306:	4c 3b 3c 24          	cmp    (%rsp),%r15
    630a:	0f 84 12 01 00 00    	je     6422 <_Z18cybozu_test_mulPrev+0x282>
    6310:	4c 8b 3d a9 2c 01 00 	mov    0x12ca9(%rip),%r15        # 18fc0 <_ZSt4cout@GLIBCXX_3.4>
    6317:	ba 0a 00 00 00       	mov    $0xa,%edx
    631c:	48 8d 35 49 ee 00 00 	lea    0xee49(%rip),%rsi        # 1516c <_IO_stdin_used+0x16c>
    6323:	4c 89 ff             	mov    %r15,%rdi
    6326:	e8 15 d2 ff ff       	callq  3540 <_ZSt16__ostream_insertIcSt11char_traitsIcEERSt13basic_ostreamIT_T0_ES6_PKS3_l@plt>
    632b:	4c 89 ff             	mov    %r15,%rdi
    632e:	4c 89 e6             	mov    %r12,%rsi
    6331:	e8 4a d1 ff ff       	callq  3480 <_ZNSo9_M_insertImEERSoT_@plt>
    6336:	49 89 c0             	mov    %rax,%r8
    6339:	48 8b 00             	mov    (%rax),%rax
    633c:	48 8b 40 e8          	mov    -0x18(%rax),%rax
    6340:	49 8b bc 00 f0 00 00 	mov    0xf0(%r8,%rax,1),%rdi
    6347:	00 
    6348:	48 85 ff             	test   %rdi,%rdi
    634b:	0f 84 d2 04 00 00    	je     6823 <_Z18cybozu_test_mulPrev+0x683>
    6351:	80 7f 38 00          	cmpb   $0x0,0x38(%rdi)
    6355:	0f 84 0d 02 00 00    	je     6568 <_Z18cybozu_test_mulPrev+0x3c8>
    635b:	0f be 77 43          	movsbl 0x43(%rdi),%esi
    635f:	4c 89 c7             	mov    %r8,%rdi
    6362:	e8 49 d0 ff ff       	callq  33b0 <_ZNSo3putEc@plt>
    6367:	48 89 c7             	mov    %rax,%rdi
    636a:	e8 21 d1 ff ff       	callq  3490 <_ZNSo5flushEv@plt>
    636f:	ba 0c 00 00 00       	mov    $0xc,%edx
    6374:	48 8d 35 fc ed 00 00 	lea    0xedfc(%rip),%rsi        # 15177 <_IO_stdin_used+0x177>
    637b:	4c 89 ff             	mov    %r15,%rdi
    637e:	e8 bd d1 ff ff       	callq  3540 <_ZSt16__ostream_insertIcSt11char_traitsIcEERSt13basic_ostreamIT_T0_ES6_PKS3_l@plt>
    6383:	4b 8b 34 e6          	mov    (%r14,%r12,8),%rsi
    6387:	4c 89 ff             	mov    %r15,%rdi
    638a:	e8 f1 d0 ff ff       	callq  3480 <_ZNSo9_M_insertImEERSoT_@plt>
    638f:	49 89 c0             	mov    %rax,%r8
    6392:	48 8b 00             	mov    (%rax),%rax
    6395:	48 8b 40 e8          	mov    -0x18(%rax),%rax
    6399:	49 8b bc 00 f0 00 00 	mov    0xf0(%r8,%rax,1),%rdi
    63a0:	00 
    63a1:	48 85 ff             	test   %rdi,%rdi
    63a4:	0f 84 79 04 00 00    	je     6823 <_Z18cybozu_test_mulPrev+0x683>
    63aa:	80 7f 38 00          	cmpb   $0x0,0x38(%rdi)
    63ae:	0f 84 6c 01 00 00    	je     6520 <_Z18cybozu_test_mulPrev+0x380>
    63b4:	0f be 77 43          	movsbl 0x43(%rdi),%esi
    63b8:	4c 89 c7             	mov    %r8,%rdi
    63bb:	e8 f0 cf ff ff       	callq  33b0 <_ZNSo3putEc@plt>
    63c0:	48 89 c7             	mov    %rax,%rdi
    63c3:	e8 c8 d0 ff ff       	callq  3490 <_ZNSo5flushEv@plt>
    63c8:	4c 89 ff             	mov    %r15,%rdi
    63cb:	ba 0c 00 00 00       	mov    $0xc,%edx
    63d0:	48 8d 35 ad ed 00 00 	lea    0xedad(%rip),%rsi        # 15184 <_IO_stdin_used+0x184>
    63d7:	e8 64 d1 ff ff       	callq  3540 <_ZSt16__ostream_insertIcSt11char_traitsIcEERSt13basic_ostreamIT_T0_ES6_PKS3_l@plt>
    63dc:	4b 8b 74 e5 00       	mov    0x0(%r13,%r12,8),%rsi
    63e1:	4c 89 ff             	mov    %r15,%rdi
    63e4:	e8 97 d0 ff ff       	callq  3480 <_ZNSo9_M_insertImEERSoT_@plt>
    63e9:	49 89 c7             	mov    %rax,%r15
    63ec:	48 8b 00             	mov    (%rax),%rax
    63ef:	48 8b 40 e8          	mov    -0x18(%rax),%rax
    63f3:	49 8b bc 07 f0 00 00 	mov    0xf0(%r15,%rax,1),%rdi
    63fa:	00 
    63fb:	48 85 ff             	test   %rdi,%rdi
    63fe:	0f 84 1f 04 00 00    	je     6823 <_Z18cybozu_test_mulPrev+0x683>
    6404:	80 7f 38 00          	cmpb   $0x0,0x38(%rdi)
    6408:	0f 84 a2 01 00 00    	je     65b0 <_Z18cybozu_test_mulPrev+0x410>
    640e:	0f be 77 43          	movsbl 0x43(%rdi),%esi
    6412:	4c 89 ff             	mov    %r15,%rdi
    6415:	e8 96 cf ff ff       	callq  33b0 <_ZNSo3putEc@plt>
    641a:	48 89 c7             	mov    %rax,%rdi
    641d:	e8 6e d0 ff ff       	callq  3490 <_ZNSo5flushEv@plt>
    6422:	49 83 c4 01          	add    $0x1,%r12
    6426:	49 83 fc 16          	cmp    $0x16,%r12
    642a:	0f 84 b0 01 00 00    	je     65e0 <_Z18cybozu_test_mulPrev+0x440>
    6430:	4b 8b 44 e5 00       	mov    0x0(%r13,%r12,8),%rax
    6435:	b9 2a 20 00 00       	mov    $0x202a,%ecx
    643a:	48 8b 74 24 18       	mov    0x18(%rsp),%rsi
    643f:	48 ba 78 79 31 2c 20 	movabs $0x327978202c317978,%rdx
    6446:	78 79 32 
    6449:	48 8b 7c 24 20       	mov    0x20(%rsp),%rdi
    644e:	4f 8b 3c e6          	mov    (%r14,%r12,8),%r15
    6452:	48 c7 44 24 68 0f 00 	movq   $0xf,0x68(%rsp)
    6459:	00 00 
    645b:	48 89 04 24          	mov    %rax,(%rsp)
    645f:	48 8b 44 24 10       	mov    0x10(%rsp),%rax
    6464:	48 c7 44 24 38 17 00 	movq   $0x17,0x38(%rsp)
    646b:	00 00 
    646d:	48 89 10             	mov    %rdx,(%rax)
    6470:	48 8b 54 24 08       	mov    0x8(%rsp),%rdx
    6475:	c7 40 08 2c 20 4e 20 	movl   $0x204e202c,0x8(%rax)
    647c:	66 89 48 0c          	mov    %cx,0xc(%rax)
    6480:	c6 40 0e 32          	movb   $0x32,0xe(%rax)
    6484:	48 89 54 24 40       	mov    %rdx,0x40(%rsp)
    6489:	31 d2                	xor    %edx,%edx
    648b:	48 89 44 24 60       	mov    %rax,0x60(%rsp)
    6490:	c6 44 24 7f 00       	movb   $0x0,0x7f(%rsp)
    6495:	e8 06 d2 ff ff       	callq  36a0 <_ZNSt7__cxx1112basic_stringIcSt11char_traitsIcESaIcEE9_M_createERmm@plt>
    649a:	48 8b 54 24 38       	mov    0x38(%rsp),%rdx
    649f:	66 0f 6f 05 49 ed 00 	movdqa 0xed49(%rip),%xmm0        # 151f0 <_IO_stdin_used+0x1f0>
    64a6:	00 
    64a7:	48 89 44 24 40       	mov    %rax,0x40(%rsp)
    64ac:	48 89 54 24 50       	mov    %rdx,0x50(%rsp)
    64b1:	ba 52 41 00 00       	mov    $0x4152,%edx
    64b6:	0f 11 00             	movups %xmm0,(%rax)
    64b9:	66 89 50 14          	mov    %dx,0x14(%rax)
    64bd:	48 8b 54 24 40       	mov    0x40(%rsp),%rdx
    64c2:	c7 40 10 4c 5f 41 52 	movl   $0x52415f4c,0x10(%rax)
    64c9:	c6 40 16 59          	movb   $0x59,0x16(%rax)
    64cd:	48 8b 44 24 38       	mov    0x38(%rsp),%rax
    64d2:	48 89 44 24 48       	mov    %rax,0x48(%rsp)
    64d7:	c6 04 02 00          	movb   $0x0,(%rdx,%rax,1)
    64db:	48 8b 05 ee 2c 01 00 	mov    0x12cee(%rip),%rax        # 191d0 <_ZN6cybozu4testL7autoRunE>
    64e2:	4c 3b 3c 24          	cmp    (%rsp),%r15
    64e6:	0f 84 f4 fd ff ff    	je     62e0 <_Z18cybozu_test_mulPrev+0x140>
    64ec:	83 40 14 01          	addl   $0x1,0x14(%rax)
    64f0:	4c 8b 4c 24 60       	mov    0x60(%rsp),%r9
    64f5:	31 c0                	xor    %eax,%eax
    64f7:	b9 1a 00 00 00       	mov    $0x1a,%ecx
    64fc:	4c 8b 44 24 40       	mov    0x40(%rsp),%r8
    6501:	48 8d 15 45 ec 00 00 	lea    0xec45(%rip),%rdx        # 1514d <_IO_stdin_used+0x14d>
    6508:	bf 01 00 00 00       	mov    $0x1,%edi
    650d:	48 8d 35 42 ec 00 00 	lea    0xec42(%rip),%rsi        # 15156 <_IO_stdin_used+0x156>
    6514:	e8 87 ce ff ff       	callq  33a0 <__printf_chk@plt>
    6519:	e9 c6 fd ff ff       	jmpq   62e4 <_Z18cybozu_test_mulPrev+0x144>
    651e:	66 90                	xchg   %ax,%ax
    6520:	4c 89 44 24 28       	mov    %r8,0x28(%rsp)
    6525:	48 89 3c 24          	mov    %rdi,(%rsp)
    6529:	e8 22 d0 ff ff       	callq  3550 <_ZNKSt5ctypeIcE13_M_widen_initEv@plt>
    652e:	48 8b 3c 24          	mov    (%rsp),%rdi
    6532:	4c 8b 44 24 28       	mov    0x28(%rsp),%r8
    6537:	be 0a 00 00 00       	mov    $0xa,%esi
    653c:	48 8b 07             	mov    (%rdi),%rax
    653f:	48 8b 40 30          	mov    0x30(%rax),%rax
    6543:	48 3b 05 6e 2a 01 00 	cmp    0x12a6e(%rip),%rax        # 18fb8 <_GLOBAL_OFFSET_TABLE_+0x1e0>
    654a:	0f 84 68 fe ff ff    	je     63b8 <_Z18cybozu_test_mulPrev+0x218>
    6550:	4c 89 04 24          	mov    %r8,(%rsp)
    6554:	ff d0                	callq  *%rax
    6556:	4c 8b 04 24          	mov    (%rsp),%r8
    655a:	0f be f0             	movsbl %al,%esi
    655d:	e9 56 fe ff ff       	jmpq   63b8 <_Z18cybozu_test_mulPrev+0x218>
    6562:	66 0f 1f 44 00 00    	nopw   0x0(%rax,%rax,1)
    6568:	4c 89 44 24 28       	mov    %r8,0x28(%rsp)
    656d:	48 89 3c 24          	mov    %rdi,(%rsp)
    6571:	e8 da cf ff ff       	callq  3550 <_ZNKSt5ctypeIcE13_M_widen_initEv@plt>
    6576:	48 8b 3c 24          	mov    (%rsp),%rdi
    657a:	4c 8b 44 24 28       	mov    0x28(%rsp),%r8
    657f:	be 0a 00 00 00       	mov    $0xa,%esi
    6584:	48 8b 07             	mov    (%rdi),%rax
    6587:	48 8b 40 30          	mov    0x30(%rax),%rax
    658b:	48 3b 05 26 2a 01 00 	cmp    0x12a26(%rip),%rax        # 18fb8 <_GLOBAL_OFFSET_TABLE_+0x1e0>
    6592:	0f 84 c7 fd ff ff    	je     635f <_Z18cybozu_test_mulPrev+0x1bf>
    6598:	4c 89 04 24          	mov    %r8,(%rsp)
    659c:	ff d0                	callq  *%rax
    659e:	4c 8b 04 24          	mov    (%rsp),%r8
    65a2:	0f be f0             	movsbl %al,%esi
    65a5:	e9 b5 fd ff ff       	jmpq   635f <_Z18cybozu_test_mulPrev+0x1bf>
    65aa:	66 0f 1f 44 00 00    	nopw   0x0(%rax,%rax,1)
    65b0:	48 89 3c 24          	mov    %rdi,(%rsp)
    65b4:	e8 97 cf ff ff       	callq  3550 <_ZNKSt5ctypeIcE13_M_widen_initEv@plt>
    65b9:	48 8b 3c 24          	mov    (%rsp),%rdi
    65bd:	be 0a 00 00 00       	mov    $0xa,%esi
    65c2:	48 8b 07             	mov    (%rdi),%rax
    65c5:	48 8b 40 30          	mov    0x30(%rax),%rax
    65c9:	48 3b 05 e8 29 01 00 	cmp    0x129e8(%rip),%rax        # 18fb8 <_GLOBAL_OFFSET_TABLE_+0x1e0>
    65d0:	0f 84 3c fe ff ff    	je     6412 <_Z18cybozu_test_mulPrev+0x272>
    65d6:	ff d0                	callq  *%rax
    65d8:	0f be f0             	movsbl %al,%esi
    65db:	e9 32 fe ff ff       	jmpq   6412 <_Z18cybozu_test_mulPrev+0x272>
    65e0:	0f 31                	rdtsc  
    65e2:	48 c1 e2 20          	shl    $0x20,%rdx
    65e6:	41 89 c7             	mov    %eax,%r15d
    65e9:	41 bc a0 86 01 00    	mov    $0x186a0,%r12d
    65ef:	49 09 d7             	or     %rdx,%r15
    65f2:	66 0f 1f 44 00 00    	nopw   0x0(%rax,%rax,1)
    65f8:	48 8d 05 61 38 01 00 	lea    0x13861(%rip),%rax        # 19e60 <mcl_mulPre>
    65ff:	48 89 da             	mov    %rbx,%rdx
    6602:	48 89 ee             	mov    %rbp,%rsi
    6605:	4c 89 f7             	mov    %r14,%rdi
    6608:	ff 10                	callq  *(%rax)
    660a:	41 83 ec 01          	sub    $0x1,%r12d
    660e:	75 e8                	jne    65f8 <_Z18cybozu_test_mulPrev+0x458>
    6610:	0f 31                	rdtsc  
    6612:	48 c1 e2 20          	shl    $0x20,%rdx
    6616:	89 c0                	mov    %eax,%eax
    6618:	48 09 c2             	or     %rax,%rdx
    661b:	4c 29 fa             	sub    %r15,%rdx
    661e:	0f 88 3f 01 00 00    	js     6763 <_Z18cybozu_test_mulPrev+0x5c3>
    6624:	66 0f ef c0          	pxor   %xmm0,%xmm0
    6628:	f2 48 0f 2a c2       	cvtsi2sd %rdx,%xmm0
    662d:	31 c0                	xor    %eax,%eax
    662f:	48 8d 15 5b eb 00 00 	lea    0xeb5b(%rip),%rdx        # 15191 <_IO_stdin_used+0x191>
    6636:	48 8d 35 58 eb 00 00 	lea    0xeb58(%rip),%rsi        # 15195 <_IO_stdin_used+0x195>
    663d:	bf 01 00 00 00       	mov    $0x1,%edi
    6642:	f2 0f 5e 05 7e eb 00 	divsd  0xeb7e(%rip),%xmm0        # 151c8 <_IO_stdin_used+0x1c8>
    6649:	00 
    664a:	f2 0f 11 04 24       	movsd  %xmm0,(%rsp)
    664f:	e8 4c cd ff ff       	callq  33a0 <__printf_chk@plt>
    6654:	f2 0f 10 04 24       	movsd  (%rsp),%xmm0
    6659:	66 0f 2f 05 6f eb 00 	comisd 0xeb6f(%rip),%xmm0        # 151d0 <_IO_stdin_used+0x1d0>
    6660:	00 
    6661:	0f 87 7e 01 00 00    	ja     67e5 <_Z18cybozu_test_mulPrev+0x645>
    6667:	66 0f 2f 05 71 eb 00 	comisd 0xeb71(%rip),%xmm0        # 151e0 <_IO_stdin_used+0x1e0>
    666e:	00 
    666f:	0f 87 0c 01 00 00    	ja     6781 <_Z18cybozu_test_mulPrev+0x5e1>
    6675:	48 8d 35 31 eb 00 00 	lea    0xeb31(%rip),%rsi        # 151ad <_IO_stdin_used+0x1ad>
    667c:	bf 01 00 00 00       	mov    $0x1,%edi
    6681:	b8 01 00 00 00       	mov    $0x1,%eax
    6686:	e8 15 cd ff ff       	callq  33a0 <__printf_chk@plt>
    668b:	bf 0a 00 00 00       	mov    $0xa,%edi
    6690:	e8 3b cf ff ff       	callq  35d0 <putchar@plt>
    6695:	0f 31                	rdtsc  
    6697:	48 c1 e2 20          	shl    $0x20,%rdx
    669b:	89 c0                	mov    %eax,%eax
    669d:	41 bc a0 86 01 00    	mov    $0x186a0,%r12d
    66a3:	48 09 c2             	or     %rax,%rdx
    66a6:	49 89 d6             	mov    %rdx,%r14
    66a9:	0f 1f 80 00 00 00 00 	nopl   0x0(%rax)
    66b0:	48 89 da             	mov    %rbx,%rdx
    66b3:	48 89 ee             	mov    %rbp,%rsi
    66b6:	4c 89 ef             	mov    %r13,%rdi
    66b9:	e8 d2 fa ff ff       	callq  6190 <_Z10gmp_mulPrePmPKmS1_>
    66be:	41 83 ec 01          	sub    $0x1,%r12d
    66c2:	75 ec                	jne    66b0 <_Z18cybozu_test_mulPrev+0x510>
    66c4:	0f 31                	rdtsc  
    66c6:	48 c1 e2 20          	shl    $0x20,%rdx
    66ca:	89 c0                	mov    %eax,%eax
    66cc:	48 09 c2             	or     %rax,%rdx
    66cf:	4c 29 f2             	sub    %r14,%rdx
    66d2:	0f 88 cc 00 00 00    	js     67a4 <_Z18cybozu_test_mulPrev+0x604>
    66d8:	66 0f ef c0          	pxor   %xmm0,%xmm0
    66dc:	f2 48 0f 2a c2       	cvtsi2sd %rdx,%xmm0
    66e1:	31 c0                	xor    %eax,%eax
    66e3:	48 8d 15 cd ea 00 00 	lea    0xeacd(%rip),%rdx        # 151b7 <_IO_stdin_used+0x1b7>
    66ea:	48 8d 35 a4 ea 00 00 	lea    0xeaa4(%rip),%rsi        # 15195 <_IO_stdin_used+0x195>
    66f1:	bf 01 00 00 00       	mov    $0x1,%edi
    66f6:	f2 0f 5e 05 ca ea 00 	divsd  0xeaca(%rip),%xmm0        # 151c8 <_IO_stdin_used+0x1c8>
    66fd:	00 
    66fe:	f2 0f 11 04 24       	movsd  %xmm0,(%rsp)
    6703:	e8 98 cc ff ff       	callq  33a0 <__printf_chk@plt>
    6708:	f2 0f 10 04 24       	movsd  (%rsp),%xmm0
    670d:	66 0f 2f 05 bb ea 00 	comisd 0xeabb(%rip),%xmm0        # 151d0 <_IO_stdin_used+0x1d0>
    6714:	00 
    6715:	0f 87 a7 00 00 00    	ja     67c2 <_Z18cybozu_test_mulPrev+0x622>
    671b:	66 0f 2f 05 bd ea 00 	comisd 0xeabd(%rip),%xmm0        # 151e0 <_IO_stdin_used+0x1e0>
    6722:	00 
    6723:	0f 86 df 00 00 00    	jbe    6808 <_Z18cybozu_test_mulPrev+0x668>
    6729:	f2 0f 59 05 b7 ea 00 	mulsd  0xeab7(%rip),%xmm0        # 151e8 <_IO_stdin_used+0x1e8>
    6730:	00 
    6731:	bf 01 00 00 00       	mov    $0x1,%edi
    6736:	b8 01 00 00 00       	mov    $0x1,%eax
    673b:	48 8d 35 61 ea 00 00 	lea    0xea61(%rip),%rsi        # 151a3 <_IO_stdin_used+0x1a3>
    6742:	e8 59 cc ff ff       	callq  33a0 <__printf_chk@plt>
    6747:	bf 0a 00 00 00       	mov    $0xa,%edi
    674c:	e8 7f ce ff ff       	callq  35d0 <putchar@plt>
    6751:	48 81 c4 a8 02 00 00 	add    $0x2a8,%rsp
    6758:	5b                   	pop    %rbx
    6759:	5d                   	pop    %rbp
    675a:	41 5c                	pop    %r12
    675c:	41 5d                	pop    %r13
    675e:	41 5e                	pop    %r14
    6760:	41 5f                	pop    %r15
    6762:	c3                   	retq   
    6763:	48 89 d0             	mov    %rdx,%rax
    6766:	83 e2 01             	and    $0x1,%edx
    6769:	66 0f ef c0          	pxor   %xmm0,%xmm0
    676d:	48 d1 e8             	shr    %rax
    6770:	48 09 d0             	or     %rdx,%rax
    6773:	f2 48 0f 2a c0       	cvtsi2sd %rax,%xmm0
    6778:	f2 0f 58 c0          	addsd  %xmm0,%xmm0
    677c:	e9 ac fe ff ff       	jmpq   662d <_Z18cybozu_test_mulPrev+0x48d>
    6781:	f2 0f 59 05 5f ea 00 	mulsd  0xea5f(%rip),%xmm0        # 151e8 <_IO_stdin_used+0x1e8>
    6788:	00 
    6789:	bf 01 00 00 00       	mov    $0x1,%edi
    678e:	b8 01 00 00 00       	mov    $0x1,%eax
    6793:	48 8d 35 09 ea 00 00 	lea    0xea09(%rip),%rsi        # 151a3 <_IO_stdin_used+0x1a3>
    679a:	e8 01 cc ff ff       	callq  33a0 <__printf_chk@plt>
    679f:	e9 e7 fe ff ff       	jmpq   668b <_Z18cybozu_test_mulPrev+0x4eb>
    67a4:	48 89 d0             	mov    %rdx,%rax
    67a7:	83 e2 01             	and    $0x1,%edx
    67aa:	66 0f ef c0          	pxor   %xmm0,%xmm0
    67ae:	48 d1 e8             	shr    %rax
    67b1:	48 09 d0             	or     %rdx,%rax
    67b4:	f2 48 0f 2a c0       	cvtsi2sd %rax,%xmm0
    67b9:	f2 0f 58 c0          	addsd  %xmm0,%xmm0
    67bd:	e9 1f ff ff ff       	jmpq   66e1 <_Z18cybozu_test_mulPrev+0x541>
    67c2:	f2 0f 59 05 0e ea 00 	mulsd  0xea0e(%rip),%xmm0        # 151d8 <_IO_stdin_used+0x1d8>
    67c9:	00 
    67ca:	bf 01 00 00 00       	mov    $0x1,%edi
    67cf:	b8 01 00 00 00       	mov    $0x1,%eax
    67d4:	48 8d 35 be e9 00 00 	lea    0xe9be(%rip),%rsi        # 15199 <_IO_stdin_used+0x199>
    67db:	e8 c0 cb ff ff       	callq  33a0 <__printf_chk@plt>
    67e0:	e9 62 ff ff ff       	jmpq   6747 <_Z18cybozu_test_mulPrev+0x5a7>
    67e5:	f2 0f 59 05 eb e9 00 	mulsd  0xe9eb(%rip),%xmm0        # 151d8 <_IO_stdin_used+0x1d8>
    67ec:	00 
    67ed:	bf 01 00 00 00       	mov    $0x1,%edi
    67f2:	b8 01 00 00 00       	mov    $0x1,%eax
    67f7:	48 8d 35 9b e9 00 00 	lea    0xe99b(%rip),%rsi        # 15199 <_IO_stdin_used+0x199>
    67fe:	e8 9d cb ff ff       	callq  33a0 <__printf_chk@plt>
    6803:	e9 83 fe ff ff       	jmpq   668b <_Z18cybozu_test_mulPrev+0x4eb>
    6808:	48 8d 35 9e e9 00 00 	lea    0xe99e(%rip),%rsi        # 151ad <_IO_stdin_used+0x1ad>
    680f:	bf 01 00 00 00       	mov    $0x1,%edi
    6814:	b8 01 00 00 00       	mov    $0x1,%eax
    6819:	e8 82 cb ff ff       	callq  33a0 <__printf_chk@plt>
    681e:	e9 24 ff ff ff       	jmpq   6747 <_Z18cybozu_test_mulPrev+0x5a7>
    6823:	e8 68 cd ff ff       	callq  3590 <_ZSt16__throw_bad_castv@plt>
    6828:	f3 0f 1e fa          	endbr64 
    682c:	48 89 c5             	mov    %rax,%rbp
    682f:	e9 cc ce ff ff       	jmpq   3700 <_Z18cybozu_test_mulPrev.cold>
    6834:	f3 0f 1e fa          	endbr64 
    6838:	48 89 c5             	mov    %rax,%rbp
    683b:	e9 d1 ce ff ff       	jmpq   3711 <_Z18cybozu_test_mulPrev.cold+0x11>

0000000000006840 <_ZNKSt5ctypeIcE8do_widenEc>:
    6840:	f3 0f 1e fa          	endbr64 
    6844:	89 f0                	mov    %esi,%eax
    6846:	c3                   	retq   
    6847:	66 0f 1f 84 00 00 00 	nopw   0x0(%rax,%rax,1)
    684e:	00 00 

0000000000006850 <_ZN6cybozu4test7AutoRunD1Ev>:
    6850:	f3 0f 1e fa          	endbr64 
    6854:	55                   	push   %rbp
    6855:	48 8d 6f 20          	lea    0x20(%rdi),%rbp
    6859:	53                   	push   %rbx
    685a:	48 83 ec 08          	sub    $0x8,%rsp
    685e:	48 8b 5f 20          	mov    0x20(%rdi),%rbx
    6862:	48 39 eb             	cmp    %rbp,%rbx
    6865:	74 19                	je     6880 <_ZN6cybozu4test7AutoRunD1Ev+0x30>
    6867:	66 0f 1f 84 00 00 00 	nopw   0x0(%rax,%rax,1)
    686e:	00 00 
    6870:	48 89 df             	mov    %rbx,%rdi
    6873:	48 8b 1b             	mov    (%rbx),%rbx
    6876:	e8 85 cc ff ff       	callq  3500 <_ZdlPv@plt>
    687b:	48 39 eb             	cmp    %rbp,%rbx
    687e:	75 f0                	jne    6870 <_ZN6cybozu4test7AutoRunD1Ev+0x20>
    6880:	48 83 c4 08          	add    $0x8,%rsp
    6884:	5b                   	pop    %rbx
    6885:	5d                   	pop    %rbp
    6886:	c3                   	retq   
    6887:	66 0f 1f 84 00 00 00 	nopw   0x0(%rax,%rax,1)
    688e:	00 00 

0000000000006890 <_ZN6cybozu4test7AutoRun3runEiPPc>:
    6890:	f3 0f 1e fa          	endbr64 
    6894:	41 57                	push   %r15
    6896:	41 56                	push   %r14
    6898:	41 55                	push   %r13
    689a:	41 54                	push   %r12
    689c:	55                   	push   %rbp
    689d:	53                   	push   %rbx
    689e:	48 89 fb             	mov    %rdi,%rbx
    68a1:	48 81 ec b8 00 00 00 	sub    $0xb8,%rsp
    68a8:	48 8b 07             	mov    (%rdi),%rax
    68ab:	4c 8d 6c 24 40       	lea    0x40(%rsp),%r13
    68b0:	48 89 54 24 08       	mov    %rdx,0x8(%rsp)
    68b5:	4c 89 6c 24 30       	mov    %r13,0x30(%rsp)
    68ba:	48 c7 44 24 38 00 00 	movq   $0x0,0x38(%rsp)
    68c1:	00 00 
    68c3:	c6 44 24 40 00       	movb   $0x0,0x40(%rsp)
    68c8:	48 85 c0             	test   %rax,%rax
    68cb:	74 02                	je     68cf <_ZN6cybozu4test7AutoRun3runEiPPc+0x3f>
    68cd:	ff d0                	callq  *%rax
    68cf:	4c 8b 63 20          	mov    0x20(%rbx),%r12
    68d3:	4c 8d 7b 20          	lea    0x20(%rbx),%r15
    68d7:	4d 39 e7             	cmp    %r12,%r15
    68da:	0f 84 e0 00 00 00    	je     69c0 <_ZN6cybozu4test7AutoRun3runEiPPc+0x130>
    68e0:	48 8b 2d d9 26 01 00 	mov    0x126d9(%rip),%rbp        # 18fc0 <_ZSt4cout@GLIBCXX_3.4>
    68e7:	eb 2e                	jmp    6917 <_ZN6cybozu4test7AutoRun3runEiPPc+0x87>
    68e9:	0f 1f 80 00 00 00 00 	nopl   0x0(%rax)
    68f0:	41 0f be 76 43       	movsbl 0x43(%r14),%esi
    68f5:	48 89 ef             	mov    %rbp,%rdi
    68f8:	e8 b3 ca ff ff       	callq  33b0 <_ZNSo3putEc@plt>
    68fd:	48 89 c7             	mov    %rax,%rdi
    6900:	e8 8b cb ff ff       	callq  3490 <_ZNSo5flushEv@plt>
    6905:	41 ff 54 24 18       	callq  *0x18(%r12)
    690a:	4d 8b 24 24          	mov    (%r12),%r12
    690e:	4d 39 e7             	cmp    %r12,%r15
    6911:	0f 84 a9 00 00 00    	je     69c0 <_ZN6cybozu4test7AutoRun3runEiPPc+0x130>
    6917:	ba 0d 00 00 00       	mov    $0xd,%edx
    691c:	48 8d 35 e1 e6 00 00 	lea    0xe6e1(%rip),%rsi        # 15004 <_IO_stdin_used+0x4>
    6923:	48 89 ef             	mov    %rbp,%rdi
    6926:	e8 15 cc ff ff       	callq  3540 <_ZSt16__ostream_insertIcSt11char_traitsIcEERSt13basic_ostreamIT_T0_ES6_PKS3_l@plt>
    692b:	4d 8b 74 24 10       	mov    0x10(%r12),%r14
    6930:	4d 85 f6             	test   %r14,%r14
    6933:	74 6b                	je     69a0 <_ZN6cybozu4test7AutoRun3runEiPPc+0x110>
    6935:	4c 89 f7             	mov    %r14,%rdi
    6938:	e8 c3 ca ff ff       	callq  3400 <strlen@plt>
    693d:	4c 89 f6             	mov    %r14,%rsi
    6940:	48 89 ef             	mov    %rbp,%rdi
    6943:	48 89 c2             	mov    %rax,%rdx
    6946:	e8 f5 cb ff ff       	callq  3540 <_ZSt16__ostream_insertIcSt11char_traitsIcEERSt13basic_ostreamIT_T0_ES6_PKS3_l@plt>
    694b:	48 8b 45 00          	mov    0x0(%rbp),%rax
    694f:	48 8b 40 e8          	mov    -0x18(%rax),%rax
    6953:	4c 8b b4 28 f0 00 00 	mov    0xf0(%rax,%rbp,1),%r14
    695a:	00 
    695b:	4d 85 f6             	test   %r14,%r14
    695e:	0f 84 98 05 00 00    	je     6efc <_ZN6cybozu4test7AutoRun3runEiPPc+0x66c>
    6964:	41 80 7e 38 00       	cmpb   $0x0,0x38(%r14)
    6969:	75 85                	jne    68f0 <_ZN6cybozu4test7AutoRun3runEiPPc+0x60>
    696b:	4c 89 f7             	mov    %r14,%rdi
    696e:	e8 dd cb ff ff       	callq  3550 <_ZNKSt5ctypeIcE13_M_widen_initEv@plt>
    6973:	49 8b 06             	mov    (%r14),%rax
    6976:	be 0a 00 00 00       	mov    $0xa,%esi
    697b:	48 8b 40 30          	mov    0x30(%rax),%rax
    697f:	48 3b 05 32 26 01 00 	cmp    0x12632(%rip),%rax        # 18fb8 <_GLOBAL_OFFSET_TABLE_+0x1e0>
    6986:	0f 84 69 ff ff ff    	je     68f5 <_ZN6cybozu4test7AutoRun3runEiPPc+0x65>
    698c:	4c 89 f7             	mov    %r14,%rdi
    698f:	ff d0                	callq  *%rax
    6991:	0f be f0             	movsbl %al,%esi
    6994:	e9 5c ff ff ff       	jmpq   68f5 <_ZN6cybozu4test7AutoRun3runEiPPc+0x65>
    6999:	0f 1f 80 00 00 00 00 	nopl   0x0(%rax)
    69a0:	48 8b 45 00          	mov    0x0(%rbp),%rax
    69a4:	48 8b 78 e8          	mov    -0x18(%rax),%rdi
    69a8:	48 01 ef             	add    %rbp,%rdi
    69ab:	8b 77 20             	mov    0x20(%rdi),%esi
    69ae:	83 ce 01             	or     $0x1,%esi
    69b1:	e8 9a cc ff ff       	callq  3650 <_ZNSt9basic_iosIcSt11char_traitsIcEE5clearESt12_Ios_Iostate@plt>
    69b6:	eb 93                	jmp    694b <_ZN6cybozu4test7AutoRun3runEiPPc+0xbb>
    69b8:	0f 1f 84 00 00 00 00 	nopl   0x0(%rax,%rax,1)
    69bf:	00 
    69c0:	48 8b 43 08          	mov    0x8(%rbx),%rax
    69c4:	48 85 c0             	test   %rax,%rax
    69c7:	74 02                	je     69cb <_ZN6cybozu4test7AutoRun3runEiPPc+0x13b>
    69c9:	ff d0                	callq  *%rax
    69cb:	48 8b 05 ce 25 01 00 	mov    0x125ce(%rip),%rax        # 18fa0 <stdout@GLIBC_2.2.5>
    69d2:	48 8b 38             	mov    (%rax),%rdi
    69d5:	e8 86 cb ff ff       	callq  3560 <fflush@plt>
    69da:	48 8b 54 24 38       	mov    0x38(%rsp),%rdx
    69df:	48 85 d2             	test   %rdx,%rdx
    69e2:	74 7c                	je     6a60 <_ZN6cybozu4test7AutoRun3runEiPPc+0x1d0>
    69e4:	48 8b 74 24 30       	mov    0x30(%rsp),%rsi
    69e9:	48 8b 3d d0 25 01 00 	mov    0x125d0(%rip),%rdi        # 18fc0 <_ZSt4cout@GLIBCXX_3.4>
    69f0:	e8 4b cb ff ff       	callq  3540 <_ZSt16__ostream_insertIcSt11char_traitsIcEERSt13basic_ostreamIT_T0_ES6_PKS3_l@plt>
    69f5:	48 89 c5             	mov    %rax,%rbp
    69f8:	48 8b 00             	mov    (%rax),%rax
    69fb:	48 8b 40 e8          	mov    -0x18(%rax),%rax
    69ff:	4c 8b a4 05 f0 00 00 	mov    0xf0(%rbp,%rax,1),%r12
    6a06:	00 
    6a07:	4d 85 e4             	test   %r12,%r12
    6a0a:	0f 84 2a 05 00 00    	je     6f3a <_ZN6cybozu4test7AutoRun3runEiPPc+0x6aa>
    6a10:	41 80 7c 24 38 00    	cmpb   $0x0,0x38(%r12)
    6a16:	0f 84 2c 03 00 00    	je     6d48 <_ZN6cybozu4test7AutoRun3runEiPPc+0x4b8>
    6a1c:	41 0f be 74 24 43    	movsbl 0x43(%r12),%esi
    6a22:	48 89 ef             	mov    %rbp,%rdi
    6a25:	e8 86 c9 ff ff       	callq  33b0 <_ZNSo3putEc@plt>
    6a2a:	48 89 c7             	mov    %rax,%rdi
    6a2d:	e8 5e ca ff ff       	callq  3490 <_ZNSo5flushEv@plt>
    6a32:	41 bc 01 00 00 00    	mov    $0x1,%r12d
    6a38:	48 8b 7c 24 30       	mov    0x30(%rsp),%rdi
    6a3d:	4c 39 ef             	cmp    %r13,%rdi
    6a40:	74 05                	je     6a47 <_ZN6cybozu4test7AutoRun3runEiPPc+0x1b7>
    6a42:	e8 b9 ca ff ff       	callq  3500 <_ZdlPv@plt>
    6a47:	48 81 c4 b8 00 00 00 	add    $0xb8,%rsp
    6a4e:	44 89 e0             	mov    %r12d,%eax
    6a51:	5b                   	pop    %rbx
    6a52:	5d                   	pop    %rbp
    6a53:	41 5c                	pop    %r12
    6a55:	41 5d                	pop    %r13
    6a57:	41 5e                	pop    %r14
    6a59:	41 5f                	pop    %r15
    6a5b:	c3                   	retq   
    6a5c:	0f 1f 40 00          	nopl   0x0(%rax)
    6a60:	48 8b 2d 59 25 01 00 	mov    0x12559(%rip),%rbp        # 18fc0 <_ZSt4cout@GLIBCXX_3.4>
    6a67:	8b 43 18             	mov    0x18(%rbx),%eax
    6a6a:	ba 0b 00 00 00       	mov    $0xb,%edx
    6a6f:	48 8d 35 9c e5 00 00 	lea    0xe59c(%rip),%rsi        # 15012 <_IO_stdin_used+0x12>
    6a76:	03 43 14             	add    0x14(%rbx),%eax
    6a79:	89 44 24 18          	mov    %eax,0x18(%rsp)
    6a7d:	48 89 ef             	mov    %rbp,%rdi
    6a80:	03 43 10             	add    0x10(%rbx),%eax
    6a83:	89 44 24 1c          	mov    %eax,0x1c(%rsp)
    6a87:	e8 b4 ca ff ff       	callq  3540 <_ZSt16__ostream_insertIcSt11char_traitsIcEERSt13basic_ostreamIT_T0_ES6_PKS3_l@plt>
    6a8c:	48 8b 44 24 08       	mov    0x8(%rsp),%rax
    6a91:	4c 8b 38             	mov    (%rax),%r15
    6a94:	48 8d 44 24 50       	lea    0x50(%rsp),%rax
    6a99:	48 89 44 24 10       	mov    %rax,0x10(%rsp)
    6a9e:	48 8d 44 24 60       	lea    0x60(%rsp),%rax
    6aa3:	48 89 44 24 08       	mov    %rax,0x8(%rsp)
    6aa8:	48 89 44 24 50       	mov    %rax,0x50(%rsp)
    6aad:	4d 85 ff             	test   %r15,%r15
    6ab0:	0f 84 3a 04 00 00    	je     6ef0 <_ZN6cybozu4test7AutoRun3runEiPPc+0x660>
    6ab6:	4c 89 ff             	mov    %r15,%rdi
    6ab9:	e8 42 c9 ff ff       	callq  3400 <strlen@plt>
    6abe:	48 89 84 24 90 00 00 	mov    %rax,0x90(%rsp)
    6ac5:	00 
    6ac6:	49 89 c6             	mov    %rax,%r14
    6ac9:	48 83 f8 0f          	cmp    $0xf,%rax
    6acd:	0f 87 cd 03 00 00    	ja     6ea0 <_ZN6cybozu4test7AutoRun3runEiPPc+0x610>
    6ad3:	48 83 f8 01          	cmp    $0x1,%rax
    6ad7:	0f 85 a3 02 00 00    	jne    6d80 <_ZN6cybozu4test7AutoRun3runEiPPc+0x4f0>
    6add:	41 0f b6 17          	movzbl (%r15),%edx
    6ae1:	88 54 24 60          	mov    %dl,0x60(%rsp)
    6ae5:	48 8b 54 24 08       	mov    0x8(%rsp),%rdx
    6aea:	48 89 44 24 58       	mov    %rax,0x58(%rsp)
    6aef:	48 8b 7c 24 10       	mov    0x10(%rsp),%rdi
    6af4:	be 2f 00 00 00       	mov    $0x2f,%esi
    6af9:	c6 04 02 00          	movb   $0x0,(%rdx,%rax,1)
    6afd:	48 c7 c2 ff ff ff ff 	mov    $0xffffffffffffffff,%rdx
    6b04:	e8 e7 cb ff ff       	callq  36f0 <_ZNKSt7__cxx1112basic_stringIcSt11char_traitsIcESaIcEE5rfindEcm@plt>
    6b09:	48 8b 4c 24 58       	mov    0x58(%rsp),%rcx
    6b0e:	48 8d 50 01          	lea    0x1(%rax),%rdx
    6b12:	48 39 ca             	cmp    %rcx,%rdx
    6b15:	0f 87 03 04 00 00    	ja     6f1e <_ZN6cybozu4test7AutoRun3runEiPPc+0x68e>
    6b1b:	48 8d 84 24 a0 00 00 	lea    0xa0(%rsp),%rax
    6b22:	00 
    6b23:	49 89 ce             	mov    %rcx,%r14
    6b26:	48 89 44 24 10       	mov    %rax,0x10(%rsp)
    6b2b:	49 29 d6             	sub    %rdx,%r14
    6b2e:	48 89 84 24 90 00 00 	mov    %rax,0x90(%rsp)
    6b35:	00 
    6b36:	48 8b 44 24 50       	mov    0x50(%rsp),%rax
    6b3b:	4c 8d 3c 10          	lea    (%rax,%rdx,1),%r15
    6b3f:	48 01 c8             	add    %rcx,%rax
    6b42:	74 09                	je     6b4d <_ZN6cybozu4test7AutoRun3runEiPPc+0x2bd>
    6b44:	4d 85 ff             	test   %r15,%r15
    6b47:	0f 84 c5 03 00 00    	je     6f12 <_ZN6cybozu4test7AutoRun3runEiPPc+0x682>
    6b4d:	4c 89 74 24 70       	mov    %r14,0x70(%rsp)
    6b52:	49 83 fe 0f          	cmp    $0xf,%r14
    6b56:	0f 87 f4 02 00 00    	ja     6e50 <_ZN6cybozu4test7AutoRun3runEiPPc+0x5c0>
    6b5c:	49 83 fe 01          	cmp    $0x1,%r14
    6b60:	0f 85 82 02 00 00    	jne    6de8 <_ZN6cybozu4test7AutoRun3runEiPPc+0x558>
    6b66:	41 0f b6 07          	movzbl (%r15),%eax
    6b6a:	4c 8d a4 24 90 00 00 	lea    0x90(%rsp),%r12
    6b71:	00 
    6b72:	88 84 24 a0 00 00 00 	mov    %al,0xa0(%rsp)
    6b79:	48 8b 44 24 10       	mov    0x10(%rsp),%rax
    6b7e:	4c 89 b4 24 98 00 00 	mov    %r14,0x98(%rsp)
    6b85:	00 
    6b86:	31 d2                	xor    %edx,%edx
    6b88:	4c 89 e7             	mov    %r12,%rdi
    6b8b:	be 2e 00 00 00       	mov    $0x2e,%esi
    6b90:	42 c6 04 30 00       	movb   $0x0,(%rax,%r14,1)
    6b95:	4c 8d b4 24 80 00 00 	lea    0x80(%rsp),%r14
    6b9c:	00 
    6b9d:	e8 fe c9 ff ff       	callq  35a0 <_ZNKSt7__cxx1112basic_stringIcSt11char_traitsIcESaIcEE4findEcm@plt>
    6ba2:	4c 8b a4 24 98 00 00 	mov    0x98(%rsp),%r12
    6ba9:	00 
    6baa:	4c 89 74 24 70       	mov    %r14,0x70(%rsp)
    6baf:	4c 8b bc 24 90 00 00 	mov    0x90(%rsp),%r15
    6bb6:	00 
    6bb7:	4c 39 e0             	cmp    %r12,%rax
    6bba:	4c 0f 46 e0          	cmovbe %rax,%r12
    6bbe:	4c 89 f8             	mov    %r15,%rax
    6bc1:	4c 01 e0             	add    %r12,%rax
    6bc4:	74 09                	je     6bcf <_ZN6cybozu4test7AutoRun3runEiPPc+0x33f>
    6bc6:	4d 85 ff             	test   %r15,%r15
    6bc9:	0f 84 37 03 00 00    	je     6f06 <_ZN6cybozu4test7AutoRun3runEiPPc+0x676>
    6bcf:	4c 89 64 24 28       	mov    %r12,0x28(%rsp)
    6bd4:	49 83 fc 0f          	cmp    $0xf,%r12
    6bd8:	0f 87 2a 02 00 00    	ja     6e08 <_ZN6cybozu4test7AutoRun3runEiPPc+0x578>
    6bde:	49 83 fc 01          	cmp    $0x1,%r12
    6be2:	0f 85 e8 01 00 00    	jne    6dd0 <_ZN6cybozu4test7AutoRun3runEiPPc+0x540>
    6be8:	41 0f b6 07          	movzbl (%r15),%eax
    6bec:	88 84 24 80 00 00 00 	mov    %al,0x80(%rsp)
    6bf3:	4c 89 f0             	mov    %r14,%rax
    6bf6:	4c 89 64 24 78       	mov    %r12,0x78(%rsp)
    6bfb:	42 c6 04 20 00       	movb   $0x0,(%rax,%r12,1)
    6c00:	48 8b bc 24 90 00 00 	mov    0x90(%rsp),%rdi
    6c07:	00 
    6c08:	48 3b 7c 24 10       	cmp    0x10(%rsp),%rdi
    6c0d:	74 05                	je     6c14 <_ZN6cybozu4test7AutoRun3runEiPPc+0x384>
    6c0f:	e8 ec c8 ff ff       	callq  3500 <_ZdlPv@plt>
    6c14:	48 8b 54 24 78       	mov    0x78(%rsp),%rdx
    6c19:	48 8b 74 24 70       	mov    0x70(%rsp),%rsi
    6c1e:	48 89 ef             	mov    %rbp,%rdi
    6c21:	e8 1a c9 ff ff       	callq  3540 <_ZSt16__ostream_insertIcSt11char_traitsIcEERSt13basic_ostreamIT_T0_ES6_PKS3_l@plt>
    6c26:	ba 09 00 00 00       	mov    $0x9,%edx
    6c2b:	48 8d 35 01 e4 00 00 	lea    0xe401(%rip),%rsi        # 15033 <_IO_stdin_used+0x33>
    6c32:	48 89 c7             	mov    %rax,%rdi
    6c35:	48 89 c5             	mov    %rax,%rbp
    6c38:	e8 03 c9 ff ff       	callq  3540 <_ZSt16__ostream_insertIcSt11char_traitsIcEERSt13basic_ostreamIT_T0_ES6_PKS3_l@plt>
    6c3d:	48 8b 73 30          	mov    0x30(%rbx),%rsi
    6c41:	48 89 ef             	mov    %rbp,%rdi
    6c44:	e8 37 c8 ff ff       	callq  3480 <_ZNSo9_M_insertImEERSoT_@plt>
    6c49:	ba 08 00 00 00       	mov    $0x8,%edx
    6c4e:	48 8d 35 e8 e3 00 00 	lea    0xe3e8(%rip),%rsi        # 1503d <_IO_stdin_used+0x3d>
    6c55:	48 89 c7             	mov    %rax,%rdi
    6c58:	48 89 c5             	mov    %rax,%rbp
    6c5b:	e8 e0 c8 ff ff       	callq  3540 <_ZSt16__ostream_insertIcSt11char_traitsIcEERSt13basic_ostreamIT_T0_ES6_PKS3_l@plt>
    6c60:	8b 74 24 1c          	mov    0x1c(%rsp),%esi
    6c64:	48 89 ef             	mov    %rbp,%rdi
    6c67:	e8 04 ca ff ff       	callq  3670 <_ZNSolsEi@plt>
    6c6c:	ba 05 00 00 00       	mov    $0x5,%edx
    6c71:	48 8d 35 ce e3 00 00 	lea    0xe3ce(%rip),%rsi        # 15046 <_IO_stdin_used+0x46>
    6c78:	48 89 c7             	mov    %rax,%rdi
    6c7b:	48 89 c5             	mov    %rax,%rbp
    6c7e:	e8 bd c8 ff ff       	callq  3540 <_ZSt16__ostream_insertIcSt11char_traitsIcEERSt13basic_ostreamIT_T0_ES6_PKS3_l@plt>
    6c83:	8b 73 10             	mov    0x10(%rbx),%esi
    6c86:	48 89 ef             	mov    %rbp,%rdi
    6c89:	e8 e2 c9 ff ff       	callq  3670 <_ZNSolsEi@plt>
    6c8e:	ba 05 00 00 00       	mov    $0x5,%edx
    6c93:	48 8d 35 b2 e3 00 00 	lea    0xe3b2(%rip),%rsi        # 1504c <_IO_stdin_used+0x4c>
    6c9a:	48 89 c7             	mov    %rax,%rdi
    6c9d:	48 89 c5             	mov    %rax,%rbp
    6ca0:	e8 9b c8 ff ff       	callq  3540 <_ZSt16__ostream_insertIcSt11char_traitsIcEERSt13basic_ostreamIT_T0_ES6_PKS3_l@plt>
    6ca5:	8b 73 14             	mov    0x14(%rbx),%esi
    6ca8:	48 89 ef             	mov    %rbp,%rdi
    6cab:	e8 c0 c9 ff ff       	callq  3670 <_ZNSolsEi@plt>
    6cb0:	ba 0c 00 00 00       	mov    $0xc,%edx
    6cb5:	48 8d 35 96 e3 00 00 	lea    0xe396(%rip),%rsi        # 15052 <_IO_stdin_used+0x52>
    6cbc:	48 89 c7             	mov    %rax,%rdi
    6cbf:	48 89 c5             	mov    %rax,%rbp
    6cc2:	e8 79 c8 ff ff       	callq  3540 <_ZSt16__ostream_insertIcSt11char_traitsIcEERSt13basic_ostreamIT_T0_ES6_PKS3_l@plt>
    6cc7:	8b 73 18             	mov    0x18(%rbx),%esi
    6cca:	48 89 ef             	mov    %rbp,%rdi
    6ccd:	e8 9e c9 ff ff       	callq  3670 <_ZNSolsEi@plt>
    6cd2:	48 89 c5             	mov    %rax,%rbp
    6cd5:	48 8b 00             	mov    (%rax),%rax
    6cd8:	48 8b 40 e8          	mov    -0x18(%rax),%rax
    6cdc:	4c 8b a4 05 f0 00 00 	mov    0xf0(%rbp,%rax,1),%r12
    6ce3:	00 
    6ce4:	4d 85 e4             	test   %r12,%r12
    6ce7:	0f 84 14 02 00 00    	je     6f01 <_ZN6cybozu4test7AutoRun3runEiPPc+0x671>
    6ced:	41 80 7c 24 38 00    	cmpb   $0x0,0x38(%r12)
    6cf3:	0f 84 9f 00 00 00    	je     6d98 <_ZN6cybozu4test7AutoRun3runEiPPc+0x508>
    6cf9:	41 0f be 74 24 43    	movsbl 0x43(%r12),%esi
    6cff:	48 89 ef             	mov    %rbp,%rdi
    6d02:	e8 a9 c6 ff ff       	callq  33b0 <_ZNSo3putEc@plt>
    6d07:	48 89 c7             	mov    %rax,%rdi
    6d0a:	e8 81 c7 ff ff       	callq  3490 <_ZNSo5flushEv@plt>
    6d0f:	48 8b 7c 24 70       	mov    0x70(%rsp),%rdi
    6d14:	4c 39 f7             	cmp    %r14,%rdi
    6d17:	74 05                	je     6d1e <_ZN6cybozu4test7AutoRun3runEiPPc+0x48e>
    6d19:	e8 e2 c7 ff ff       	callq  3500 <_ZdlPv@plt>
    6d1e:	48 8b 7c 24 50       	mov    0x50(%rsp),%rdi
    6d23:	48 3b 7c 24 08       	cmp    0x8(%rsp),%rdi
    6d28:	74 05                	je     6d2f <_ZN6cybozu4test7AutoRun3runEiPPc+0x49f>
    6d2a:	e8 d1 c7 ff ff       	callq  3500 <_ZdlPv@plt>
    6d2f:	8b 44 24 18          	mov    0x18(%rsp),%eax
    6d33:	45 31 e4             	xor    %r12d,%r12d
    6d36:	85 c0                	test   %eax,%eax
    6d38:	41 0f 9f c4          	setg   %r12b
    6d3c:	e9 f7 fc ff ff       	jmpq   6a38 <_ZN6cybozu4test7AutoRun3runEiPPc+0x1a8>
    6d41:	0f 1f 80 00 00 00 00 	nopl   0x0(%rax)
    6d48:	4c 89 e7             	mov    %r12,%rdi
    6d4b:	e8 00 c8 ff ff       	callq  3550 <_ZNKSt5ctypeIcE13_M_widen_initEv@plt>
    6d50:	49 8b 04 24          	mov    (%r12),%rax
    6d54:	be 0a 00 00 00       	mov    $0xa,%esi
    6d59:	48 8b 40 30          	mov    0x30(%rax),%rax
    6d5d:	48 3b 05 54 22 01 00 	cmp    0x12254(%rip),%rax        # 18fb8 <_GLOBAL_OFFSET_TABLE_+0x1e0>
    6d64:	0f 84 b8 fc ff ff    	je     6a22 <_ZN6cybozu4test7AutoRun3runEiPPc+0x192>
    6d6a:	4c 89 e7             	mov    %r12,%rdi
    6d6d:	ff d0                	callq  *%rax
    6d6f:	0f be f0             	movsbl %al,%esi
    6d72:	e9 ab fc ff ff       	jmpq   6a22 <_ZN6cybozu4test7AutoRun3runEiPPc+0x192>
    6d77:	66 0f 1f 84 00 00 00 	nopw   0x0(%rax,%rax,1)
    6d7e:	00 00 
    6d80:	48 85 c0             	test   %rax,%rax
    6d83:	0f 85 aa 01 00 00    	jne    6f33 <_ZN6cybozu4test7AutoRun3runEiPPc+0x6a3>
    6d89:	48 8b 54 24 08       	mov    0x8(%rsp),%rdx
    6d8e:	e9 57 fd ff ff       	jmpq   6aea <_ZN6cybozu4test7AutoRun3runEiPPc+0x25a>
    6d93:	0f 1f 44 00 00       	nopl   0x0(%rax,%rax,1)
    6d98:	4c 89 e7             	mov    %r12,%rdi
    6d9b:	e8 b0 c7 ff ff       	callq  3550 <_ZNKSt5ctypeIcE13_M_widen_initEv@plt>
    6da0:	49 8b 04 24          	mov    (%r12),%rax
    6da4:	be 0a 00 00 00       	mov    $0xa,%esi
    6da9:	48 8b 40 30          	mov    0x30(%rax),%rax
    6dad:	48 3b 05 04 22 01 00 	cmp    0x12204(%rip),%rax        # 18fb8 <_GLOBAL_OFFSET_TABLE_+0x1e0>
    6db4:	0f 84 45 ff ff ff    	je     6cff <_ZN6cybozu4test7AutoRun3runEiPPc+0x46f>
    6dba:	4c 89 e7             	mov    %r12,%rdi
    6dbd:	ff d0                	callq  *%rax
    6dbf:	0f be f0             	movsbl %al,%esi
    6dc2:	e9 38 ff ff ff       	jmpq   6cff <_ZN6cybozu4test7AutoRun3runEiPPc+0x46f>
    6dc7:	66 0f 1f 84 00 00 00 	nopw   0x0(%rax,%rax,1)
    6dce:	00 00 
    6dd0:	4d 85 e4             	test   %r12,%r12
    6dd3:	0f 85 78 01 00 00    	jne    6f51 <_ZN6cybozu4test7AutoRun3runEiPPc+0x6c1>
    6dd9:	4c 89 f0             	mov    %r14,%rax
    6ddc:	e9 15 fe ff ff       	jmpq   6bf6 <_ZN6cybozu4test7AutoRun3runEiPPc+0x366>
    6de1:	0f 1f 80 00 00 00 00 	nopl   0x0(%rax)
    6de8:	4d 85 f6             	test   %r14,%r14
    6deb:	0f 85 4e 01 00 00    	jne    6f3f <_ZN6cybozu4test7AutoRun3runEiPPc+0x6af>
    6df1:	48 8b 44 24 10       	mov    0x10(%rsp),%rax
    6df6:	4c 8d a4 24 90 00 00 	lea    0x90(%rsp),%r12
    6dfd:	00 
    6dfe:	e9 7b fd ff ff       	jmpq   6b7e <_ZN6cybozu4test7AutoRun3runEiPPc+0x2ee>
    6e03:	0f 1f 44 00 00       	nopl   0x0(%rax,%rax,1)
    6e08:	48 8d 74 24 28       	lea    0x28(%rsp),%rsi
    6e0d:	48 8d 7c 24 70       	lea    0x70(%rsp),%rdi
    6e12:	31 d2                	xor    %edx,%edx
    6e14:	e8 87 c8 ff ff       	callq  36a0 <_ZNSt7__cxx1112basic_stringIcSt11char_traitsIcESaIcEE9_M_createERmm@plt>
    6e19:	48 89 44 24 70       	mov    %rax,0x70(%rsp)
    6e1e:	48 89 c7             	mov    %rax,%rdi
    6e21:	48 8b 44 24 28       	mov    0x28(%rsp),%rax
    6e26:	48 89 84 24 80 00 00 	mov    %rax,0x80(%rsp)
    6e2d:	00 
    6e2e:	4c 89 e2             	mov    %r12,%rdx
    6e31:	4c 89 fe             	mov    %r15,%rsi
    6e34:	e8 87 c6 ff ff       	callq  34c0 <memcpy@plt>
    6e39:	4c 8b 64 24 28       	mov    0x28(%rsp),%r12
    6e3e:	48 8b 44 24 70       	mov    0x70(%rsp),%rax
    6e43:	e9 ae fd ff ff       	jmpq   6bf6 <_ZN6cybozu4test7AutoRun3runEiPPc+0x366>
    6e48:	0f 1f 84 00 00 00 00 	nopl   0x0(%rax,%rax,1)
    6e4f:	00 
    6e50:	4c 8d a4 24 90 00 00 	lea    0x90(%rsp),%r12
    6e57:	00 
    6e58:	48 8d 74 24 70       	lea    0x70(%rsp),%rsi
    6e5d:	31 d2                	xor    %edx,%edx
    6e5f:	4c 89 e7             	mov    %r12,%rdi
    6e62:	e8 39 c8 ff ff       	callq  36a0 <_ZNSt7__cxx1112basic_stringIcSt11char_traitsIcESaIcEE9_M_createERmm@plt>
    6e67:	48 89 84 24 90 00 00 	mov    %rax,0x90(%rsp)
    6e6e:	00 
    6e6f:	48 89 c7             	mov    %rax,%rdi
    6e72:	48 8b 44 24 70       	mov    0x70(%rsp),%rax
    6e77:	48 89 84 24 a0 00 00 	mov    %rax,0xa0(%rsp)
    6e7e:	00 
    6e7f:	4c 89 f2             	mov    %r14,%rdx
    6e82:	4c 89 fe             	mov    %r15,%rsi
    6e85:	e8 36 c6 ff ff       	callq  34c0 <memcpy@plt>
    6e8a:	4c 8b 74 24 70       	mov    0x70(%rsp),%r14
    6e8f:	48 8b 84 24 90 00 00 	mov    0x90(%rsp),%rax
    6e96:	00 
    6e97:	e9 e2 fc ff ff       	jmpq   6b7e <_ZN6cybozu4test7AutoRun3runEiPPc+0x2ee>
    6e9c:	0f 1f 40 00          	nopl   0x0(%rax)
    6ea0:	4c 8d a4 24 90 00 00 	lea    0x90(%rsp),%r12
    6ea7:	00 
    6ea8:	48 8b 7c 24 10       	mov    0x10(%rsp),%rdi
    6ead:	31 d2                	xor    %edx,%edx
    6eaf:	4c 89 e6             	mov    %r12,%rsi
    6eb2:	e8 e9 c7 ff ff       	callq  36a0 <_ZNSt7__cxx1112basic_stringIcSt11char_traitsIcESaIcEE9_M_createERmm@plt>
    6eb7:	48 89 44 24 50       	mov    %rax,0x50(%rsp)
    6ebc:	48 89 c7             	mov    %rax,%rdi
    6ebf:	48 8b 84 24 90 00 00 	mov    0x90(%rsp),%rax
    6ec6:	00 
    6ec7:	48 89 44 24 60       	mov    %rax,0x60(%rsp)
    6ecc:	4c 89 f2             	mov    %r14,%rdx
    6ecf:	4c 89 fe             	mov    %r15,%rsi
    6ed2:	e8 e9 c5 ff ff       	callq  34c0 <memcpy@plt>
    6ed7:	48 8b 84 24 90 00 00 	mov    0x90(%rsp),%rax
    6ede:	00 
    6edf:	48 8b 54 24 50       	mov    0x50(%rsp),%rdx
    6ee4:	e9 01 fc ff ff       	jmpq   6aea <_ZN6cybozu4test7AutoRun3runEiPPc+0x25a>
    6ee9:	0f 1f 80 00 00 00 00 	nopl   0x0(%rax)
    6ef0:	48 8d 3d a1 e1 00 00 	lea    0xe1a1(%rip),%rdi        # 15098 <_IO_stdin_used+0x98>
    6ef7:	e8 a4 c5 ff ff       	callq  34a0 <_ZSt19__throw_logic_errorPKc@plt>
    6efc:	e8 8f c6 ff ff       	callq  3590 <_ZSt16__throw_bad_castv@plt>
    6f01:	e8 8a c6 ff ff       	callq  3590 <_ZSt16__throw_bad_castv@plt>
    6f06:	48 8d 3d 8b e1 00 00 	lea    0xe18b(%rip),%rdi        # 15098 <_IO_stdin_used+0x98>
    6f0d:	e8 8e c5 ff ff       	callq  34a0 <_ZSt19__throw_logic_errorPKc@plt>
    6f12:	48 8d 3d 7f e1 00 00 	lea    0xe17f(%rip),%rdi        # 15098 <_IO_stdin_used+0x98>
    6f19:	e8 82 c5 ff ff       	callq  34a0 <_ZSt19__throw_logic_errorPKc@plt>
    6f1e:	48 8d 35 f9 e0 00 00 	lea    0xe0f9(%rip),%rsi        # 1501e <_IO_stdin_used+0x1e>
    6f25:	48 8d 3d 9c e1 00 00 	lea    0xe19c(%rip),%rdi        # 150c8 <_IO_stdin_used+0xc8>
    6f2c:	31 c0                	xor    %eax,%eax
    6f2e:	e8 bd c6 ff ff       	callq  35f0 <_ZSt24__throw_out_of_range_fmtPKcz@plt>
    6f33:	48 8b 7c 24 08       	mov    0x8(%rsp),%rdi
    6f38:	eb 92                	jmp    6ecc <_ZN6cybozu4test7AutoRun3runEiPPc+0x63c>
    6f3a:	e8 51 c6 ff ff       	callq  3590 <_ZSt16__throw_bad_castv@plt>
    6f3f:	48 8b 7c 24 10       	mov    0x10(%rsp),%rdi
    6f44:	4c 8d a4 24 90 00 00 	lea    0x90(%rsp),%r12
    6f4b:	00 
    6f4c:	e9 2e ff ff ff       	jmpq   6e7f <_ZN6cybozu4test7AutoRun3runEiPPc+0x5ef>
    6f51:	4c 89 f7             	mov    %r14,%rdi
    6f54:	e9 d5 fe ff ff       	jmpq   6e2e <_ZN6cybozu4test7AutoRun3runEiPPc+0x59e>
    6f59:	f3 0f 1e fa          	endbr64 
    6f5d:	48 89 c5             	mov    %rax,%rbp
    6f60:	eb 18                	jmp    6f7a <_ZN6cybozu4test7AutoRun3runEiPPc+0x6ea>
    6f62:	f3 0f 1e fa          	endbr64 
    6f66:	48 89 c5             	mov    %rax,%rbp
    6f69:	eb 37                	jmp    6fa2 <_ZN6cybozu4test7AutoRun3runEiPPc+0x712>
    6f6b:	48 8b 7c 24 70       	mov    0x70(%rsp),%rdi
    6f70:	4c 39 f7             	cmp    %r14,%rdi
    6f73:	74 05                	je     6f7a <_ZN6cybozu4test7AutoRun3runEiPPc+0x6ea>
    6f75:	e8 86 c5 ff ff       	callq  3500 <_ZdlPv@plt>
    6f7a:	48 8b 7c 24 50       	mov    0x50(%rsp),%rdi
    6f7f:	48 3b 7c 24 08       	cmp    0x8(%rsp),%rdi
    6f84:	74 05                	je     6f8b <_ZN6cybozu4test7AutoRun3runEiPPc+0x6fb>
    6f86:	e8 75 c5 ff ff       	callq  3500 <_ZdlPv@plt>
    6f8b:	48 8b 7c 24 30       	mov    0x30(%rsp),%rdi
    6f90:	4c 39 ef             	cmp    %r13,%rdi
    6f93:	74 05                	je     6f9a <_ZN6cybozu4test7AutoRun3runEiPPc+0x70a>
    6f95:	e8 66 c5 ff ff       	callq  3500 <_ZdlPv@plt>
    6f9a:	48 89 ef             	mov    %rbp,%rdi
    6f9d:	e8 de c6 ff ff       	callq  3680 <_Unwind_Resume@plt>
    6fa2:	48 8b bc 24 90 00 00 	mov    0x90(%rsp),%rdi
    6fa9:	00 
    6faa:	48 3b 7c 24 10       	cmp    0x10(%rsp),%rdi
    6faf:	75 c4                	jne    6f75 <_ZN6cybozu4test7AutoRun3runEiPPc+0x6e5>
    6fb1:	eb c7                	jmp    6f7a <_ZN6cybozu4test7AutoRun3runEiPPc+0x6ea>
    6fb3:	f3 0f 1e fa          	endbr64 
    6fb7:	48 89 c5             	mov    %rax,%rbp
    6fba:	eb af                	jmp    6f6b <_ZN6cybozu4test7AutoRun3runEiPPc+0x6db>
    6fbc:	f3 0f 1e fa          	endbr64 
    6fc0:	48 89 c5             	mov    %rax,%rbp
    6fc3:	eb c6                	jmp    6f8b <_ZN6cybozu4test7AutoRun3runEiPPc+0x6fb>
    6fc5:	f3 0f 1e fa          	endbr64 
    6fc9:	48 89 c7             	mov    %rax,%rdi
    6fcc:	48 89 d0             	mov    %rdx,%rax
    6fcf:	eb 0f                	jmp    6fe0 <_ZN6cybozu4test7AutoRun3runEiPPc+0x750>
    6fd1:	f3 0f 1e fa          	endbr64 
    6fd5:	48 89 c7             	mov    %rax,%rdi
    6fd8:	48 89 d0             	mov    %rdx,%rax
    6fdb:	e9 83 00 00 00       	jmpq   7063 <_ZN6cybozu4test7AutoRun3runEiPPc+0x7d3>
    6fe0:	48 83 e8 01          	sub    $0x1,%rax
    6fe4:	0f 85 a3 00 00 00    	jne    708d <_ZN6cybozu4test7AutoRun3runEiPPc+0x7fd>
    6fea:	e8 01 c4 ff ff       	callq  33f0 <__cxa_begin_catch@plt>
    6fef:	83 43 18 01          	addl   $0x1,0x18(%rbx)
    6ff3:	ba 08 00 00 00       	mov    $0x8,%edx
    6ff8:	48 89 ef             	mov    %rbp,%rdi
    6ffb:	48 8d 35 5d e0 00 00 	lea    0xe05d(%rip),%rsi        # 1505f <_IO_stdin_used+0x5f>
    7002:	48 89 44 24 10       	mov    %rax,0x10(%rsp)
    7007:	e8 34 c5 ff ff       	callq  3540 <_ZSt16__ostream_insertIcSt11char_traitsIcEERSt13basic_ostreamIT_T0_ES6_PKS3_l@plt>
    700c:	49 8b 74 24 10       	mov    0x10(%r12),%rsi
    7011:	48 89 ef             	mov    %rbp,%rdi
    7014:	e8 f7 c4 ff ff       	callq  3510 <_ZStlsISt11char_traitsIcEERSt13basic_ostreamIcT_ES5_PKc@plt>
    7019:	ba 19 00 00 00       	mov    $0x19,%edx
    701e:	48 8d 35 43 e0 00 00 	lea    0xe043(%rip),%rsi        # 15068 <_IO_stdin_used+0x68>
    7025:	48 89 c7             	mov    %rax,%rdi
    7028:	49 89 c6             	mov    %rax,%r14
    702b:	e8 10 c5 ff ff       	callq  3540 <_ZSt16__ostream_insertIcSt11char_traitsIcEERSt13basic_ostreamIT_T0_ES6_PKS3_l@plt>
    7030:	48 8b 7c 24 10       	mov    0x10(%rsp),%rdi
    7035:	48 8b 07             	mov    (%rdi),%rax
    7038:	ff 50 10             	callq  *0x10(%rax)
    703b:	4c 89 f7             	mov    %r14,%rdi
    703e:	48 89 c6             	mov    %rax,%rsi
    7041:	e8 ca c4 ff ff       	callq  3510 <_ZStlsISt11char_traitsIcEERSt13basic_ostreamIcT_ES5_PKc@plt>
    7046:	48 89 c7             	mov    %rax,%rdi
    7049:	e8 c2 c3 ff ff       	callq  3410 <_ZSt4endlIcSt11char_traitsIcEERSt13basic_ostreamIT_T0_ES6_@plt>
    704e:	e8 dd c5 ff ff       	callq  3630 <__cxa_end_catch@plt>
    7053:	e9 b2 f8 ff ff       	jmpq   690a <_ZN6cybozu4test7AutoRun3runEiPPc+0x7a>
    7058:	e8 d3 c5 ff ff       	callq  3630 <__cxa_end_catch@plt>
    705d:	48 89 ef             	mov    %rbp,%rdi
    7060:	4c 89 e0             	mov    %r12,%rax
    7063:	48 83 e8 01          	sub    $0x1,%rax
    7067:	0f 84 9e 00 00 00    	je     710b <_ZN6cybozu4test7AutoRun3runEiPPc+0x87b>
    706d:	e8 7e c3 ff ff       	callq  33f0 <__cxa_begin_catch@plt>
    7072:	48 8d 7c 24 30       	lea    0x30(%rsp),%rdi
    7077:	48 8d 35 aa e0 00 00 	lea    0xe0aa(%rip),%rsi        # 15128 <_IO_stdin_used+0x128>
    707e:	e8 5d c6 ff ff       	callq  36e0 <_ZNSt7__cxx1112basic_stringIcSt11char_traitsIcESaIcEE6assignEPKc@plt>
    7083:	e8 a8 c5 ff ff       	callq  3630 <__cxa_end_catch@plt>
    7088:	e9 3e f9 ff ff       	jmpq   69cb <_ZN6cybozu4test7AutoRun3runEiPPc+0x13b>
    708d:	e8 5e c3 ff ff       	callq  33f0 <__cxa_begin_catch@plt>
    7092:	83 43 18 01          	addl   $0x1,0x18(%rbx)
    7096:	ba 08 00 00 00       	mov    $0x8,%edx
    709b:	48 89 ef             	mov    %rbp,%rdi
    709e:	48 8d 35 ba df 00 00 	lea    0xdfba(%rip),%rsi        # 1505f <_IO_stdin_used+0x5f>
    70a5:	e8 96 c4 ff ff       	callq  3540 <_ZSt16__ostream_insertIcSt11char_traitsIcEERSt13basic_ostreamIT_T0_ES6_PKS3_l@plt>
    70aa:	49 8b 74 24 10       	mov    0x10(%r12),%rsi
    70af:	48 89 ef             	mov    %rbp,%rdi
    70b2:	e8 59 c4 ff ff       	callq  3510 <_ZStlsISt11char_traitsIcEERSt13basic_ostreamIcT_ES5_PKc@plt>
    70b7:	ba 20 00 00 00       	mov    $0x20,%edx
    70bc:	48 8d 35 3d e0 00 00 	lea    0xe03d(%rip),%rsi        # 15100 <_IO_stdin_used+0x100>
    70c3:	48 89 c7             	mov    %rax,%rdi
    70c6:	49 89 c6             	mov    %rax,%r14
    70c9:	e8 72 c4 ff ff       	callq  3540 <_ZSt16__ostream_insertIcSt11char_traitsIcEERSt13basic_ostreamIT_T0_ES6_PKS3_l@plt>
    70ce:	4c 89 f7             	mov    %r14,%rdi
    70d1:	e8 3a c3 ff ff       	callq  3410 <_ZSt4endlIcSt11char_traitsIcEERSt13basic_ostreamIT_T0_ES6_@plt>
    70d6:	e8 55 c5 ff ff       	callq  3630 <__cxa_end_catch@plt>
    70db:	e9 2a f8 ff ff       	jmpq   690a <_ZN6cybozu4test7AutoRun3runEiPPc+0x7a>
    70e0:	f3 0f 1e fa          	endbr64 
    70e4:	48 89 c5             	mov    %rax,%rbp
    70e7:	49 89 d4             	mov    %rdx,%r12
    70ea:	eb 0f                	jmp    70fb <_ZN6cybozu4test7AutoRun3runEiPPc+0x86b>
    70ec:	f3 0f 1e fa          	endbr64 
    70f0:	48 89 c5             	mov    %rax,%rbp
    70f3:	49 89 d4             	mov    %rdx,%r12
    70f6:	e9 5d ff ff ff       	jmpq   7058 <_ZN6cybozu4test7AutoRun3runEiPPc+0x7c8>
    70fb:	e8 30 c5 ff ff       	callq  3630 <__cxa_end_catch@plt>
    7100:	48 89 ef             	mov    %rbp,%rdi
    7103:	4c 89 e0             	mov    %r12,%rax
    7106:	e9 58 ff ff ff       	jmpq   7063 <_ZN6cybozu4test7AutoRun3runEiPPc+0x7d3>
    710b:	e8 e0 c2 ff ff       	callq  33f0 <__cxa_begin_catch@plt>
    7110:	4c 8d b4 24 80 00 00 	lea    0x80(%rsp),%r14
    7117:	00 
    7118:	48 89 c7             	mov    %rax,%rdi
    711b:	48 8b 00             	mov    (%rax),%rax
    711e:	ff 50 10             	callq  *0x10(%rax)
    7121:	4c 89 74 24 70       	mov    %r14,0x70(%rsp)
    7126:	48 83 c9 ff          	or     $0xffffffffffffffff,%rcx
    712a:	4c 8d 44 24 70       	lea    0x70(%rsp),%r8
    712f:	48 89 c6             	mov    %rax,%rsi
    7132:	c6 84 24 8a 00 00 00 	movb   $0x0,0x8a(%rsp)
    7139:	00 
    713a:	48 b8 63 74 65 73 74 	movabs $0x72653a7473657463,%rax
    7141:	3a 65 72 
    7144:	48 89 84 24 80 00 00 	mov    %rax,0x80(%rsp)
    714b:	00 
    714c:	48 89 f7             	mov    %rsi,%rdi
    714f:	31 c0                	xor    %eax,%eax
    7151:	66 c7 84 24 88 00 00 	movw   $0x3a72,0x88(%rsp)
    7158:	00 72 3a 
    715b:	48 c7 44 24 78 0a 00 	movq   $0xa,0x78(%rsp)
    7162:	00 00 
    7164:	f2 ae                	repnz scas %es:(%rdi),%al
    7166:	48 89 c8             	mov    %rcx,%rax
    7169:	48 f7 d0             	not    %rax
    716c:	48 8d 50 ff          	lea    -0x1(%rax),%rdx
    7170:	48 b8 f5 ff ff ff ff 	movabs $0x3ffffffffffffff5,%rax
    7177:	ff ff 3f 
    717a:	48 39 c2             	cmp    %rax,%rdx
    717d:	0f 87 a0 00 00 00    	ja     7223 <_ZN6cybozu4test7AutoRun3runEiPPc+0x993>
    7183:	4c 89 c7             	mov    %r8,%rdi
    7186:	e8 45 c2 ff ff       	callq  33d0 <_ZNSt7__cxx1112basic_stringIcSt11char_traitsIcESaIcEE9_M_appendEPKcm@plt>
    718b:	48 8d 8c 24 a0 00 00 	lea    0xa0(%rsp),%rcx
    7192:	00 
    7193:	48 8d 50 10          	lea    0x10(%rax),%rdx
    7197:	48 89 4c 24 10       	mov    %rcx,0x10(%rsp)
    719c:	48 89 8c 24 90 00 00 	mov    %rcx,0x90(%rsp)
    71a3:	00 
    71a4:	48 8b 08             	mov    (%rax),%rcx
    71a7:	48 39 d1             	cmp    %rdx,%rcx
    71aa:	0f 85 89 00 00 00    	jne    7239 <_ZN6cybozu4test7AutoRun3runEiPPc+0x9a9>
    71b0:	f3 0f 6f 40 10       	movdqu 0x10(%rax),%xmm0
    71b5:	0f 29 84 24 a0 00 00 	movaps %xmm0,0xa0(%rsp)
    71bc:	00 
    71bd:	48 8b 48 08          	mov    0x8(%rax),%rcx
    71c1:	4c 8d a4 24 90 00 00 	lea    0x90(%rsp),%r12
    71c8:	00 
    71c9:	48 8d 7c 24 30       	lea    0x30(%rsp),%rdi
    71ce:	4c 89 e6             	mov    %r12,%rsi
    71d1:	48 89 8c 24 98 00 00 	mov    %rcx,0x98(%rsp)
    71d8:	00 
    71d9:	48 89 10             	mov    %rdx,(%rax)
    71dc:	48 c7 40 08 00 00 00 	movq   $0x0,0x8(%rax)
    71e3:	00 
    71e4:	c6 40 10 00          	movb   $0x0,0x10(%rax)
    71e8:	e8 93 c3 ff ff       	callq  3580 <_ZNSt7__cxx1112basic_stringIcSt11char_traitsIcESaIcEEaSEOS4_@plt>
    71ed:	48 8b bc 24 90 00 00 	mov    0x90(%rsp),%rdi
    71f4:	00 
    71f5:	48 3b 7c 24 10       	cmp    0x10(%rsp),%rdi
    71fa:	74 05                	je     7201 <_ZN6cybozu4test7AutoRun3runEiPPc+0x971>
    71fc:	e8 ff c2 ff ff       	callq  3500 <_ZdlPv@plt>
    7201:	48 8b 7c 24 70       	mov    0x70(%rsp),%rdi
    7206:	4c 39 f7             	cmp    %r14,%rdi
    7209:	74 05                	je     7210 <_ZN6cybozu4test7AutoRun3runEiPPc+0x980>
    720b:	e8 f0 c2 ff ff       	callq  3500 <_ZdlPv@plt>
    7210:	e8 1b c4 ff ff       	callq  3630 <__cxa_end_catch@plt>
    7215:	e9 b1 f7 ff ff       	jmpq   69cb <_ZN6cybozu4test7AutoRun3runEiPPc+0x13b>
    721a:	f3 0f 1e fa          	endbr64 
    721e:	48 89 c5             	mov    %rax,%rbp
    7221:	eb 0c                	jmp    722f <_ZN6cybozu4test7AutoRun3runEiPPc+0x99f>
    7223:	48 8d 3d 58 de 00 00 	lea    0xde58(%rip),%rdi        # 15082 <_IO_stdin_used+0x82>
    722a:	e8 01 c2 ff ff       	callq  3430 <_ZSt20__throw_length_errorPKc@plt>
    722f:	e8 fc c3 ff ff       	callq  3630 <__cxa_end_catch@plt>
    7234:	e9 52 fd ff ff       	jmpq   6f8b <_ZN6cybozu4test7AutoRun3runEiPPc+0x6fb>
    7239:	48 89 8c 24 90 00 00 	mov    %rcx,0x90(%rsp)
    7240:	00 
    7241:	48 8b 48 10          	mov    0x10(%rax),%rcx
    7245:	48 89 8c 24 a0 00 00 	mov    %rcx,0xa0(%rsp)
    724c:	00 
    724d:	e9 6b ff ff ff       	jmpq   71bd <_ZN6cybozu4test7AutoRun3runEiPPc+0x92d>
    7252:	f3 0f 1e fa          	endbr64 
    7256:	48 89 c5             	mov    %rax,%rbp
    7259:	48 8b 7c 24 70       	mov    0x70(%rsp),%rdi
    725e:	4c 39 f7             	cmp    %r14,%rdi
    7261:	74 05                	je     7268 <_ZN6cybozu4test7AutoRun3runEiPPc+0x9d8>
    7263:	e8 98 c2 ff ff       	callq  3500 <_ZdlPv@plt>
    7268:	e8 c3 c3 ff ff       	callq  3630 <__cxa_end_catch@plt>
    726d:	e9 19 fd ff ff       	jmpq   6f8b <_ZN6cybozu4test7AutoRun3runEiPPc+0x6fb>
    7272:	66 2e 0f 1f 84 00 00 	nopw   %cs:0x0(%rax,%rax,1)
    7279:	00 00 00 
    727c:	0f 1f 40 00          	nopl   0x0(%rax)

0000000000007280 <mcl_init>:
    7280:	f3 0f 1e fa          	endbr64 
    7284:	55                   	push   %rbp
    7285:	48 8d 3d b4 1f 01 00 	lea    0x11fb4(%rip),%rdi        # 19240 <s_mcl>
    728c:	e8 5f d2 00 00       	callq  144f0 <_ZN4Code4initEv>
    7291:	31 c0                	xor    %eax,%eax
    7293:	5d                   	pop    %rbp
    7294:	c3                   	retq   
    7295:	f3 0f 1e fa          	endbr64 
    7299:	48 89 c7             	mov    %rax,%rdi
    729c:	48 89 d0             	mov    %rdx,%rax
    729f:	e9 5a c7 ff ff       	jmpq   39fe <mcl_init.cold>
    72a4:	66 2e 0f 1f 84 00 00 	nopw   %cs:0x0(%rax,%rax,1)
    72ab:	00 00 00 
    72ae:	66 90                	xchg   %ax,%ax

00000000000072b0 <_ZNK6cybozu9Exception4whatEv>:
    72b0:	f3 0f 1e fa          	endbr64 
    72b4:	48 8b 47 08          	mov    0x8(%rdi),%rax
    72b8:	c3                   	retq   
    72b9:	0f 1f 80 00 00 00 00 	nopl   0x0(%rax)

00000000000072c0 <_ZNK5Xbyak5Error4whatEv>:
    72c0:	f3 0f 1e fa          	endbr64 
    72c4:	48 63 47 08          	movslq 0x8(%rdi),%rax
    72c8:	4c 8d 05 31 df 00 00 	lea    0xdf31(%rip),%r8        # 15200 <_IO_stdin_used+0x200>
    72cf:	83 f8 2f             	cmp    $0x2f,%eax
    72d2:	7f 0b                	jg     72df <_ZNK5Xbyak5Error4whatEv+0x1f>
    72d4:	48 8d 15 65 1d 01 00 	lea    0x11d65(%rip),%rdx        # 19040 <_ZZN5Xbyak20ConvertErrorToStringEiE6errTbl>
    72db:	4c 8b 04 c2          	mov    (%rdx,%rax,8),%r8
    72df:	4c 89 c0             	mov    %r8,%rax
    72e2:	c3                   	retq   
    72e3:	66 2e 0f 1f 84 00 00 	nopw   %cs:0x0(%rax,%rax,1)
    72ea:	00 00 00 
    72ed:	0f 1f 00             	nopl   (%rax)

00000000000072f0 <_ZNK5Xbyak9Allocator10useProtectEv>:
    72f0:	f3 0f 1e fa          	endbr64 
    72f4:	b8 01 00 00 00       	mov    $0x1,%eax
    72f9:	c3                   	retq   
    72fa:	66 0f 1f 44 00 00    	nopw   0x0(%rax,%rax,1)

0000000000007300 <_ZN5Xbyak5ErrorD1Ev>:
    7300:	f3 0f 1e fa          	endbr64 
    7304:	48 8d 05 ed 17 01 00 	lea    0x117ed(%rip),%rax        # 18af8 <_ZTVN5Xbyak5ErrorE>
    730b:	48 83 c0 10          	add    $0x10,%rax
    730f:	48 89 07             	mov    %rax,(%rdi)
    7312:	e9 a9 c3 ff ff       	jmpq   36c0 <_ZNSt9exceptionD2Ev@plt>
    7317:	66 0f 1f 84 00 00 00 	nopw   0x0(%rax,%rax,1)
    731e:	00 00 

0000000000007320 <_ZN6cybozu9ExceptionD1Ev>:
    7320:	f3 0f 1e fa          	endbr64 
    7324:	48 8d 05 a5 17 01 00 	lea    0x117a5(%rip),%rax        # 18ad0 <_ZTVN6cybozu9ExceptionE>
    732b:	55                   	push   %rbp
    732c:	48 89 fd             	mov    %rdi,%rbp
    732f:	48 83 c0 10          	add    $0x10,%rax
    7333:	48 89 07             	mov    %rax,(%rdi)
    7336:	48 8b 7f 08          	mov    0x8(%rdi),%rdi
    733a:	48 8d 45 18          	lea    0x18(%rbp),%rax
    733e:	48 39 c7             	cmp    %rax,%rdi
    7341:	74 05                	je     7348 <_ZN6cybozu9ExceptionD1Ev+0x28>
    7343:	e8 b8 c1 ff ff       	callq  3500 <_ZdlPv@plt>
    7348:	48 89 ef             	mov    %rbp,%rdi
    734b:	5d                   	pop    %rbp
    734c:	e9 6f c3 ff ff       	jmpq   36c0 <_ZNSt9exceptionD2Ev@plt>
    7351:	66 2e 0f 1f 84 00 00 	nopw   %cs:0x0(%rax,%rax,1)
    7358:	00 00 00 
    735b:	0f 1f 44 00 00       	nopl   0x0(%rax,%rax,1)

0000000000007360 <_ZN5Xbyak5ErrorD0Ev>:
    7360:	f3 0f 1e fa          	endbr64 
    7364:	48 8d 05 8d 17 01 00 	lea    0x1178d(%rip),%rax        # 18af8 <_ZTVN5Xbyak5ErrorE>
    736b:	55                   	push   %rbp
    736c:	48 89 fd             	mov    %rdi,%rbp
    736f:	48 83 c0 10          	add    $0x10,%rax
    7373:	48 89 07             	mov    %rax,(%rdi)
    7376:	e8 45 c3 ff ff       	callq  36c0 <_ZNSt9exceptionD2Ev@plt>
    737b:	48 89 ef             	mov    %rbp,%rdi
    737e:	be 10 00 00 00       	mov    $0x10,%esi
    7383:	5d                   	pop    %rbp
    7384:	e9 a7 c1 ff ff       	jmpq   3530 <_ZdlPvm@plt>
    7389:	0f 1f 80 00 00 00 00 	nopl   0x0(%rax)

0000000000007390 <_ZN5Xbyak13CodeGenerator18isREG32_REG32orMEMERKNS_7OperandES3_>:
    7390:	f3 0f 1e fa          	endbr64 
    7394:	31 c0                	xor    %eax,%eax
    7396:	f6 07 80             	testb  $0x80,(%rdi)
    7399:	74 3c                	je     73d7 <_ZN5Xbyak13CodeGenerator18isREG32_REG32orMEMERKNS_7OperandES3_+0x47>
    739b:	0f b7 57 02          	movzwl 0x2(%rdi),%edx
    739f:	89 d1                	mov    %edx,%ecx
    73a1:	66 81 e1 ff 3f       	and    $0x3fff,%cx
    73a6:	83 e2 60             	and    $0x60,%edx
    73a9:	74 2c                	je     73d7 <_ZN5Xbyak13CodeGenerator18isREG32_REG32orMEMERKNS_7OperandES3_+0x47>
    73ab:	0f b7 06             	movzwl (%rsi),%eax
    73ae:	89 c2                	mov    %eax,%edx
    73b0:	66 c1 ea 06          	shr    $0x6,%dx
    73b4:	a8 80                	test   $0x80,%al
    73b6:	74 1a                	je     73d2 <_ZN5Xbyak13CodeGenerator18isREG32_REG32orMEMERKNS_7OperandES3_+0x42>
    73b8:	0f b7 46 02          	movzwl 0x2(%rsi),%eax
    73bc:	89 c6                	mov    %eax,%esi
    73be:	66 81 e6 ff 3f       	and    $0x3fff,%si
    73c3:	a8 60                	test   $0x60,%al
    73c5:	0f 95 c0             	setne  %al
    73c8:	66 39 f1             	cmp    %si,%cx
    73cb:	0f 94 c1             	sete   %cl
    73ce:	20 c8                	and    %cl,%al
    73d0:	75 05                	jne    73d7 <_ZN5Xbyak13CodeGenerator18isREG32_REG32orMEMERKNS_7OperandES3_+0x47>
    73d2:	89 d0                	mov    %edx,%eax
    73d4:	83 e0 01             	and    $0x1,%eax
    73d7:	c3                   	retq   
    73d8:	0f 1f 84 00 00 00 00 	nopl   0x0(%rax,%rax,1)
    73df:	00 

00000000000073e0 <_ZN5Xbyak13MmapAllocator4freeEPh>:
    73e0:	f3 0f 1e fa          	endbr64 
    73e4:	48 85 f6             	test   %rsi,%rsi
    73e7:	0f 84 13 01 00 00    	je     7500 <_ZN5Xbyak13MmapAllocator4freeEPh+0x120>
    73ed:	55                   	push   %rbp
    73ee:	31 d2                	xor    %edx,%edx
    73f0:	53                   	push   %rbx
    73f1:	48 89 fb             	mov    %rdi,%rbx
    73f4:	48 89 f7             	mov    %rsi,%rdi
    73f7:	48 89 f8             	mov    %rdi,%rax
    73fa:	48 83 ec 08          	sub    $0x8,%rsp
    73fe:	48 8b 73 10          	mov    0x10(%rbx),%rsi
    7402:	48 f7 f6             	div    %rsi
    7405:	48 8b 43 08          	mov    0x8(%rbx),%rax
    7409:	48 8b 04 d0          	mov    (%rax,%rdx,8),%rax
    740d:	49 89 d0             	mov    %rdx,%r8
    7410:	48 85 c0             	test   %rax,%rax
    7413:	0f 84 32 01 00 00    	je     754b <_ZN5Xbyak13MmapAllocator4freeEPh+0x16b>
    7419:	48 8b 28             	mov    (%rax),%rbp
    741c:	48 8b 4d 08          	mov    0x8(%rbp),%rcx
    7420:	eb 28                	jmp    744a <_ZN5Xbyak13MmapAllocator4freeEPh+0x6a>
    7422:	66 0f 1f 44 00 00    	nopw   0x0(%rax,%rax,1)
    7428:	48 8b 6d 00          	mov    0x0(%rbp),%rbp
    742c:	48 85 ed             	test   %rbp,%rbp
    742f:	0f 84 16 01 00 00    	je     754b <_ZN5Xbyak13MmapAllocator4freeEPh+0x16b>
    7435:	48 8b 4d 08          	mov    0x8(%rbp),%rcx
    7439:	31 d2                	xor    %edx,%edx
    743b:	48 89 c8             	mov    %rcx,%rax
    743e:	48 f7 f6             	div    %rsi
    7441:	49 39 d0             	cmp    %rdx,%r8
    7444:	0f 85 01 01 00 00    	jne    754b <_ZN5Xbyak13MmapAllocator4freeEPh+0x16b>
    744a:	48 39 cf             	cmp    %rcx,%rdi
    744d:	75 d9                	jne    7428 <_ZN5Xbyak13MmapAllocator4freeEPh+0x48>
    744f:	48 8b 75 10          	mov    0x10(%rbp),%rsi
    7453:	e8 f8 bf ff ff       	callq  3450 <munmap@plt>
    7458:	85 c0                	test   %eax,%eax
    745a:	0f 88 b6 00 00 00    	js     7516 <_ZN5Xbyak13MmapAllocator4freeEPh+0x136>
    7460:	48 8b 4b 10          	mov    0x10(%rbx),%rcx
    7464:	48 8b 45 08          	mov    0x8(%rbp),%rax
    7468:	31 d2                	xor    %edx,%edx
    746a:	4c 8b 4b 08          	mov    0x8(%rbx),%r9
    746e:	48 f7 f1             	div    %rcx
    7471:	4d 8d 14 d1          	lea    (%r9,%rdx,8),%r10
    7475:	49 89 d0             	mov    %rdx,%r8
    7478:	49 8b 02             	mov    (%r10),%rax
    747b:	48 89 c2             	mov    %rax,%rdx
    747e:	66 90                	xchg   %ax,%ax
    7480:	48 89 d7             	mov    %rdx,%rdi
    7483:	48 8b 12             	mov    (%rdx),%rdx
    7486:	48 39 d5             	cmp    %rdx,%rbp
    7489:	75 f5                	jne    7480 <_ZN5Xbyak13MmapAllocator4freeEPh+0xa0>
    748b:	48 8b 75 00          	mov    0x0(%rbp),%rsi
    748f:	48 39 f8             	cmp    %rdi,%rax
    7492:	74 3c                	je     74d0 <_ZN5Xbyak13MmapAllocator4freeEPh+0xf0>
    7494:	48 85 f6             	test   %rsi,%rsi
    7497:	74 16                	je     74af <_ZN5Xbyak13MmapAllocator4freeEPh+0xcf>
    7499:	48 8b 46 08          	mov    0x8(%rsi),%rax
    749d:	31 d2                	xor    %edx,%edx
    749f:	48 f7 f1             	div    %rcx
    74a2:	49 39 d0             	cmp    %rdx,%r8
    74a5:	74 08                	je     74af <_ZN5Xbyak13MmapAllocator4freeEPh+0xcf>
    74a7:	49 89 3c d1          	mov    %rdi,(%r9,%rdx,8)
    74ab:	48 8b 75 00          	mov    0x0(%rbp),%rsi
    74af:	48 89 37             	mov    %rsi,(%rdi)
    74b2:	48 89 ef             	mov    %rbp,%rdi
    74b5:	e8 46 c0 ff ff       	callq  3500 <_ZdlPv@plt>
    74ba:	48 83 6b 20 01       	subq   $0x1,0x20(%rbx)
    74bf:	48 83 c4 08          	add    $0x8,%rsp
    74c3:	5b                   	pop    %rbx
    74c4:	5d                   	pop    %rbp
    74c5:	c3                   	retq   
    74c6:	66 2e 0f 1f 84 00 00 	nopw   %cs:0x0(%rax,%rax,1)
    74cd:	00 00 00 
    74d0:	48 85 f6             	test   %rsi,%rsi
    74d3:	74 33                	je     7508 <_ZN5Xbyak13MmapAllocator4freeEPh+0x128>
    74d5:	48 8b 46 08          	mov    0x8(%rsi),%rax
    74d9:	31 d2                	xor    %edx,%edx
    74db:	48 f7 f1             	div    %rcx
    74de:	49 39 d0             	cmp    %rdx,%r8
    74e1:	74 cc                	je     74af <_ZN5Xbyak13MmapAllocator4freeEPh+0xcf>
    74e3:	49 89 3c d1          	mov    %rdi,(%r9,%rdx,8)
    74e7:	49 8b 02             	mov    (%r10),%rax
    74ea:	48 8d 53 18          	lea    0x18(%rbx),%rdx
    74ee:	48 39 d0             	cmp    %rdx,%rax
    74f1:	74 1d                	je     7510 <_ZN5Xbyak13MmapAllocator4freeEPh+0x130>
    74f3:	49 c7 02 00 00 00 00 	movq   $0x0,(%r10)
    74fa:	48 8b 75 00          	mov    0x0(%rbp),%rsi
    74fe:	eb af                	jmp    74af <_ZN5Xbyak13MmapAllocator4freeEPh+0xcf>
    7500:	c3                   	retq   
    7501:	0f 1f 80 00 00 00 00 	nopl   0x0(%rax)
    7508:	48 89 f8             	mov    %rdi,%rax
    750b:	eb dd                	jmp    74ea <_ZN5Xbyak13MmapAllocator4freeEPh+0x10a>
    750d:	0f 1f 00             	nopl   (%rax)
    7510:	48 89 73 18          	mov    %rsi,0x18(%rbx)
    7514:	eb dd                	jmp    74f3 <_ZN5Xbyak13MmapAllocator4freeEPh+0x113>
    7516:	bf 10 00 00 00       	mov    $0x10,%edi
    751b:	e8 00 bf ff ff       	callq  3420 <__cxa_allocate_exception@plt>
    7520:	48 8d 15 d9 fd ff ff 	lea    -0x227(%rip),%rdx        # 7300 <_ZN5Xbyak5ErrorD1Ev>
    7527:	48 8d 35 12 15 01 00 	lea    0x11512(%rip),%rsi        # 18a40 <_ZTVN10__cxxabiv120__si_class_type_infoE@CXXABI_1.3>
    752e:	48 89 c7             	mov    %rax,%rdi
    7531:	48 8d 05 c0 15 01 00 	lea    0x115c0(%rip),%rax        # 18af8 <_ZTVN5Xbyak5ErrorE>
    7538:	c7 47 08 20 00 00 00 	movl   $0x20,0x8(%rdi)
    753f:	48 83 c0 10          	add    $0x10,%rax
    7543:	48 89 07             	mov    %rax,(%rdi)
    7546:	e8 15 c1 ff ff       	callq  3660 <__cxa_throw@plt>
    754b:	bf 10 00 00 00       	mov    $0x10,%edi
    7550:	e8 cb be ff ff       	callq  3420 <__cxa_allocate_exception@plt>
    7555:	48 8d 15 a4 fd ff ff 	lea    -0x25c(%rip),%rdx        # 7300 <_ZN5Xbyak5ErrorD1Ev>
    755c:	48 8d 35 dd 14 01 00 	lea    0x114dd(%rip),%rsi        # 18a40 <_ZTVN10__cxxabiv120__si_class_type_infoE@CXXABI_1.3>
    7563:	48 89 c7             	mov    %rax,%rdi
    7566:	48 8d 05 8b 15 01 00 	lea    0x1158b(%rip),%rax        # 18af8 <_ZTVN5Xbyak5ErrorE>
    756d:	c7 47 08 0d 00 00 00 	movl   $0xd,0x8(%rdi)
    7574:	48 83 c0 10          	add    $0x10,%rax
    7578:	48 89 07             	mov    %rax,(%rdi)
    757b:	e8 e0 c0 ff ff       	callq  3660 <__cxa_throw@plt>

0000000000007580 <_ZN6cybozu9ExceptionD0Ev>:
    7580:	f3 0f 1e fa          	endbr64 
    7584:	48 8d 05 45 15 01 00 	lea    0x11545(%rip),%rax        # 18ad0 <_ZTVN6cybozu9ExceptionE>
    758b:	55                   	push   %rbp
    758c:	48 89 fd             	mov    %rdi,%rbp
    758f:	48 83 c0 10          	add    $0x10,%rax
    7593:	48 89 07             	mov    %rax,(%rdi)
    7596:	48 8b 7f 08          	mov    0x8(%rdi),%rdi
    759a:	48 8d 45 18          	lea    0x18(%rbp),%rax
    759e:	48 39 c7             	cmp    %rax,%rdi
    75a1:	74 05                	je     75a8 <_ZN6cybozu9ExceptionD0Ev+0x28>
    75a3:	e8 58 bf ff ff       	callq  3500 <_ZdlPv@plt>
    75a8:	48 89 ef             	mov    %rbp,%rdi
    75ab:	e8 10 c1 ff ff       	callq  36c0 <_ZNSt9exceptionD2Ev@plt>
    75b0:	48 89 ef             	mov    %rbp,%rdi
    75b3:	be 28 00 00 00       	mov    $0x28,%esi
    75b8:	5d                   	pop    %rbp
    75b9:	e9 72 bf ff ff       	jmpq   3530 <_ZdlPvm@plt>
    75be:	66 90                	xchg   %ax,%ax

00000000000075c0 <_ZN5Xbyak13MmapAllocatorD1Ev>:
    75c0:	f3 0f 1e fa          	endbr64 
    75c4:	55                   	push   %rbp
    75c5:	53                   	push   %rbx
    75c6:	48 89 fb             	mov    %rdi,%rbx
    75c9:	48 83 ec 08          	sub    $0x8,%rsp
    75cd:	48 8d 05 4c 15 01 00 	lea    0x1154c(%rip),%rax        # 18b20 <_ZTVN5Xbyak13MmapAllocatorE>
    75d4:	48 8b 6f 18          	mov    0x18(%rdi),%rbp
    75d8:	48 83 c0 10          	add    $0x10,%rax
    75dc:	48 89 07             	mov    %rax,(%rdi)
    75df:	48 85 ed             	test   %rbp,%rbp
    75e2:	74 15                	je     75f9 <_ZN5Xbyak13MmapAllocatorD1Ev+0x39>
    75e4:	0f 1f 40 00          	nopl   0x0(%rax)
    75e8:	48 89 ef             	mov    %rbp,%rdi
    75eb:	48 8b 6d 00          	mov    0x0(%rbp),%rbp
    75ef:	e8 0c bf ff ff       	callq  3500 <_ZdlPv@plt>
    75f4:	48 85 ed             	test   %rbp,%rbp
    75f7:	75 ef                	jne    75e8 <_ZN5Xbyak13MmapAllocatorD1Ev+0x28>
    75f9:	48 8b 43 10          	mov    0x10(%rbx),%rax
    75fd:	48 8b 7b 08          	mov    0x8(%rbx),%rdi
    7601:	31 f6                	xor    %esi,%esi
    7603:	48 83 c3 38          	add    $0x38,%rbx
    7607:	48 8d 14 c5 00 00 00 	lea    0x0(,%rax,8),%rdx
    760e:	00 
    760f:	e8 2c be ff ff       	callq  3440 <memset@plt>
    7614:	48 8b 7b d0          	mov    -0x30(%rbx),%rdi
    7618:	48 c7 43 e8 00 00 00 	movq   $0x0,-0x18(%rbx)
    761f:	00 
    7620:	48 c7 43 e0 00 00 00 	movq   $0x0,-0x20(%rbx)
    7627:	00 
    7628:	48 39 df             	cmp    %rbx,%rdi
    762b:	74 13                	je     7640 <_ZN5Xbyak13MmapAllocatorD1Ev+0x80>
    762d:	48 83 c4 08          	add    $0x8,%rsp
    7631:	5b                   	pop    %rbx
    7632:	5d                   	pop    %rbp
    7633:	e9 c8 be ff ff       	jmpq   3500 <_ZdlPv@plt>
    7638:	0f 1f 84 00 00 00 00 	nopl   0x0(%rax,%rax,1)
    763f:	00 
    7640:	48 83 c4 08          	add    $0x8,%rsp
    7644:	5b                   	pop    %rbx
    7645:	5d                   	pop    %rbp
    7646:	c3                   	retq   
    7647:	66 0f 1f 84 00 00 00 	nopw   0x0(%rax,%rax,1)
    764e:	00 00 

0000000000007650 <_ZN5Xbyak13MmapAllocatorD0Ev>:
    7650:	f3 0f 1e fa          	endbr64 
    7654:	55                   	push   %rbp
    7655:	48 89 fd             	mov    %rdi,%rbp
    7658:	53                   	push   %rbx
    7659:	48 83 ec 08          	sub    $0x8,%rsp
    765d:	48 8d 05 bc 14 01 00 	lea    0x114bc(%rip),%rax        # 18b20 <_ZTVN5Xbyak13MmapAllocatorE>
    7664:	48 8b 5f 18          	mov    0x18(%rdi),%rbx
    7668:	48 83 c0 10          	add    $0x10,%rax
    766c:	48 89 07             	mov    %rax,(%rdi)
    766f:	48 85 db             	test   %rbx,%rbx
    7672:	74 14                	je     7688 <_ZN5Xbyak13MmapAllocatorD0Ev+0x38>
    7674:	0f 1f 40 00          	nopl   0x0(%rax)
    7678:	48 89 df             	mov    %rbx,%rdi
    767b:	48 8b 1b             	mov    (%rbx),%rbx
    767e:	e8 7d be ff ff       	callq  3500 <_ZdlPv@plt>
    7683:	48 85 db             	test   %rbx,%rbx
    7686:	75 f0                	jne    7678 <_ZN5Xbyak13MmapAllocatorD0Ev+0x28>
    7688:	48 8b 45 10          	mov    0x10(%rbp),%rax
    768c:	48 8b 7d 08          	mov    0x8(%rbp),%rdi
    7690:	31 f6                	xor    %esi,%esi
    7692:	48 8d 14 c5 00 00 00 	lea    0x0(,%rax,8),%rdx
    7699:	00 
    769a:	e8 a1 bd ff ff       	callq  3440 <memset@plt>
    769f:	48 8b 7d 08          	mov    0x8(%rbp),%rdi
    76a3:	48 8d 45 38          	lea    0x38(%rbp),%rax
    76a7:	48 c7 45 20 00 00 00 	movq   $0x0,0x20(%rbp)
    76ae:	00 
    76af:	48 c7 45 18 00 00 00 	movq   $0x0,0x18(%rbp)
    76b6:	00 
    76b7:	48 39 c7             	cmp    %rax,%rdi
    76ba:	74 05                	je     76c1 <_ZN5Xbyak13MmapAllocatorD0Ev+0x71>
    76bc:	e8 3f be ff ff       	callq  3500 <_ZdlPv@plt>
    76c1:	48 83 c4 08          	add    $0x8,%rsp
    76c5:	48 89 ef             	mov    %rbp,%rdi
    76c8:	be 40 00 00 00       	mov    $0x40,%esi
    76cd:	5b                   	pop    %rbx
    76ce:	5d                   	pop    %rbp
    76cf:	e9 5c be ff ff       	jmpq   3530 <_ZdlPvm@plt>
    76d4:	66 2e 0f 1f 84 00 00 	nopw   %cs:0x0(%rax,%rax,1)
    76db:	00 00 00 
    76de:	66 90                	xchg   %ax,%ax

00000000000076e0 <_ZN5Xbyak9CodeArrayD1Ev>:
    76e0:	f3 0f 1e fa          	endbr64 
    76e4:	48 8d 05 6d 14 01 00 	lea    0x1146d(%rip),%rax        # 18b58 <_ZTVN5Xbyak9CodeArrayE>
    76eb:	41 54                	push   %r12
    76ed:	55                   	push   %rbp
    76ee:	48 89 fd             	mov    %rdi,%rbp
    76f1:	48 83 c0 10          	add    $0x10,%rax
    76f5:	53                   	push   %rbx
    76f6:	48 89 07             	mov    %rax,(%rdi)
    76f9:	8b 47 20             	mov    0x20(%rdi),%eax
    76fc:	83 e8 02             	sub    $0x2,%eax
    76ff:	83 f8 01             	cmp    $0x1,%eax
    7702:	0f 86 90 00 00 00    	jbe    7798 <_ZN5Xbyak9CodeArrayD1Ev+0xb8>
    7708:	48 8d 05 11 14 01 00 	lea    0x11411(%rip),%rax        # 18b20 <_ZTVN5Xbyak13MmapAllocatorE>
    770f:	48 8b 5d 40          	mov    0x40(%rbp),%rbx
    7713:	48 83 c0 10          	add    $0x10,%rax
    7717:	48 89 45 28          	mov    %rax,0x28(%rbp)
    771b:	48 85 db             	test   %rbx,%rbx
    771e:	74 10                	je     7730 <_ZN5Xbyak9CodeArrayD1Ev+0x50>
    7720:	48 89 df             	mov    %rbx,%rdi
    7723:	48 8b 1b             	mov    (%rbx),%rbx
    7726:	e8 d5 bd ff ff       	callq  3500 <_ZdlPv@plt>
    772b:	48 85 db             	test   %rbx,%rbx
    772e:	75 f0                	jne    7720 <_ZN5Xbyak9CodeArrayD1Ev+0x40>
    7730:	48 8b 45 38          	mov    0x38(%rbp),%rax
    7734:	48 8b 7d 30          	mov    0x30(%rbp),%rdi
    7738:	31 f6                	xor    %esi,%esi
    773a:	48 8d 14 c5 00 00 00 	lea    0x0(,%rax,8),%rdx
    7741:	00 
    7742:	e8 f9 bc ff ff       	callq  3440 <memset@plt>
    7747:	48 8b 7d 30          	mov    0x30(%rbp),%rdi
    774b:	48 8d 45 60          	lea    0x60(%rbp),%rax
    774f:	48 c7 45 48 00 00 00 	movq   $0x0,0x48(%rbp)
    7756:	00 
    7757:	48 c7 45 40 00 00 00 	movq   $0x0,0x40(%rbp)
    775e:	00 
    775f:	48 39 c7             	cmp    %rax,%rdi
    7762:	74 05                	je     7769 <_ZN5Xbyak9CodeArrayD1Ev+0x89>
    7764:	e8 97 bd ff ff       	callq  3500 <_ZdlPv@plt>
    7769:	48 8b 5d 08          	mov    0x8(%rbp),%rbx
    776d:	48 83 c5 08          	add    $0x8,%rbp
    7771:	48 39 eb             	cmp    %rbp,%rbx
    7774:	74 1a                	je     7790 <_ZN5Xbyak9CodeArrayD1Ev+0xb0>
    7776:	66 2e 0f 1f 84 00 00 	nopw   %cs:0x0(%rax,%rax,1)
    777d:	00 00 00 
    7780:	48 89 df             	mov    %rbx,%rdi
    7783:	48 8b 1b             	mov    (%rbx),%rbx
    7786:	e8 75 bd ff ff       	callq  3500 <_ZdlPv@plt>
    778b:	48 39 eb             	cmp    %rbp,%rbx
    778e:	75 f0                	jne    7780 <_ZN5Xbyak9CodeArrayD1Ev+0xa0>
    7790:	5b                   	pop    %rbx
    7791:	5d                   	pop    %rbp
    7792:	41 5c                	pop    %r12
    7794:	c3                   	retq   
    7795:	0f 1f 00             	nopl   (%rax)
    7798:	48 8b 7f 68          	mov    0x68(%rdi),%rdi
    779c:	48 8b 07             	mov    (%rdi),%rax
    779f:	48 8b 40 20          	mov    0x20(%rax),%rax
    77a3:	48 3b 05 fe 17 01 00 	cmp    0x117fe(%rip),%rax        # 18fa8 <_GLOBAL_OFFSET_TABLE_+0x1d0>
    77aa:	75 3f                	jne    77eb <_ZN5Xbyak9CodeArrayD1Ev+0x10b>
    77ac:	bf 1e 00 00 00       	mov    $0x1e,%edi
    77b1:	4c 8b 65 78          	mov    0x78(%rbp),%r12
    77b5:	48 8b 5d 70          	mov    0x70(%rbp),%rbx
    77b9:	e8 b2 bc ff ff       	callq  3470 <sysconf@plt>
    77be:	ba 03 00 00 00       	mov    $0x3,%edx
    77c3:	48 f7 d8             	neg    %rax
    77c6:	4a 8d 34 23          	lea    (%rbx,%r12,1),%rsi
    77ca:	48 89 c7             	mov    %rax,%rdi
    77cd:	4c 21 e7             	and    %r12,%rdi
    77d0:	48 29 fe             	sub    %rdi,%rsi
    77d3:	e8 48 be ff ff       	callq  3620 <mprotect@plt>
    77d8:	48 8b 7d 68          	mov    0x68(%rbp),%rdi
    77dc:	48 8b 75 78          	mov    0x78(%rbp),%rsi
    77e0:	48 8b 07             	mov    (%rdi),%rax
    77e3:	ff 50 08             	callq  *0x8(%rax)
    77e6:	e9 1d ff ff ff       	jmpq   7708 <_ZN5Xbyak9CodeArrayD1Ev+0x28>
    77eb:	ff d0                	callq  *%rax
    77ed:	84 c0                	test   %al,%al
    77ef:	74 e7                	je     77d8 <_ZN5Xbyak9CodeArrayD1Ev+0xf8>
    77f1:	eb b9                	jmp    77ac <_ZN5Xbyak9CodeArrayD1Ev+0xcc>
    77f3:	66 2e 0f 1f 84 00 00 	nopw   %cs:0x0(%rax,%rax,1)
    77fa:	00 00 00 
    77fd:	0f 1f 00             	nopl   (%rax)

0000000000007800 <_ZN5Xbyak9CodeArrayD0Ev>:
    7800:	f3 0f 1e fa          	endbr64 
    7804:	48 8d 05 4d 13 01 00 	lea    0x1134d(%rip),%rax        # 18b58 <_ZTVN5Xbyak9CodeArrayE>
    780b:	41 54                	push   %r12
    780d:	55                   	push   %rbp
    780e:	48 89 fd             	mov    %rdi,%rbp
    7811:	48 83 c0 10          	add    $0x10,%rax
    7815:	53                   	push   %rbx
    7816:	48 89 07             	mov    %rax,(%rdi)
    7819:	8b 47 20             	mov    0x20(%rdi),%eax
    781c:	83 e8 02             	sub    $0x2,%eax
    781f:	83 f8 01             	cmp    $0x1,%eax
    7822:	0f 86 a0 00 00 00    	jbe    78c8 <_ZN5Xbyak9CodeArrayD0Ev+0xc8>
    7828:	48 8d 05 f1 12 01 00 	lea    0x112f1(%rip),%rax        # 18b20 <_ZTVN5Xbyak13MmapAllocatorE>
    782f:	48 8b 5d 40          	mov    0x40(%rbp),%rbx
    7833:	48 83 c0 10          	add    $0x10,%rax
    7837:	48 89 45 28          	mov    %rax,0x28(%rbp)
    783b:	48 85 db             	test   %rbx,%rbx
    783e:	74 10                	je     7850 <_ZN5Xbyak9CodeArrayD0Ev+0x50>
    7840:	48 89 df             	mov    %rbx,%rdi
    7843:	48 8b 1b             	mov    (%rbx),%rbx
    7846:	e8 b5 bc ff ff       	callq  3500 <_ZdlPv@plt>
    784b:	48 85 db             	test   %rbx,%rbx
    784e:	75 f0                	jne    7840 <_ZN5Xbyak9CodeArrayD0Ev+0x40>
    7850:	48 8b 45 38          	mov    0x38(%rbp),%rax
    7854:	48 8b 7d 30          	mov    0x30(%rbp),%rdi
    7858:	31 f6                	xor    %esi,%esi
    785a:	48 8d 14 c5 00 00 00 	lea    0x0(,%rax,8),%rdx
    7861:	00 
    7862:	e8 d9 bb ff ff       	callq  3440 <memset@plt>
    7867:	48 8b 7d 30          	mov    0x30(%rbp),%rdi
    786b:	48 8d 45 60          	lea    0x60(%rbp),%rax
    786f:	48 c7 45 48 00 00 00 	movq   $0x0,0x48(%rbp)
    7876:	00 
    7877:	48 c7 45 40 00 00 00 	movq   $0x0,0x40(%rbp)
    787e:	00 
    787f:	48 39 c7             	cmp    %rax,%rdi
    7882:	74 05                	je     7889 <_ZN5Xbyak9CodeArrayD0Ev+0x89>
    7884:	e8 77 bc ff ff       	callq  3500 <_ZdlPv@plt>
    7889:	48 8b 5d 08          	mov    0x8(%rbp),%rbx
    788d:	4c 8d 65 08          	lea    0x8(%rbp),%r12
    7891:	4c 39 e3             	cmp    %r12,%rbx
    7894:	74 1a                	je     78b0 <_ZN5Xbyak9CodeArrayD0Ev+0xb0>
    7896:	66 2e 0f 1f 84 00 00 	nopw   %cs:0x0(%rax,%rax,1)
    789d:	00 00 00 
    78a0:	48 89 df             	mov    %rbx,%rdi
    78a3:	48 8b 1b             	mov    (%rbx),%rbx
    78a6:	e8 55 bc ff ff       	callq  3500 <_ZdlPv@plt>
    78ab:	4c 39 e3             	cmp    %r12,%rbx
    78ae:	75 f0                	jne    78a0 <_ZN5Xbyak9CodeArrayD0Ev+0xa0>
    78b0:	5b                   	pop    %rbx
    78b1:	48 89 ef             	mov    %rbp,%rdi
    78b4:	be 90 00 00 00       	mov    $0x90,%esi
    78b9:	5d                   	pop    %rbp
    78ba:	41 5c                	pop    %r12
    78bc:	e9 6f bc ff ff       	jmpq   3530 <_ZdlPvm@plt>
    78c1:	0f 1f 80 00 00 00 00 	nopl   0x0(%rax)
    78c8:	48 8b 7f 68          	mov    0x68(%rdi),%rdi
    78cc:	48 8b 07             	mov    (%rdi),%rax
    78cf:	48 8b 40 20          	mov    0x20(%rax),%rax
    78d3:	48 3b 05 ce 16 01 00 	cmp    0x116ce(%rip),%rax        # 18fa8 <_GLOBAL_OFFSET_TABLE_+0x1d0>
    78da:	75 44                	jne    7920 <_ZN5Xbyak9CodeArrayD0Ev+0x120>
    78dc:	bf 1e 00 00 00       	mov    $0x1e,%edi
    78e1:	4c 8b 65 78          	mov    0x78(%rbp),%r12
    78e5:	48 8b 5d 70          	mov    0x70(%rbp),%rbx
    78e9:	e8 82 bb ff ff       	callq  3470 <sysconf@plt>
    78ee:	ba 03 00 00 00       	mov    $0x3,%edx
    78f3:	48 f7 d8             	neg    %rax
    78f6:	4a 8d 34 23          	lea    (%rbx,%r12,1),%rsi
    78fa:	48 89 c7             	mov    %rax,%rdi
    78fd:	4c 21 e7             	and    %r12,%rdi
    7900:	48 29 fe             	sub    %rdi,%rsi
    7903:	e8 18 bd ff ff       	callq  3620 <mprotect@plt>
    7908:	48 8b 7d 68          	mov    0x68(%rbp),%rdi
    790c:	48 8b 75 78          	mov    0x78(%rbp),%rsi
    7910:	48 8b 07             	mov    (%rdi),%rax
    7913:	ff 50 08             	callq  *0x8(%rax)
    7916:	e9 0d ff ff ff       	jmpq   7828 <_ZN5Xbyak9CodeArrayD0Ev+0x28>
    791b:	0f 1f 44 00 00       	nopl   0x0(%rax,%rax,1)
    7920:	ff d0                	callq  *%rax
    7922:	84 c0                	test   %al,%al
    7924:	74 e2                	je     7908 <_ZN5Xbyak9CodeArrayD0Ev+0x108>
    7926:	eb b4                	jmp    78dc <_ZN5Xbyak9CodeArrayD0Ev+0xdc>
    7928:	0f 1f 84 00 00 00 00 	nopl   0x0(%rax,%rax,1)
    792f:	00 

0000000000007930 <_ZN6cybozu9ExceptionC1ERKNSt7__cxx1112basic_stringIcSt11char_traitsIcESaIcEEEb>:
    7930:	f3 0f 1e fa          	endbr64 
    7934:	41 55                	push   %r13
    7936:	41 54                	push   %r12
    7938:	55                   	push   %rbp
    7939:	48 89 fd             	mov    %rdi,%rbp
    793c:	48 83 c7 18          	add    $0x18,%rdi
    7940:	48 83 ec 10          	sub    $0x10,%rsp
    7944:	48 8d 05 85 11 01 00 	lea    0x11185(%rip),%rax        # 18ad0 <_ZTVN6cybozu9ExceptionE>
    794b:	4c 8b 66 08          	mov    0x8(%rsi),%r12
    794f:	48 83 c0 10          	add    $0x10,%rax
    7953:	48 89 47 e8          	mov    %rax,-0x18(%rdi)
    7957:	48 89 7d 08          	mov    %rdi,0x8(%rbp)
    795b:	4c 8b 2e             	mov    (%rsi),%r13
    795e:	4c 89 e8             	mov    %r13,%rax
    7961:	4c 01 e0             	add    %r12,%rax
    7964:	74 05                	je     796b <_ZN6cybozu9ExceptionC1ERKNSt7__cxx1112basic_stringIcSt11char_traitsIcESaIcEEEb+0x3b>
    7966:	4d 85 ed             	test   %r13,%r13
    7969:	74 7b                	je     79e6 <_ZN6cybozu9ExceptionC1ERKNSt7__cxx1112basic_stringIcSt11char_traitsIcESaIcEEEb+0xb6>
    796b:	4c 89 64 24 08       	mov    %r12,0x8(%rsp)
    7970:	49 83 fc 0f          	cmp    $0xf,%r12
    7974:	77 3a                	ja     79b0 <_ZN6cybozu9ExceptionC1ERKNSt7__cxx1112basic_stringIcSt11char_traitsIcESaIcEEEb+0x80>
    7976:	49 83 fc 01          	cmp    $0x1,%r12
    797a:	75 24                	jne    79a0 <_ZN6cybozu9ExceptionC1ERKNSt7__cxx1112basic_stringIcSt11char_traitsIcESaIcEEEb+0x70>
    797c:	41 0f b6 45 00       	movzbl 0x0(%r13),%eax
    7981:	88 45 18             	mov    %al,0x18(%rbp)
    7984:	4c 89 65 10          	mov    %r12,0x10(%rbp)
    7988:	42 c6 04 27 00       	movb   $0x0,(%rdi,%r12,1)
    798d:	48 83 c4 10          	add    $0x10,%rsp
    7991:	5d                   	pop    %rbp
    7992:	41 5c                	pop    %r12
    7994:	41 5d                	pop    %r13
    7996:	c3                   	retq   
    7997:	66 0f 1f 84 00 00 00 	nopw   0x0(%rax,%rax,1)
    799e:	00 00 
    79a0:	4d 85 e4             	test   %r12,%r12
    79a3:	74 df                	je     7984 <_ZN6cybozu9ExceptionC1ERKNSt7__cxx1112basic_stringIcSt11char_traitsIcESaIcEEEb+0x54>
    79a5:	eb 29                	jmp    79d0 <_ZN6cybozu9ExceptionC1ERKNSt7__cxx1112basic_stringIcSt11char_traitsIcESaIcEEEb+0xa0>
    79a7:	66 0f 1f 84 00 00 00 	nopw   0x0(%rax,%rax,1)
    79ae:	00 00 
    79b0:	48 8d 74 24 08       	lea    0x8(%rsp),%rsi
    79b5:	48 8d 7d 08          	lea    0x8(%rbp),%rdi
    79b9:	31 d2                	xor    %edx,%edx
    79bb:	e8 e0 bc ff ff       	callq  36a0 <_ZNSt7__cxx1112basic_stringIcSt11char_traitsIcESaIcEE9_M_createERmm@plt>
    79c0:	48 89 45 08          	mov    %rax,0x8(%rbp)
    79c4:	48 89 c7             	mov    %rax,%rdi
    79c7:	48 8b 44 24 08       	mov    0x8(%rsp),%rax
    79cc:	48 89 45 18          	mov    %rax,0x18(%rbp)
    79d0:	4c 89 e2             	mov    %r12,%rdx
    79d3:	4c 89 ee             	mov    %r13,%rsi
    79d6:	e8 e5 ba ff ff       	callq  34c0 <memcpy@plt>
    79db:	4c 8b 64 24 08       	mov    0x8(%rsp),%r12
    79e0:	48 8b 7d 08          	mov    0x8(%rbp),%rdi
    79e4:	eb 9e                	jmp    7984 <_ZN6cybozu9ExceptionC1ERKNSt7__cxx1112basic_stringIcSt11char_traitsIcESaIcEEEb+0x54>
    79e6:	48 8d 3d ab d6 00 00 	lea    0xd6ab(%rip),%rdi        # 15098 <_IO_stdin_used+0x98>
    79ed:	e8 ae ba ff ff       	callq  34a0 <_ZSt19__throw_logic_errorPKc@plt>
    79f2:	f3 0f 1e fa          	endbr64 
    79f6:	49 89 c4             	mov    %rax,%r12
    79f9:	48 89 ef             	mov    %rbp,%rdi
    79fc:	e8 bf bc ff ff       	callq  36c0 <_ZNSt9exceptionD2Ev@plt>
    7a01:	4c 89 e7             	mov    %r12,%rdi
    7a04:	e8 77 bc ff ff       	callq  3680 <_Unwind_Resume@plt>
    7a09:	0f 1f 80 00 00 00 00 	nopl   0x0(%rax)

0000000000007a10 <_ZN3mcl2fp10decToArrayEPmmPKcm>:
    7a10:	f3 0f 1e fa          	endbr64 
    7a14:	55                   	push   %rbp
    7a15:	48 8d 04 f5 17 00 00 	lea    0x17(,%rsi,8),%rax
    7a1c:	00 
    7a1d:	49 89 d2             	mov    %rdx,%r10
    7a20:	48 89 c2             	mov    %rax,%rdx
    7a23:	48 25 00 f0 ff ff    	and    $0xfffffffffffff000,%rax
    7a29:	48 83 e2 f0          	and    $0xfffffffffffffff0,%rdx
    7a2d:	48 89 e5             	mov    %rsp,%rbp
    7a30:	41 57                	push   %r15
    7a32:	41 56                	push   %r14
    7a34:	41 55                	push   %r13
    7a36:	41 54                	push   %r12
    7a38:	53                   	push   %rbx
    7a39:	48 89 f3             	mov    %rsi,%rbx
    7a3c:	48 83 ec 08          	sub    $0x8,%rsp
    7a40:	48 89 e6             	mov    %rsp,%rsi
    7a43:	48 29 c6             	sub    %rax,%rsi
    7a46:	48 89 f0             	mov    %rsi,%rax
    7a49:	48 39 c4             	cmp    %rax,%rsp
    7a4c:	74 15                	je     7a63 <_ZN3mcl2fp10decToArrayEPmmPKcm+0x53>
    7a4e:	48 81 ec 00 10 00 00 	sub    $0x1000,%rsp
    7a55:	48 83 8c 24 f8 0f 00 	orq    $0x0,0xff8(%rsp)
    7a5c:	00 00 
    7a5e:	48 39 c4             	cmp    %rax,%rsp
    7a61:	75 eb                	jne    7a4e <_ZN3mcl2fp10decToArrayEPmmPKcm+0x3e>
    7a63:	81 e2 ff 0f 00 00    	and    $0xfff,%edx
    7a69:	48 29 d4             	sub    %rdx,%rsp
    7a6c:	48 85 d2             	test   %rdx,%rdx
    7a6f:	0f 85 3b 03 00 00    	jne    7db0 <_ZN3mcl2fp10decToArrayEPmmPKcm+0x3a0>
    7a75:	4c 8d 4c 24 0f       	lea    0xf(%rsp),%r9
    7a7a:	49 83 e1 f0          	and    $0xfffffffffffffff0,%r9
    7a7e:	48 01 db             	add    %rbx,%rbx
    7a81:	0f 84 71 02 00 00    	je     7cf8 <_ZN3mcl2fp10decToArrayEPmmPKcm+0x2e8>
    7a87:	41 c7 01 00 00 00 00 	movl   $0x0,(%r9)
    7a8e:	48 85 c9             	test   %rcx,%rcx
    7a91:	0f 84 36 03 00 00    	je     7dcd <_ZN3mcl2fp10decToArrayEPmmPKcm+0x3bd>
    7a97:	49 bc 8f e3 38 8e e3 	movabs $0xe38e38e38e38e38f,%r12
    7a9e:	38 8e e3 
    7aa1:	be 01 00 00 00       	mov    $0x1,%esi
    7aa6:	66 2e 0f 1f 84 00 00 	nopw   %cs:0x0(%rax,%rax,1)
    7aad:	00 00 00 
    7ab0:	48 89 c8             	mov    %rcx,%rax
    7ab3:	49 f7 e4             	mul    %r12
    7ab6:	48 89 c8             	mov    %rcx,%rax
    7ab9:	49 89 d0             	mov    %rdx,%r8
    7abc:	48 83 e2 f8          	and    $0xfffffffffffffff8,%rdx
    7ac0:	49 c1 e8 03          	shr    $0x3,%r8
    7ac4:	49 01 d0             	add    %rdx,%r8
    7ac7:	4c 29 c0             	sub    %r8,%rax
    7aca:	49 89 c0             	mov    %rax,%r8
    7acd:	41 0f be 02          	movsbl (%r10),%eax
    7ad1:	8d 50 d0             	lea    -0x30(%rax),%edx
    7ad4:	0f 85 26 02 00 00    	jne    7d00 <_ZN3mcl2fp10decToArrayEPmmPKcm+0x2f0>
    7ada:	80 fa 09             	cmp    $0x9,%dl
    7add:	0f 87 15 02 00 00    	ja     7cf8 <_ZN3mcl2fp10decToArrayEPmmPKcm+0x2e8>
    7ae3:	41 0f be 52 01       	movsbl 0x1(%r10),%edx
    7ae8:	83 e8 30             	sub    $0x30,%eax
    7aeb:	44 8d 42 d0          	lea    -0x30(%rdx),%r8d
    7aef:	41 80 f8 09          	cmp    $0x9,%r8b
    7af3:	0f 87 ff 01 00 00    	ja     7cf8 <_ZN3mcl2fp10decToArrayEPmmPKcm+0x2e8>
    7af9:	8d 04 80             	lea    (%rax,%rax,4),%eax
    7afc:	8d 54 42 d0          	lea    -0x30(%rdx,%rax,2),%edx
    7b00:	41 0f be 42 02       	movsbl 0x2(%r10),%eax
    7b05:	44 8d 40 d0          	lea    -0x30(%rax),%r8d
    7b09:	41 80 f8 09          	cmp    $0x9,%r8b
    7b0d:	0f 87 e5 01 00 00    	ja     7cf8 <_ZN3mcl2fp10decToArrayEPmmPKcm+0x2e8>
    7b13:	8d 14 92             	lea    (%rdx,%rdx,4),%edx
    7b16:	41 b8 09 00 00 00    	mov    $0x9,%r8d
    7b1c:	8d 44 50 d0          	lea    -0x30(%rax,%rdx,2),%eax
    7b20:	41 0f be 52 03       	movsbl 0x3(%r10),%edx
    7b25:	44 8d 5a d0          	lea    -0x30(%rdx),%r11d
    7b29:	41 80 fb 09          	cmp    $0x9,%r11b
    7b2d:	0f 87 c5 01 00 00    	ja     7cf8 <_ZN3mcl2fp10decToArrayEPmmPKcm+0x2e8>
    7b33:	8d 04 80             	lea    (%rax,%rax,4),%eax
    7b36:	8d 44 42 d0          	lea    -0x30(%rdx,%rax,2),%eax
    7b3a:	49 83 f8 04          	cmp    $0x4,%r8
    7b3e:	0f 84 a4 00 00 00    	je     7be8 <_ZN3mcl2fp10decToArrayEPmmPKcm+0x1d8>
    7b44:	41 0f be 52 04       	movsbl 0x4(%r10),%edx
    7b49:	44 8d 5a d0          	lea    -0x30(%rdx),%r11d
    7b4d:	41 80 fb 09          	cmp    $0x9,%r11b
    7b51:	0f 87 a1 01 00 00    	ja     7cf8 <_ZN3mcl2fp10decToArrayEPmmPKcm+0x2e8>
    7b57:	8d 04 80             	lea    (%rax,%rax,4),%eax
    7b5a:	8d 44 42 d0          	lea    -0x30(%rdx,%rax,2),%eax
    7b5e:	49 83 f8 05          	cmp    $0x5,%r8
    7b62:	0f 84 80 00 00 00    	je     7be8 <_ZN3mcl2fp10decToArrayEPmmPKcm+0x1d8>
    7b68:	41 0f be 52 05       	movsbl 0x5(%r10),%edx
    7b6d:	44 8d 5a d0          	lea    -0x30(%rdx),%r11d
    7b71:	41 80 fb 09          	cmp    $0x9,%r11b
    7b75:	0f 87 7d 01 00 00    	ja     7cf8 <_ZN3mcl2fp10decToArrayEPmmPKcm+0x2e8>
    7b7b:	8d 04 80             	lea    (%rax,%rax,4),%eax
    7b7e:	8d 44 42 d0          	lea    -0x30(%rdx,%rax,2),%eax
    7b82:	49 83 f8 06          	cmp    $0x6,%r8
    7b86:	74 60                	je     7be8 <_ZN3mcl2fp10decToArrayEPmmPKcm+0x1d8>
    7b88:	41 0f be 52 06       	movsbl 0x6(%r10),%edx
    7b8d:	44 8d 5a d0          	lea    -0x30(%rdx),%r11d
    7b91:	41 80 fb 09          	cmp    $0x9,%r11b
    7b95:	0f 87 5d 01 00 00    	ja     7cf8 <_ZN3mcl2fp10decToArrayEPmmPKcm+0x2e8>
    7b9b:	8d 04 80             	lea    (%rax,%rax,4),%eax
    7b9e:	8d 44 42 d0          	lea    -0x30(%rdx,%rax,2),%eax
    7ba2:	49 83 f8 07          	cmp    $0x7,%r8
    7ba6:	74 40                	je     7be8 <_ZN3mcl2fp10decToArrayEPmmPKcm+0x1d8>
    7ba8:	41 0f be 52 07       	movsbl 0x7(%r10),%edx
    7bad:	44 8d 5a d0          	lea    -0x30(%rdx),%r11d
    7bb1:	41 80 fb 09          	cmp    $0x9,%r11b
    7bb5:	0f 87 3d 01 00 00    	ja     7cf8 <_ZN3mcl2fp10decToArrayEPmmPKcm+0x2e8>
    7bbb:	8d 04 80             	lea    (%rax,%rax,4),%eax
    7bbe:	8d 44 42 d0          	lea    -0x30(%rdx,%rax,2),%eax
    7bc2:	49 83 f8 08          	cmp    $0x8,%r8
    7bc6:	74 20                	je     7be8 <_ZN3mcl2fp10decToArrayEPmmPKcm+0x1d8>
    7bc8:	41 0f be 52 08       	movsbl 0x8(%r10),%edx
    7bcd:	44 8d 42 d0          	lea    -0x30(%rdx),%r8d
    7bd1:	41 80 f8 09          	cmp    $0x9,%r8b
    7bd5:	0f 87 1d 01 00 00    	ja     7cf8 <_ZN3mcl2fp10decToArrayEPmmPKcm+0x2e8>
    7bdb:	8d 04 80             	lea    (%rax,%rax,4),%eax
    7bde:	41 b8 09 00 00 00    	mov    $0x9,%r8d
    7be4:	8d 44 42 d0          	lea    -0x30(%rdx,%rax,2),%eax
    7be8:	41 8b 11             	mov    (%r9),%edx
    7beb:	4d 8d 59 04          	lea    0x4(%r9),%r11
    7bef:	48 69 d2 00 ca 9a 3b 	imul   $0x3b9aca00,%rdx,%rdx
    7bf6:	49 89 d6             	mov    %rdx,%r14
    7bf9:	41 89 11             	mov    %edx,(%r9)
    7bfc:	49 c1 ee 20          	shr    $0x20,%r14
    7c00:	4d 89 f7             	mov    %r14,%r15
    7c03:	4d 8d 34 b1          	lea    (%r9,%rsi,4),%r14
    7c07:	48 83 fe 01          	cmp    $0x1,%rsi
    7c0b:	74 36                	je     7c43 <_ZN3mcl2fp10decToArrayEPmmPKcm+0x233>
    7c0d:	0f 1f 00             	nopl   (%rax)
    7c10:	41 8b 13             	mov    (%r11),%edx
    7c13:	48 69 d2 00 ca 9a 3b 	imul   $0x3b9aca00,%rdx,%rdx
    7c1a:	49 89 d5             	mov    %rdx,%r13
    7c1d:	49 c1 ed 20          	shr    $0x20,%r13
    7c21:	44 01 fa             	add    %r15d,%edx
    7c24:	41 0f 92 c7          	setb   %r15b
    7c28:	41 89 13             	mov    %edx,(%r11)
    7c2b:	45 0f b6 ff          	movzbl %r15b,%r15d
    7c2f:	41 83 ff 01          	cmp    $0x1,%r15d
    7c33:	45 89 ef             	mov    %r13d,%r15d
    7c36:	41 83 df ff          	sbb    $0xffffffff,%r15d
    7c3a:	49 83 c3 04          	add    $0x4,%r11
    7c3e:	4d 39 de             	cmp    %r11,%r14
    7c41:	75 cd                	jne    7c10 <_ZN3mcl2fp10decToArrayEPmmPKcm+0x200>
    7c43:	45 85 ff             	test   %r15d,%r15d
    7c46:	0f 84 14 01 00 00    	je     7d60 <_ZN3mcl2fp10decToArrayEPmmPKcm+0x350>
    7c4c:	48 39 f3             	cmp    %rsi,%rbx
    7c4f:	0f 84 a3 00 00 00    	je     7cf8 <_ZN3mcl2fp10decToArrayEPmmPKcm+0x2e8>
    7c55:	45 89 3c b1          	mov    %r15d,(%r9,%rsi,4)
    7c59:	41 03 01             	add    (%r9),%eax
    7c5c:	4c 8d 5e 01          	lea    0x1(%rsi),%r11
    7c60:	41 89 01             	mov    %eax,(%r9)
    7c63:	73 1f                	jae    7c84 <_ZN3mcl2fp10decToArrayEPmmPKcm+0x274>
    7c65:	b8 01 00 00 00       	mov    $0x1,%eax
    7c6a:	eb 11                	jmp    7c7d <_ZN3mcl2fp10decToArrayEPmmPKcm+0x26d>
    7c6c:	0f 1f 40 00          	nopl   0x0(%rax)
    7c70:	48 83 c0 01          	add    $0x1,%rax
    7c74:	4c 39 d8             	cmp    %r11,%rax
    7c77:	0f 83 03 01 00 00    	jae    7d80 <_ZN3mcl2fp10decToArrayEPmmPKcm+0x370>
    7c7d:	41 83 04 81 01       	addl   $0x1,(%r9,%rax,4)
    7c82:	74 ec                	je     7c70 <_ZN3mcl2fp10decToArrayEPmmPKcm+0x260>
    7c84:	4c 89 de             	mov    %r11,%rsi
    7c87:	4d 01 c2             	add    %r8,%r10
    7c8a:	4c 29 c1             	sub    %r8,%rcx
    7c8d:	0f 85 1d fe ff ff    	jne    7ab0 <_ZN3mcl2fp10decToArrayEPmmPKcm+0xa0>
    7c93:	40 f6 c6 01          	test   $0x1,%sil
    7c97:	0f 84 45 01 00 00    	je     7de2 <_ZN3mcl2fp10decToArrayEPmmPKcm+0x3d2>
    7c9d:	48 8d 04 b5 00 00 00 	lea    0x0(,%rsi,4),%rax
    7ca4:	00 
    7ca5:	48 83 c6 01          	add    $0x1,%rsi
    7ca9:	49 89 f2             	mov    %rsi,%r10
    7cac:	49 d1 ea             	shr    %r10
    7caf:	41 c7 04 01 00 00 00 	movl   $0x0,(%r9,%rax,1)
    7cb6:	00 
    7cb7:	31 c0                	xor    %eax,%eax
    7cb9:	0f 1f 80 00 00 00 00 	nopl   0x0(%rax)
    7cc0:	41 8b 54 81 04       	mov    0x4(%r9,%rax,4),%edx
    7cc5:	45 8b 04 81          	mov    (%r9,%rax,4),%r8d
    7cc9:	48 89 c1             	mov    %rax,%rcx
    7ccc:	48 83 c0 02          	add    $0x2,%rax
    7cd0:	48 d1 e9             	shr    %rcx
    7cd3:	48 c1 e2 20          	shl    $0x20,%rdx
    7cd7:	4c 09 c2             	or     %r8,%rdx
    7cda:	48 89 14 cf          	mov    %rdx,(%rdi,%rcx,8)
    7cde:	48 39 f0             	cmp    %rsi,%rax
    7ce1:	72 dd                	jb     7cc0 <_ZN3mcl2fp10decToArrayEPmmPKcm+0x2b0>
    7ce3:	48 8d 65 d8          	lea    -0x28(%rbp),%rsp
    7ce7:	4c 89 d0             	mov    %r10,%rax
    7cea:	5b                   	pop    %rbx
    7ceb:	41 5c                	pop    %r12
    7ced:	41 5d                	pop    %r13
    7cef:	41 5e                	pop    %r14
    7cf1:	41 5f                	pop    %r15
    7cf3:	5d                   	pop    %rbp
    7cf4:	c3                   	retq   
    7cf5:	0f 1f 00             	nopl   (%rax)
    7cf8:	45 31 d2             	xor    %r10d,%r10d
    7cfb:	eb e6                	jmp    7ce3 <_ZN3mcl2fp10decToArrayEPmmPKcm+0x2d3>
    7cfd:	0f 1f 00             	nopl   (%rax)
    7d00:	80 fa 09             	cmp    $0x9,%dl
    7d03:	77 f3                	ja     7cf8 <_ZN3mcl2fp10decToArrayEPmmPKcm+0x2e8>
    7d05:	83 e8 30             	sub    $0x30,%eax
    7d08:	49 83 f8 01          	cmp    $0x1,%r8
    7d0c:	0f 84 d6 fe ff ff    	je     7be8 <_ZN3mcl2fp10decToArrayEPmmPKcm+0x1d8>
    7d12:	41 0f be 52 01       	movsbl 0x1(%r10),%edx
    7d17:	44 8d 5a d0          	lea    -0x30(%rdx),%r11d
    7d1b:	41 80 fb 09          	cmp    $0x9,%r11b
    7d1f:	77 d7                	ja     7cf8 <_ZN3mcl2fp10decToArrayEPmmPKcm+0x2e8>
    7d21:	8d 04 80             	lea    (%rax,%rax,4),%eax
    7d24:	8d 44 42 d0          	lea    -0x30(%rdx,%rax,2),%eax
    7d28:	49 83 f8 02          	cmp    $0x2,%r8
    7d2c:	0f 84 b6 fe ff ff    	je     7be8 <_ZN3mcl2fp10decToArrayEPmmPKcm+0x1d8>
    7d32:	41 0f be 52 02       	movsbl 0x2(%r10),%edx
    7d37:	44 8d 5a d0          	lea    -0x30(%rdx),%r11d
    7d3b:	41 80 fb 09          	cmp    $0x9,%r11b
    7d3f:	77 b7                	ja     7cf8 <_ZN3mcl2fp10decToArrayEPmmPKcm+0x2e8>
    7d41:	8d 04 80             	lea    (%rax,%rax,4),%eax
    7d44:	8d 44 42 d0          	lea    -0x30(%rdx,%rax,2),%eax
    7d48:	49 83 f8 03          	cmp    $0x3,%r8
    7d4c:	0f 85 ce fd ff ff    	jne    7b20 <_ZN3mcl2fp10decToArrayEPmmPKcm+0x110>
    7d52:	e9 91 fe ff ff       	jmpq   7be8 <_ZN3mcl2fp10decToArrayEPmmPKcm+0x1d8>
    7d57:	66 0f 1f 84 00 00 00 	nopw   0x0(%rax,%rax,1)
    7d5e:	00 00 
    7d60:	41 03 01             	add    (%r9),%eax
    7d63:	41 89 01             	mov    %eax,(%r9)
    7d66:	0f 83 1b ff ff ff    	jae    7c87 <_ZN3mcl2fp10decToArrayEPmmPKcm+0x277>
    7d6c:	48 83 fe 01          	cmp    $0x1,%rsi
    7d70:	74 2e                	je     7da0 <_ZN3mcl2fp10decToArrayEPmmPKcm+0x390>
    7d72:	49 89 f3             	mov    %rsi,%r11
    7d75:	e9 eb fe ff ff       	jmpq   7c65 <_ZN3mcl2fp10decToArrayEPmmPKcm+0x255>
    7d7a:	66 0f 1f 44 00 00    	nopw   0x0(%rax,%rax,1)
    7d80:	4c 39 db             	cmp    %r11,%rbx
    7d83:	0f 84 6f ff ff ff    	je     7cf8 <_ZN3mcl2fp10decToArrayEPmmPKcm+0x2e8>
    7d89:	43 c7 04 99 01 00 00 	movl   $0x1,(%r9,%r11,4)
    7d90:	00 
    7d91:	49 8d 73 01          	lea    0x1(%r11),%rsi
    7d95:	e9 ed fe ff ff       	jmpq   7c87 <_ZN3mcl2fp10decToArrayEPmmPKcm+0x277>
    7d9a:	66 0f 1f 44 00 00    	nopw   0x0(%rax,%rax,1)
    7da0:	41 bb 01 00 00 00    	mov    $0x1,%r11d
    7da6:	eb e1                	jmp    7d89 <_ZN3mcl2fp10decToArrayEPmmPKcm+0x379>
    7da8:	0f 1f 84 00 00 00 00 	nopl   0x0(%rax,%rax,1)
    7daf:	00 
    7db0:	48 83 4c 14 f8 00    	orq    $0x0,-0x8(%rsp,%rdx,1)
    7db6:	4c 8d 4c 24 0f       	lea    0xf(%rsp),%r9
    7dbb:	49 83 e1 f0          	and    $0xfffffffffffffff0,%r9
    7dbf:	48 01 db             	add    %rbx,%rbx
    7dc2:	0f 85 bf fc ff ff    	jne    7a87 <_ZN3mcl2fp10decToArrayEPmmPKcm+0x77>
    7dc8:	e9 2b ff ff ff       	jmpq   7cf8 <_ZN3mcl2fp10decToArrayEPmmPKcm+0x2e8>
    7dcd:	41 ba 01 00 00 00    	mov    $0x1,%r10d
    7dd3:	be 02 00 00 00       	mov    $0x2,%esi
    7dd8:	b8 04 00 00 00       	mov    $0x4,%eax
    7ddd:	e9 cd fe ff ff       	jmpq   7caf <_ZN3mcl2fp10decToArrayEPmmPKcm+0x29f>
    7de2:	49 89 f2             	mov    %rsi,%r10
    7de5:	49 d1 ea             	shr    %r10
    7de8:	e9 ca fe ff ff       	jmpq   7cb7 <_ZN3mcl2fp10decToArrayEPmmPKcm+0x2a7>
    7ded:	0f 1f 00             	nopl   (%rax)

0000000000007df0 <_ZN5Xbyak6RegExpC1ERKNS_3RegEi>:
    7df0:	f3 0f 1e fa          	endbr64 
    7df4:	48 83 ec 08          	sub    $0x8,%rsp
    7df8:	81 27 00 00 00 80    	andl   $0x80000000,(%rdi)
    7dfe:	80 67 04 c0          	andb   $0xc0,0x4(%rdi)
    7e02:	81 67 08 00 00 00 80 	andl   $0x80000000,0x8(%rdi)
    7e09:	80 67 0c c0          	andb   $0xc0,0xc(%rdi)
    7e0d:	0f b7 06             	movzwl (%rsi),%eax
    7e10:	89 57 10             	mov    %edx,0x10(%rdi)
    7e13:	89 c1                	mov    %eax,%ecx
    7e15:	48 c7 47 18 00 00 00 	movq   $0x0,0x18(%rdi)
    7e1c:	00 
    7e1d:	66 c1 e9 06          	shr    $0x6,%cx
    7e21:	a8 80                	test   $0x80,%al
    7e23:	74 3b                	je     7e60 <_ZN5Xbyak6RegExpC1ERKNS_3RegEi+0x70>
    7e25:	f6 46 02 60          	testb  $0x60,0x2(%rsi)
    7e29:	74 35                	je     7e60 <_ZN5Xbyak6RegExpC1ERKNS_3RegEi+0x70>
    7e2b:	85 d2                	test   %edx,%edx
    7e2d:	74 2b                	je     7e5a <_ZN5Xbyak6RegExpC1ERKNS_3RegEi+0x6a>
    7e2f:	8d 42 fc             	lea    -0x4(%rdx),%eax
    7e32:	83 e0 fb             	and    $0xfffffffb,%eax
    7e35:	75 69                	jne    7ea0 <_ZN5Xbyak6RegExpC1ERKNS_3RegEi+0xb0>
    7e37:	0f b7 46 02          	movzwl 0x2(%rsi),%eax
    7e3b:	66 25 ff 3f          	and    $0x3fff,%ax
    7e3f:	66 83 f8 7f          	cmp    $0x7f,%ax
    7e43:	8b 06                	mov    (%rsi),%eax
    7e45:	77 09                	ja     7e50 <_ZN5Xbyak6RegExpC1ERKNS_3RegEi+0x60>
    7e47:	83 fa 01             	cmp    $0x1,%edx
    7e4a:	0f 84 90 00 00 00    	je     7ee0 <_ZN5Xbyak6RegExpC1ERKNS_3RegEi+0xf0>
    7e50:	89 47 08             	mov    %eax,0x8(%rdi)
    7e53:	0f b6 46 04          	movzbl 0x4(%rsi),%eax
    7e57:	88 47 0c             	mov    %al,0xc(%rdi)
    7e5a:	48 83 c4 08          	add    $0x8,%rsp
    7e5e:	c3                   	retq   
    7e5f:	90                   	nop
    7e60:	66 f7 c1 70 02       	test   $0x270,%cx
    7e65:	75 c4                	jne    7e2b <_ZN5Xbyak6RegExpC1ERKNS_3RegEi+0x3b>
    7e67:	bf 10 00 00 00       	mov    $0x10,%edi
    7e6c:	e8 af b5 ff ff       	callq  3420 <__cxa_allocate_exception@plt>
    7e71:	48 8d 15 88 f4 ff ff 	lea    -0xb78(%rip),%rdx        # 7300 <_ZN5Xbyak5ErrorD1Ev>
    7e78:	48 8d 35 c1 0b 01 00 	lea    0x10bc1(%rip),%rsi        # 18a40 <_ZTVN10__cxxabiv120__si_class_type_infoE@CXXABI_1.3>
    7e7f:	48 89 c7             	mov    %rax,%rdi
    7e82:	48 8d 05 6f 0c 01 00 	lea    0x10c6f(%rip),%rax        # 18af8 <_ZTVN5Xbyak5ErrorE>
    7e89:	c7 47 08 06 00 00 00 	movl   $0x6,0x8(%rdi)
    7e90:	48 83 c0 10          	add    $0x10,%rax
    7e94:	48 89 07             	mov    %rax,(%rdi)
    7e97:	e8 c4 b7 ff ff       	callq  3660 <__cxa_throw@plt>
    7e9c:	0f 1f 40 00          	nopl   0x0(%rax)
    7ea0:	8d 42 ff             	lea    -0x1(%rdx),%eax
    7ea3:	83 f8 01             	cmp    $0x1,%eax
    7ea6:	76 8f                	jbe    7e37 <_ZN5Xbyak6RegExpC1ERKNS_3RegEi+0x47>
    7ea8:	bf 10 00 00 00       	mov    $0x10,%edi
    7ead:	e8 6e b5 ff ff       	callq  3420 <__cxa_allocate_exception@plt>
    7eb2:	48 8d 15 47 f4 ff ff 	lea    -0xbb9(%rip),%rdx        # 7300 <_ZN5Xbyak5ErrorD1Ev>
    7eb9:	48 8d 35 80 0b 01 00 	lea    0x10b80(%rip),%rsi        # 18a40 <_ZTVN10__cxxabiv120__si_class_type_infoE@CXXABI_1.3>
    7ec0:	48 89 c7             	mov    %rax,%rdi
    7ec3:	48 8d 05 2e 0c 01 00 	lea    0x10c2e(%rip),%rax        # 18af8 <_ZTVN5Xbyak5ErrorE>
    7eca:	c7 47 08 03 00 00 00 	movl   $0x3,0x8(%rdi)
    7ed1:	48 83 c0 10          	add    $0x10,%rax
    7ed5:	48 89 07             	mov    %rax,(%rdi)
    7ed8:	e8 83 b7 ff ff       	callq  3660 <__cxa_throw@plt>
    7edd:	0f 1f 00             	nopl   (%rax)
    7ee0:	89 07                	mov    %eax,(%rdi)
    7ee2:	0f b6 46 04          	movzbl 0x4(%rsi),%eax
    7ee6:	88 47 04             	mov    %al,0x4(%rdi)
    7ee9:	48 83 c4 08          	add    $0x8,%rsp
    7eed:	c3                   	retq   
    7eee:	66 90                	xchg   %ax,%ax

0000000000007ef0 <_ZN5Xbyak9CodeArray2dbEi>:
    7ef0:	f3 0f 1e fa          	endbr64 
    7ef4:	41 55                	push   %r13
    7ef6:	41 89 f5             	mov    %esi,%r13d
    7ef9:	41 54                	push   %r12
    7efb:	55                   	push   %rbp
    7efc:	53                   	push   %rbx
    7efd:	48 89 fb             	mov    %rdi,%rbx
    7f00:	48 83 ec 08          	sub    $0x8,%rsp
    7f04:	48 8b 87 80 00 00 00 	mov    0x80(%rdi),%rax
    7f0b:	48 8b 6f 70          	mov    0x70(%rdi),%rbp
