In archive libmcl.a:

mcl.o:     file format elf64-x86-64


Disassembly of section .text:

0000000000000000 <mcl_init>:
   0:	f3 0f 1e fa          	endbr64 
   4:	55                   	push   %rbp
   5:	48 8b 3d 00 00 00 00 	mov    0x0(%rip),%rdi        # c <mcl_init+0xc>
   c:	e8 00 00 00 00       	callq  11 <mcl_init+0x11>
  11:	31 c0                	xor    %eax,%eax
  13:	5d                   	pop    %rbp
  14:	c3                   	retq   
  15:	f3 0f 1e fa          	endbr64 
  19:	48 89 c7             	mov    %rax,%rdi
  1c:	48 89 d0             	mov    %rdx,%rax
  1f:	e9 00 00 00 00       	jmpq   24 <.LC7+0xb>

Disassembly of section .text._ZNK6cybozu9Exception4whatEv:

0000000000000000 <_ZNK6cybozu9Exception4whatEv>:
   0:	f3 0f 1e fa          	endbr64 
   4:	48 8b 47 08          	mov    0x8(%rdi),%rax
   8:	c3                   	retq   

Disassembly of section .text._ZNK5Xbyak5Error4whatEv:

0000000000000000 <_ZNK5Xbyak5Error4whatEv>:
   0:	f3 0f 1e fa          	endbr64 
   4:	48 63 47 08          	movslq 0x8(%rdi),%rax
   8:	4c 8d 05 00 00 00 00 	lea    0x0(%rip),%r8        # f <_ZNK5Xbyak5Error4whatEv+0xf>
   f:	83 f8 2f             	cmp    $0x2f,%eax
  12:	7f 0b                	jg     1f <_ZNK5Xbyak5Error4whatEv+0x1f>
  14:	48 8b 15 00 00 00 00 	mov    0x0(%rip),%rdx        # 1b <_ZNK5Xbyak5Error4whatEv+0x1b>
  1b:	4c 8b 04 c2          	mov    (%rdx,%rax,8),%r8
  1f:	4c 89 c0             	mov    %r8,%rax
  22:	c3                   	retq   

Disassembly of section .text._ZNK5Xbyak9Allocator10useProtectEv:

0000000000000000 <_ZNK5Xbyak9Allocator10useProtectEv>:
   0:	f3 0f 1e fa          	endbr64 
   4:	b8 01 00 00 00       	mov    $0x1,%eax
   9:	c3                   	retq   

Disassembly of section .text._ZN5Xbyak5ErrorD2Ev:

0000000000000000 <_ZN5Xbyak5ErrorD1Ev>:
   0:	f3 0f 1e fa          	endbr64 
   4:	48 8b 05 00 00 00 00 	mov    0x0(%rip),%rax        # b <_ZN5Xbyak5ErrorD1Ev+0xb>
   b:	48 83 c0 10          	add    $0x10,%rax
   f:	48 89 07             	mov    %rax,(%rdi)
  12:	e9 00 00 00 00       	jmpq   17 <.LC11+0x7>

Disassembly of section .text._ZN6cybozu9ExceptionD2Ev:

0000000000000000 <_ZN6cybozu9ExceptionD1Ev>:
   0:	f3 0f 1e fa          	endbr64 
   4:	48 8b 05 00 00 00 00 	mov    0x0(%rip),%rax        # b <_ZN6cybozu9ExceptionD1Ev+0xb>
   b:	55                   	push   %rbp
   c:	48 89 fd             	mov    %rdi,%rbp
   f:	48 83 c0 10          	add    $0x10,%rax
  13:	48 89 07             	mov    %rax,(%rdi)
  16:	48 8b 7f 08          	mov    0x8(%rdi),%rdi
  1a:	48 8d 45 18          	lea    0x18(%rbp),%rax
  1e:	48 39 c7             	cmp    %rax,%rdi
  21:	74 05                	je     28 <_ZN6cybozu9ExceptionD1Ev+0x28>
  23:	e8 00 00 00 00       	callq  28 <_ZN6cybozu9ExceptionD1Ev+0x28>
  28:	48 89 ef             	mov    %rbp,%rdi
  2b:	5d                   	pop    %rbp
  2c:	e9 00 00 00 00       	jmpq   31 <.LC7+0x18>

Disassembly of section .text._ZN5Xbyak5ErrorD0Ev:

0000000000000000 <_ZN5Xbyak5ErrorD0Ev>:
   0:	f3 0f 1e fa          	endbr64 
   4:	48 8b 05 00 00 00 00 	mov    0x0(%rip),%rax        # b <_ZN5Xbyak5ErrorD0Ev+0xb>
   b:	55                   	push   %rbp
   c:	48 89 fd             	mov    %rdi,%rbp
   f:	48 83 c0 10          	add    $0x10,%rax
  13:	48 89 07             	mov    %rax,(%rdi)
  16:	e8 00 00 00 00       	callq  1b <_ZN5Xbyak5ErrorD0Ev+0x1b>
  1b:	48 89 ef             	mov    %rbp,%rdi
  1e:	be 10 00 00 00       	mov    $0x10,%esi
  23:	5d                   	pop    %rbp
  24:	e9 00 00 00 00       	jmpq   29 <.LC7+0x10>

Disassembly of section .text.unlikely:

0000000000000000 <_ZN5Xbyak13CodeGenerator6setSIBERKNS_6RegExpEii.part.0>:
   0:	50                   	push   %rax
   1:	58                   	pop    %rax
   2:	bf 10 00 00 00       	mov    $0x10,%edi
   7:	50                   	push   %rax
   8:	e8 00 00 00 00       	callq  d <_ZN5Xbyak13CodeGenerator6setSIBERKNS_6RegExpEii.part.0+0xd>
   d:	48 8b 15 00 00 00 00 	mov    0x0(%rip),%rdx        # 14 <_ZN5Xbyak13CodeGenerator6setSIBERKNS_6RegExpEii.part.0+0x14>
  14:	48 8b 35 00 00 00 00 	mov    0x0(%rip),%rsi        # 1b <_ZN5Xbyak13CodeGenerator6setSIBERKNS_6RegExpEii.part.0+0x1b>
  1b:	48 89 c7             	mov    %rax,%rdi
  1e:	48 8b 05 00 00 00 00 	mov    0x0(%rip),%rax        # 25 <_ZN5Xbyak13CodeGenerator6setSIBERKNS_6RegExpEii.part.0+0x25>
  25:	c7 47 08 10 00 00 00 	movl   $0x10,0x8(%rdi)
  2c:	48 83 c0 10          	add    $0x10,%rax
  30:	48 89 07             	mov    %rax,(%rdi)
  33:	e8 00 00 00 00       	callq  38 <_ZNK5Xbyak6RegExp6verifyEv.part.0>

0000000000000038 <_ZNK5Xbyak6RegExp6verifyEv.part.0>:
  38:	50                   	push   %rax
  39:	58                   	pop    %rax
  3a:	bf 10 00 00 00       	mov    $0x10,%edi
  3f:	50                   	push   %rax
  40:	e8 00 00 00 00       	callq  45 <_ZNK5Xbyak6RegExp6verifyEv.part.0+0xd>
  45:	48 8b 15 00 00 00 00 	mov    0x0(%rip),%rdx        # 4c <_ZNK5Xbyak6RegExp6verifyEv.part.0+0x14>
  4c:	48 8b 35 00 00 00 00 	mov    0x0(%rip),%rsi        # 53 <_ZNK5Xbyak6RegExp6verifyEv.part.0+0x1b>
  53:	48 89 c7             	mov    %rax,%rdi
  56:	48 8b 05 00 00 00 00 	mov    0x0(%rip),%rax        # 5d <_ZNK5Xbyak6RegExp6verifyEv.part.0+0x25>
  5d:	c7 47 08 06 00 00 00 	movl   $0x6,0x8(%rdi)
  64:	48 83 c0 10          	add    $0x10,%rax
  68:	48 89 07             	mov    %rax,(%rdi)
  6b:	e8 00 00 00 00       	callq  70 <_ZN5Xbyak13MmapAllocator5allocEm.part.0>

0000000000000070 <_ZN5Xbyak13MmapAllocator5allocEm.part.0>:
  70:	50                   	push   %rax
  71:	58                   	pop    %rax
  72:	bf 10 00 00 00       	mov    $0x10,%edi
  77:	50                   	push   %rax
  78:	e8 00 00 00 00       	callq  7d <_ZN5Xbyak13MmapAllocator5allocEm.part.0+0xd>
  7d:	48 8b 15 00 00 00 00 	mov    0x0(%rip),%rdx        # 84 <_ZN5Xbyak13MmapAllocator5allocEm.part.0+0x14>
  84:	48 8b 35 00 00 00 00 	mov    0x0(%rip),%rsi        # 8b <_ZN5Xbyak13MmapAllocator5allocEm.part.0+0x1b>
  8b:	48 89 c7             	mov    %rax,%rdi
  8e:	48 8b 05 00 00 00 00 	mov    0x0(%rip),%rax        # 95 <_ZN5Xbyak13MmapAllocator5allocEm.part.0+0x25>
  95:	c7 47 08 16 00 00 00 	movl   $0x16,0x8(%rdi)
  9c:	48 83 c0 10          	add    $0x10,%rax
  a0:	48 89 07             	mov    %rax,(%rdi)
  a3:	e8 00 00 00 00       	callq  a8 <_ZN5Xbyak9CodeArray2dbEi.part.0>

00000000000000a8 <_ZN5Xbyak9CodeArray2dbEi.part.0>:
  a8:	50                   	push   %rax
  a9:	58                   	pop    %rax
  aa:	bf 10 00 00 00       	mov    $0x10,%edi
  af:	50                   	push   %rax
  b0:	e8 00 00 00 00       	callq  b5 <_ZN5Xbyak9CodeArray2dbEi.part.0+0xd>
  b5:	48 8b 15 00 00 00 00 	mov    0x0(%rip),%rdx        # bc <_ZN5Xbyak9CodeArray2dbEi.part.0+0x14>
  bc:	48 8b 35 00 00 00 00 	mov    0x0(%rip),%rsi        # c3 <_ZN5Xbyak9CodeArray2dbEi.part.0+0x1b>
  c3:	48 89 c7             	mov    %rax,%rdi
  c6:	48 8b 05 00 00 00 00 	mov    0x0(%rip),%rax        # cd <_ZN5Xbyak9CodeArray2dbEi.part.0+0x25>
  cd:	c7 47 08 02 00 00 00 	movl   $0x2,0x8(%rdi)
  d4:	48 83 c0 10          	add    $0x10,%rax
  d8:	48 89 07             	mov    %rax,(%rdi)
  db:	e8 00 00 00 00       	callq  e0 <_ZN5Xbyak9CodeArray2dbEmm.part.0>

00000000000000e0 <_ZN5Xbyak9CodeArray2dbEmm.part.0>:
  e0:	50                   	push   %rax
  e1:	58                   	pop    %rax
  e2:	bf 10 00 00 00       	mov    $0x10,%edi
  e7:	50                   	push   %rax
  e8:	e8 00 00 00 00       	callq  ed <_ZN5Xbyak9CodeArray2dbEmm.part.0+0xd>
  ed:	48 8b 15 00 00 00 00 	mov    0x0(%rip),%rdx        # f4 <_ZN5Xbyak9CodeArray2dbEmm.part.0+0x14>
  f4:	48 8b 35 00 00 00 00 	mov    0x0(%rip),%rsi        # fb <_ZN5Xbyak9CodeArray2dbEmm.part.0+0x1b>
  fb:	48 89 c7             	mov    %rax,%rdi
  fe:	48 8b 05 00 00 00 00 	mov    0x0(%rip),%rax        # 105 <_ZN5Xbyak9CodeArray2dbEmm.part.0+0x25>
 105:	c7 47 08 0d 00 00 00 	movl   $0xd,0x8(%rdi)
 10c:	48 83 c0 10          	add    $0x10,%rax
 110:	48 89 07             	mov    %rax,(%rdi)
 113:	e8 00 00 00 00       	callq  118 <_ZN5Xbyak9CodeArray14setProtectModeENS0_11ProtectModeEb.part.0>

0000000000000118 <_ZN5Xbyak9CodeArray14setProtectModeENS0_11ProtectModeEb.part.0>:
 118:	50                   	push   %rax
 119:	58                   	pop    %rax
 11a:	bf 10 00 00 00       	mov    $0x10,%edi
 11f:	50                   	push   %rax
 120:	e8 00 00 00 00       	callq  125 <_ZN5Xbyak9CodeArray14setProtectModeENS0_11ProtectModeEb.part.0+0xd>
 125:	48 8b 15 00 00 00 00 	mov    0x0(%rip),%rdx        # 12c <_ZN5Xbyak9CodeArray14setProtectModeENS0_11ProtectModeEb.part.0+0x14>
 12c:	48 8b 35 00 00 00 00 	mov    0x0(%rip),%rsi        # 133 <_ZN5Xbyak9CodeArray14setProtectModeENS0_11ProtectModeEb.part.0+0x1b>
 133:	48 89 c7             	mov    %rax,%rdi
 136:	48 8b 05 00 00 00 00 	mov    0x0(%rip),%rax        # 13d <_ZN5Xbyak9CodeArray14setProtectModeENS0_11ProtectModeEb.part.0+0x25>
 13d:	c7 47 08 0e 00 00 00 	movl   $0xe,0x8(%rdi)
 144:	48 83 c0 10          	add    $0x10,%rax
 148:	48 89 07             	mov    %rax,(%rdi)
 14b:	e8 00 00 00 00       	callq  150 <_ZN5Xbyak13CodeGenerator3movERKNS_7OperandES3_.part.0>

0000000000000150 <_ZN5Xbyak13CodeGenerator3movERKNS_7OperandES3_.part.0>:
 150:	50                   	push   %rax
 151:	58                   	pop    %rax
 152:	bf 10 00 00 00       	mov    $0x10,%edi
 157:	50                   	push   %rax
 158:	e8 00 00 00 00       	callq  15d <_ZN5Xbyak13CodeGenerator3movERKNS_7OperandES3_.part.0+0xd>
 15d:	48 8b 15 00 00 00 00 	mov    0x0(%rip),%rdx        # 164 <_ZN5Xbyak13CodeGenerator3movERKNS_7OperandES3_.part.0+0x14>
 164:	48 8b 35 00 00 00 00 	mov    0x0(%rip),%rsi        # 16b <_ZN5Xbyak13CodeGenerator3movERKNS_7OperandES3_.part.0+0x1b>
 16b:	48 89 c7             	mov    %rax,%rdi
 16e:	48 8b 05 00 00 00 00 	mov    0x0(%rip),%rax        # 175 <_ZN5Xbyak13CodeGenerator3movERKNS_7OperandES3_.part.0+0x25>
 175:	c7 47 08 05 00 00 00 	movl   $0x5,0x8(%rdi)
 17c:	48 83 c0 10          	add    $0x10,%rax
 180:	48 89 07             	mov    %rax,(%rdi)
 183:	e8 00 00 00 00       	callq  188 <_ZN5Xbyak13CodeGenerator15verifyDuplicateEiiii.isra.0.part.0>

0000000000000188 <_ZN5Xbyak13CodeGenerator15verifyDuplicateEiiii.isra.0.part.0>:
 188:	53                   	push   %rbx
 189:	89 fb                	mov    %edi,%ebx
 18b:	bf 10 00 00 00       	mov    $0x10,%edi
 190:	e8 00 00 00 00       	callq  195 <_ZN5Xbyak13CodeGenerator15verifyDuplicateEiiii.isra.0.part.0+0xd>
 195:	48 8b 15 00 00 00 00 	mov    0x0(%rip),%rdx        # 19c <_ZN5Xbyak13CodeGenerator15verifyDuplicateEiiii.isra.0.part.0+0x14>
 19c:	48 8b 35 00 00 00 00 	mov    0x0(%rip),%rsi        # 1a3 <_ZN5Xbyak13CodeGenerator15verifyDuplicateEiiii.isra.0.part.0+0x1b>
 1a3:	48 89 c7             	mov    %rax,%rdi
 1a6:	48 8b 05 00 00 00 00 	mov    0x0(%rip),%rax        # 1ad <_ZN5Xbyak13CodeGenerator15verifyDuplicateEiiii.isra.0.part.0+0x25>
 1ad:	89 5f 08             	mov    %ebx,0x8(%rdi)
 1b0:	48 83 c0 10          	add    $0x10,%rax
 1b4:	48 89 07             	mov    %rax,(%rdi)
 1b7:	e8 00 00 00 00       	callq  1bc <_ZNK5Xbyak13CodeGenerator16verifyMemHasSizeERKNS_7OperandE.isra.0.part.0>

00000000000001bc <_ZNK5Xbyak13CodeGenerator16verifyMemHasSizeERKNS_7OperandE.isra.0.part.0>:
 1bc:	50                   	push   %rax
 1bd:	58                   	pop    %rax
 1be:	bf 10 00 00 00       	mov    $0x10,%edi
 1c3:	50                   	push   %rax
 1c4:	e8 00 00 00 00       	callq  1c9 <_ZNK5Xbyak13CodeGenerator16verifyMemHasSizeERKNS_7OperandE.isra.0.part.0+0xd>
 1c9:	48 8b 15 00 00 00 00 	mov    0x0(%rip),%rdx        # 1d0 <_ZNK5Xbyak13CodeGenerator16verifyMemHasSizeERKNS_7OperandE.isra.0.part.0+0x14>
 1d0:	48 8b 35 00 00 00 00 	mov    0x0(%rip),%rsi        # 1d7 <_ZNK5Xbyak13CodeGenerator16verifyMemHasSizeERKNS_7OperandE.isra.0.part.0+0x1b>
 1d7:	48 89 c7             	mov    %rax,%rdi
 1da:	48 8b 05 00 00 00 00 	mov    0x0(%rip),%rax        # 1e1 <_ZNK5Xbyak13CodeGenerator16verifyMemHasSizeERKNS_7OperandE.isra.0.part.0+0x25>
 1e1:	c7 47 08 11 00 00 00 	movl   $0x11,0x8(%rdi)
 1e8:	48 83 c0 10          	add    $0x10,%rax
 1ec:	48 89 07             	mov    %rax,(%rdi)
 1ef:	e8 00 00 00 00       	callq  1f4 <_ZN5XbyakplERKNS_6RegExpES2_.part.0>

00000000000001f4 <_ZN5XbyakplERKNS_6RegExpES2_.part.0>:
 1f4:	50                   	push   %rax
 1f5:	58                   	pop    %rax
 1f6:	bf 10 00 00 00       	mov    $0x10,%edi
 1fb:	50                   	push   %rax
 1fc:	e8 00 00 00 00       	callq  201 <_ZN5XbyakplERKNS_6RegExpES2_.part.0+0xd>
 201:	48 8b 15 00 00 00 00 	mov    0x0(%rip),%rdx        # 208 <_ZN5XbyakplERKNS_6RegExpES2_.part.0+0x14>
 208:	48 8b 35 00 00 00 00 	mov    0x0(%rip),%rsi        # 20f <_ZN5XbyakplERKNS_6RegExpES2_.part.0+0x1b>
 20f:	48 89 c7             	mov    %rax,%rdi
 212:	48 8b 05 00 00 00 00 	mov    0x0(%rip),%rax        # 219 <_ZN5XbyakplERKNS_6RegExpES2_.part.0+0x25>
 219:	c7 47 08 01 00 00 00 	movl   $0x1,0x8(%rdi)
 220:	48 83 c0 10          	add    $0x10,%rax
 224:	48 89 07             	mov    %rax,(%rdi)
 227:	e8 00 00 00 00       	callq  22c <_ZN5Xbyak13CodeGenerator6opModMERKNS_7AddressERKNS_3RegEiiii.part.0>

000000000000022c <_ZN5Xbyak13CodeGenerator6opModMERKNS_7AddressERKNS_3RegEiiii.part.0>:
 22c:	50                   	push   %rax
 22d:	58                   	pop    %rax
 22e:	bf 10 00 00 00       	mov    $0x10,%edi
 233:	50                   	push   %rax
 234:	e8 00 00 00 00       	callq  239 <_ZN5Xbyak13CodeGenerator6opModMERKNS_7AddressERKNS_3RegEiiii.part.0+0xd>
 239:	48 8b 15 00 00 00 00 	mov    0x0(%rip),%rdx        # 240 <_ZN5Xbyak13CodeGenerator6opModMERKNS_7AddressERKNS_3RegEiiii.part.0+0x14>
 240:	48 8b 35 00 00 00 00 	mov    0x0(%rip),%rsi        # 247 <_ZN5Xbyak13CodeGenerator6opModMERKNS_7AddressERKNS_3RegEiiii.part.0+0x1b>
 247:	48 89 c7             	mov    %rax,%rdi
 24a:	48 8b 05 00 00 00 00 	mov    0x0(%rip),%rax        # 251 <_ZN5Xbyak13CodeGenerator6opModMERKNS_7AddressERKNS_3RegEiiii.part.0+0x25>
 251:	c7 47 08 0f 00 00 00 	movl   $0xf,0x8(%rdi)
 258:	48 83 c0 10          	add    $0x10,%rax
 25c:	48 89 07             	mov    %rax,(%rdi)
 25f:	e8 00 00 00 00       	callq  264 <_ZN5Xbyak13CodeGenerator3movERKNS_7OperandEm.part.0>

0000000000000264 <_ZN5Xbyak13CodeGenerator3movERKNS_7OperandEm.part.0>:
 264:	50                   	push   %rax
 265:	58                   	pop    %rax
 266:	bf 10 00 00 00       	mov    $0x10,%edi
 26b:	50                   	push   %rax
 26c:	e8 00 00 00 00       	callq  271 <_ZN5Xbyak13CodeGenerator3movERKNS_7OperandEm.part.0+0xd>
 271:	48 8b 15 00 00 00 00 	mov    0x0(%rip),%rdx        # 278 <_ZN5Xbyak13CodeGenerator3movERKNS_7OperandEm.part.0+0x14>
 278:	48 8b 35 00 00 00 00 	mov    0x0(%rip),%rsi        # 27f <_ZN5Xbyak13CodeGenerator3movERKNS_7OperandEm.part.0+0x1b>
 27f:	48 89 c7             	mov    %rax,%rdi
 282:	48 8b 05 00 00 00 00 	mov    0x0(%rip),%rax        # 289 <_ZN5Xbyak13CodeGenerator3movERKNS_7OperandEm.part.0+0x25>
 289:	c7 47 08 07 00 00 00 	movl   $0x7,0x8(%rdi)
 290:	48 83 c0 10          	add    $0x10,%rax
 294:	48 89 07             	mov    %rax,(%rdi)
 297:	e8 00 00 00 00       	callq  29c <_ZN5Xbyak13CodeGenerator5opVexERKNS_3RegEPKNS_7OperandERS5_iii.part.0>

000000000000029c <_ZN5Xbyak13CodeGenerator5opVexERKNS_3RegEPKNS_7OperandERS5_iii.part.0>:
 29c:	50                   	push   %rax
 29d:	58                   	pop    %rax
 29e:	bf 10 00 00 00       	mov    $0x10,%edi
 2a3:	50                   	push   %rax
 2a4:	e8 00 00 00 00       	callq  2a9 <_ZN5Xbyak13CodeGenerator5opVexERKNS_3RegEPKNS_7OperandERS5_iii.part.0+0xd>
 2a9:	48 8b 15 00 00 00 00 	mov    0x0(%rip),%rdx        # 2b0 <_ZN5Xbyak13CodeGenerator5opVexERKNS_3RegEPKNS_7OperandERS5_iii.part.0+0x14>
 2b0:	48 8b 35 00 00 00 00 	mov    0x0(%rip),%rsi        # 2b7 <_ZN5Xbyak13CodeGenerator5opVexERKNS_3RegEPKNS_7OperandERS5_iii.part.0+0x1b>
 2b7:	48 89 c7             	mov    %rax,%rdi
 2ba:	48 8b 05 00 00 00 00 	mov    0x0(%rip),%rax        # 2c1 <_ZN5Xbyak13CodeGenerator5opVexERKNS_3RegEPKNS_7OperandERS5_iii.part.0+0x25>
 2c1:	c7 47 08 28 00 00 00 	movl   $0x28,0x8(%rdi)
 2c8:	48 83 c0 10          	add    $0x10,%rax
 2cc:	48 89 07             	mov    %rax,(%rdi)
 2cf:	e8 00 00 00 00       	callq  2d4 <mcl_init.cold>

00000000000002d4 <mcl_init.cold>:
 2d4:	48 83 e8 01          	sub    $0x1,%rax
 2d8:	75 3d                	jne    317 <mcl_init.cold+0x43>
 2da:	e8 00 00 00 00       	callq  2df <mcl_init.cold+0xb>
 2df:	48 89 c7             	mov    %rax,%rdi
 2e2:	48 8b 00             	mov    (%rax),%rax
 2e5:	ff 50 10             	callq  *0x10(%rax)
 2e8:	48 8d 15 00 00 00 00 	lea    0x0(%rip),%rdx        # 2ef <mcl_init.cold+0x1b>
 2ef:	be 01 00 00 00       	mov    $0x1,%esi
 2f4:	48 89 c1             	mov    %rax,%rcx
 2f7:	48 8b 05 00 00 00 00 	mov    0x0(%rip),%rax        # 2fe <mcl_init.cold+0x2a>
 2fe:	48 8b 38             	mov    (%rax),%rdi
 301:	31 c0                	xor    %eax,%eax
 303:	e8 00 00 00 00       	callq  308 <mcl_init.cold+0x34>
 308:	e8 00 00 00 00       	callq  30d <mcl_init.cold+0x39>
 30d:	b8 01 00 00 00       	mov    $0x1,%eax
 312:	e9 00 00 00 00       	jmpq   317 <mcl_init.cold+0x43>
 317:	e8 00 00 00 00       	callq  31c <mcl_init.cold+0x48>
 31c:	f3 0f 1e fa          	endbr64 
 320:	48 89 c5             	mov    %rax,%rbp
 323:	e8 00 00 00 00       	callq  328 <mcl_init.cold+0x54>
 328:	48 89 ef             	mov    %rbp,%rdi
 32b:	e8 00 00 00 00       	callq  330 <_GLOBAL__sub_I_mcl.cpp.cold>

0000000000000330 <_GLOBAL__sub_I_mcl.cpp.cold>:
 330:	bf 10 00 00 00       	mov    $0x10,%edi
 335:	e8 00 00 00 00       	callq  33a <_GLOBAL__sub_I_mcl.cpp.cold+0xa>
 33a:	48 8b 15 00 00 00 00 	mov    0x0(%rip),%rdx        # 341 <_GLOBAL__sub_I_mcl.cpp.cold+0x11>
 341:	48 8b 35 00 00 00 00 	mov    0x0(%rip),%rsi        # 348 <_GLOBAL__sub_I_mcl.cpp.cold+0x18>
 348:	48 89 c7             	mov    %rax,%rdi
 34b:	48 8b 05 00 00 00 00 	mov    0x0(%rip),%rax        # 352 <_GLOBAL__sub_I_mcl.cpp.cold+0x22>
 352:	c7 47 08 16 00 00 00 	movl   $0x16,0x8(%rdi)
 359:	48 83 c0 10          	add    $0x10,%rax
 35d:	48 89 07             	mov    %rax,(%rdi)
 360:	e8 00 00 00 00       	callq  365 <_GLOBAL__sub_I_mcl.cpp.cold+0x35>
 365:	f3 0f 1e fa          	endbr64 
 369:	49 89 c4             	mov    %rax,%r12
 36c:	49 8d 45 10          	lea    0x10(%r13),%rax
 370:	48 8b 7d 40          	mov    0x40(%rbp),%rdi
 374:	48 89 45 28          	mov    %rax,0x28(%rbp)
 378:	48 85 ff             	test   %rdi,%rdi
 37b:	0f 85 7e 01 00 00    	jne    4ff <_GLOBAL__sub_I_mcl.cpp.cold+0x1cf>
 381:	48 8b 45 38          	mov    0x38(%rbp),%rax
 385:	48 8b 7d 30          	mov    0x30(%rbp),%rdi
 389:	31 f6                	xor    %esi,%esi
 38b:	48 8d 14 c5 00 00 00 	lea    0x0(,%rax,8),%rdx
 392:	00 
 393:	e8 00 00 00 00       	callq  398 <_GLOBAL__sub_I_mcl.cpp.cold+0x68>
 398:	48 8b 7d 30          	mov    0x30(%rbp),%rdi
 39c:	48 8d 45 60          	lea    0x60(%rbp),%rax
 3a0:	48 c7 45 48 00 00 00 	movq   $0x0,0x48(%rbp)
 3a7:	00 
 3a8:	48 c7 45 40 00 00 00 	movq   $0x0,0x40(%rbp)
 3af:	00 
 3b0:	48 39 c7             	cmp    %rax,%rdi
 3b3:	74 05                	je     3ba <_GLOBAL__sub_I_mcl.cpp.cold+0x8a>
 3b5:	e8 00 00 00 00       	callq  3ba <_GLOBAL__sub_I_mcl.cpp.cold+0x8a>
 3ba:	48 8b 7d 08          	mov    0x8(%rbp),%rdi
 3be:	48 8d 5d 08          	lea    0x8(%rbp),%rbx
 3c2:	48 39 df             	cmp    %rbx,%rdi
 3c5:	0f 85 54 01 00 00    	jne    51f <_GLOBAL__sub_I_mcl.cpp.cold+0x1ef>
 3cb:	4c 89 e7             	mov    %r12,%rdi
 3ce:	e8 00 00 00 00       	callq  3d3 <_GLOBAL__sub_I_mcl.cpp.cold+0xa3>
 3d3:	48 8b bd 38 01 00 00 	mov    0x138(%rbp),%rdi
 3da:	48 85 ff             	test   %rdi,%rdi
 3dd:	0f 85 2c 01 00 00    	jne    50f <_GLOBAL__sub_I_mcl.cpp.cold+0x1df>
 3e3:	48 8b 85 30 01 00 00 	mov    0x130(%rbp),%rax
 3ea:	48 8b bd 28 01 00 00 	mov    0x128(%rbp),%rdi
 3f1:	31 f6                	xor    %esi,%esi
 3f3:	48 8d 14 c5 00 00 00 	lea    0x0(,%rax,8),%rdx
 3fa:	00 
 3fb:	e8 00 00 00 00       	callq  400 <_GLOBAL__sub_I_mcl.cpp.cold+0xd0>
 400:	48 8b bd 28 01 00 00 	mov    0x128(%rbp),%rdi
 407:	48 8d 85 58 01 00 00 	lea    0x158(%rbp),%rax
 40e:	48 c7 85 40 01 00 00 	movq   $0x0,0x140(%rbp)
 415:	00 00 00 00 
 419:	48 c7 85 38 01 00 00 	movq   $0x0,0x138(%rbp)
 420:	00 00 00 00 
 424:	48 39 c7             	cmp    %rax,%rdi
 427:	74 05                	je     42e <_GLOBAL__sub_I_mcl.cpp.cold+0xfe>
 429:	e8 00 00 00 00       	callq  42e <_GLOBAL__sub_I_mcl.cpp.cold+0xfe>
 42e:	48 8b bd 00 01 00 00 	mov    0x100(%rbp),%rdi
 435:	48 85 ff             	test   %rdi,%rdi
 438:	0f 85 f1 00 00 00    	jne    52f <_GLOBAL__sub_I_mcl.cpp.cold+0x1ff>
 43e:	48 8b 85 f8 00 00 00 	mov    0xf8(%rbp),%rax
 445:	48 8b bd f0 00 00 00 	mov    0xf0(%rbp),%rdi
 44c:	31 f6                	xor    %esi,%esi
 44e:	48 8d 14 c5 00 00 00 	lea    0x0(,%rax,8),%rdx
 455:	00 
 456:	e8 00 00 00 00       	callq  45b <_GLOBAL__sub_I_mcl.cpp.cold+0x12b>
 45b:	48 8b bd f0 00 00 00 	mov    0xf0(%rbp),%rdi
 462:	48 8d 85 20 01 00 00 	lea    0x120(%rbp),%rax
 469:	48 c7 85 08 01 00 00 	movq   $0x0,0x108(%rbp)
 470:	00 00 00 00 
 474:	48 c7 85 00 01 00 00 	movq   $0x0,0x100(%rbp)
 47b:	00 00 00 00 
 47f:	48 39 c7             	cmp    %rax,%rdi
 482:	0f 85 b7 00 00 00    	jne    53f <_GLOBAL__sub_I_mcl.cpp.cold+0x20f>
 488:	48 8b bd c8 00 00 00 	mov    0xc8(%rbp),%rdi
 48f:	48 85 ff             	test   %rdi,%rdi
 492:	0f 85 b1 00 00 00    	jne    549 <_GLOBAL__sub_I_mcl.cpp.cold+0x219>
 498:	48 8b 85 c0 00 00 00 	mov    0xc0(%rbp),%rax
 49f:	48 8b bd b8 00 00 00 	mov    0xb8(%rbp),%rdi
 4a6:	31 f6                	xor    %esi,%esi
 4a8:	48 8d 14 c5 00 00 00 	lea    0x0(,%rax,8),%rdx
 4af:	00 
 4b0:	e8 00 00 00 00       	callq  4b5 <_GLOBAL__sub_I_mcl.cpp.cold+0x185>
 4b5:	48 8b bd b8 00 00 00 	mov    0xb8(%rbp),%rdi
 4bc:	48 8d 85 e8 00 00 00 	lea    0xe8(%rbp),%rax
 4c3:	48 c7 85 d0 00 00 00 	movq   $0x0,0xd0(%rbp)
 4ca:	00 00 00 00 
 4ce:	48 c7 85 c8 00 00 00 	movq   $0x0,0xc8(%rbp)
 4d5:	00 00 00 00 
 4d9:	48 39 c7             	cmp    %rax,%rdi
 4dc:	74 05                	je     4e3 <_GLOBAL__sub_I_mcl.cpp.cold+0x1b3>
 4de:	e8 00 00 00 00       	callq  4e3 <_GLOBAL__sub_I_mcl.cpp.cold+0x1b3>
 4e3:	48 8d bd 98 00 00 00 	lea    0x98(%rbp),%rdi
 4ea:	e8 00 00 00 00       	callq  4ef <_GLOBAL__sub_I_mcl.cpp.cold+0x1bf>
 4ef:	48 89 ef             	mov    %rbp,%rdi
 4f2:	e8 00 00 00 00       	callq  4f7 <_GLOBAL__sub_I_mcl.cpp.cold+0x1c7>
 4f7:	4c 89 e7             	mov    %r12,%rdi
 4fa:	e8 00 00 00 00       	callq  4ff <_GLOBAL__sub_I_mcl.cpp.cold+0x1cf>
 4ff:	48 8b 1f             	mov    (%rdi),%rbx
 502:	e8 00 00 00 00       	callq  507 <_GLOBAL__sub_I_mcl.cpp.cold+0x1d7>
 507:	48 89 df             	mov    %rbx,%rdi
 50a:	e9 69 fe ff ff       	jmpq   378 <_GLOBAL__sub_I_mcl.cpp.cold+0x48>
 50f:	48 8b 1f             	mov    (%rdi),%rbx
 512:	e8 00 00 00 00       	callq  517 <_GLOBAL__sub_I_mcl.cpp.cold+0x1e7>
 517:	48 89 df             	mov    %rbx,%rdi
 51a:	e9 bb fe ff ff       	jmpq   3da <_GLOBAL__sub_I_mcl.cpp.cold+0xaa>
 51f:	48 8b 2f             	mov    (%rdi),%rbp
 522:	e8 00 00 00 00       	callq  527 <_GLOBAL__sub_I_mcl.cpp.cold+0x1f7>
 527:	48 89 ef             	mov    %rbp,%rdi
 52a:	e9 93 fe ff ff       	jmpq   3c2 <_GLOBAL__sub_I_mcl.cpp.cold+0x92>
 52f:	48 8b 1f             	mov    (%rdi),%rbx
 532:	e8 00 00 00 00       	callq  537 <_GLOBAL__sub_I_mcl.cpp.cold+0x207>
 537:	48 89 df             	mov    %rbx,%rdi
 53a:	e9 f6 fe ff ff       	jmpq   435 <_GLOBAL__sub_I_mcl.cpp.cold+0x105>
 53f:	e8 00 00 00 00       	callq  544 <_GLOBAL__sub_I_mcl.cpp.cold+0x214>
 544:	e9 3f ff ff ff       	jmpq   488 <_GLOBAL__sub_I_mcl.cpp.cold+0x158>
 549:	48 8b 1f             	mov    (%rdi),%rbx
 54c:	e8 00 00 00 00       	callq  551 <_GLOBAL__sub_I_mcl.cpp.cold+0x221>
 551:	48 89 df             	mov    %rbx,%rdi
 554:	e9 36 ff ff ff       	jmpq   48f <_GLOBAL__sub_I_mcl.cpp.cold+0x15f>

Disassembly of section .text._ZN5Xbyak13CodeGenerator18isREG32_REG32orMEMERKNS_7OperandES3_:

0000000000000000 <_ZN5Xbyak13CodeGenerator18isREG32_REG32orMEMERKNS_7OperandES3_>:
   0:	f3 0f 1e fa          	endbr64 
   4:	31 c0                	xor    %eax,%eax
   6:	f6 07 80             	testb  $0x80,(%rdi)
   9:	74 3c                	je     47 <_ZN5Xbyak13CodeGenerator18isREG32_REG32orMEMERKNS_7OperandES3_+0x47>
   b:	0f b7 57 02          	movzwl 0x2(%rdi),%edx
   f:	89 d1                	mov    %edx,%ecx
  11:	66 81 e1 ff 3f       	and    $0x3fff,%cx
  16:	83 e2 60             	and    $0x60,%edx
  19:	74 2c                	je     47 <_ZN5Xbyak13CodeGenerator18isREG32_REG32orMEMERKNS_7OperandES3_+0x47>
  1b:	0f b7 06             	movzwl (%rsi),%eax
  1e:	89 c2                	mov    %eax,%edx
  20:	66 c1 ea 06          	shr    $0x6,%dx
  24:	a8 80                	test   $0x80,%al
  26:	74 1a                	je     42 <_ZN5Xbyak13CodeGenerator18isREG32_REG32orMEMERKNS_7OperandES3_+0x42>
  28:	0f b7 46 02          	movzwl 0x2(%rsi),%eax
  2c:	89 c6                	mov    %eax,%esi
  2e:	66 81 e6 ff 3f       	and    $0x3fff,%si
  33:	a8 60                	test   $0x60,%al
  35:	0f 95 c0             	setne  %al
  38:	66 39 f1             	cmp    %si,%cx
  3b:	0f 94 c1             	sete   %cl
  3e:	20 c8                	and    %cl,%al
  40:	75 05                	jne    47 <_ZN5Xbyak13CodeGenerator18isREG32_REG32orMEMERKNS_7OperandES3_+0x47>
  42:	89 d0                	mov    %edx,%eax
  44:	83 e0 01             	and    $0x1,%eax
  47:	c3                   	retq   

Disassembly of section .text._ZN5Xbyak13MmapAllocator4freeEPh:

0000000000000000 <_ZN5Xbyak13MmapAllocator4freeEPh>:
   0:	f3 0f 1e fa          	endbr64 
   4:	48 85 f6             	test   %rsi,%rsi
   7:	0f 84 13 01 00 00    	je     120 <_ZN5Xbyak13MmapAllocator4freeEPh+0x120>
   d:	55                   	push   %rbp
   e:	31 d2                	xor    %edx,%edx
  10:	53                   	push   %rbx
  11:	48 89 fb             	mov    %rdi,%rbx
  14:	48 89 f7             	mov    %rsi,%rdi
  17:	48 89 f8             	mov    %rdi,%rax
  1a:	48 83 ec 08          	sub    $0x8,%rsp
  1e:	48 8b 73 10          	mov    0x10(%rbx),%rsi
  22:	48 f7 f6             	div    %rsi
  25:	48 8b 43 08          	mov    0x8(%rbx),%rax
  29:	48 8b 04 d0          	mov    (%rax,%rdx,8),%rax
  2d:	49 89 d0             	mov    %rdx,%r8
  30:	48 85 c0             	test   %rax,%rax
  33:	0f 84 32 01 00 00    	je     16b <_ZN5Xbyak13MmapAllocator4freeEPh+0x16b>
  39:	48 8b 28             	mov    (%rax),%rbp
  3c:	48 8b 4d 08          	mov    0x8(%rbp),%rcx
  40:	eb 28                	jmp    6a <_ZN5Xbyak13MmapAllocator4freeEPh+0x6a>
  42:	66 0f 1f 44 00 00    	nopw   0x0(%rax,%rax,1)
  48:	48 8b 6d 00          	mov    0x0(%rbp),%rbp
  4c:	48 85 ed             	test   %rbp,%rbp
  4f:	0f 84 16 01 00 00    	je     16b <_ZN5Xbyak13MmapAllocator4freeEPh+0x16b>
  55:	48 8b 4d 08          	mov    0x8(%rbp),%rcx
  59:	31 d2                	xor    %edx,%edx
  5b:	48 89 c8             	mov    %rcx,%rax
  5e:	48 f7 f6             	div    %rsi
  61:	49 39 d0             	cmp    %rdx,%r8
  64:	0f 85 01 01 00 00    	jne    16b <_ZN5Xbyak13MmapAllocator4freeEPh+0x16b>
  6a:	48 39 cf             	cmp    %rcx,%rdi
  6d:	75 d9                	jne    48 <_ZN5Xbyak13MmapAllocator4freeEPh+0x48>
  6f:	48 8b 75 10          	mov    0x10(%rbp),%rsi
  73:	e8 00 00 00 00       	callq  78 <_ZN5Xbyak13MmapAllocator4freeEPh+0x78>
  78:	85 c0                	test   %eax,%eax
  7a:	0f 88 b6 00 00 00    	js     136 <_ZN5Xbyak13MmapAllocator4freeEPh+0x136>
  80:	48 8b 4b 10          	mov    0x10(%rbx),%rcx
  84:	48 8b 45 08          	mov    0x8(%rbp),%rax
  88:	31 d2                	xor    %edx,%edx
  8a:	4c 8b 4b 08          	mov    0x8(%rbx),%r9
  8e:	48 f7 f1             	div    %rcx
  91:	4d 8d 14 d1          	lea    (%r9,%rdx,8),%r10
  95:	49 89 d0             	mov    %rdx,%r8
  98:	49 8b 02             	mov    (%r10),%rax
  9b:	48 89 c2             	mov    %rax,%rdx
  9e:	66 90                	xchg   %ax,%ax
  a0:	48 89 d7             	mov    %rdx,%rdi
  a3:	48 8b 12             	mov    (%rdx),%rdx
  a6:	48 39 d5             	cmp    %rdx,%rbp
  a9:	75 f5                	jne    a0 <_ZN5Xbyak13MmapAllocator4freeEPh+0xa0>
  ab:	48 8b 75 00          	mov    0x0(%rbp),%rsi
  af:	48 39 f8             	cmp    %rdi,%rax
  b2:	74 3c                	je     f0 <_ZN5Xbyak13MmapAllocator4freeEPh+0xf0>
  b4:	48 85 f6             	test   %rsi,%rsi
  b7:	74 16                	je     cf <_ZN5Xbyak13MmapAllocator4freeEPh+0xcf>
  b9:	48 8b 46 08          	mov    0x8(%rsi),%rax
  bd:	31 d2                	xor    %edx,%edx
  bf:	48 f7 f1             	div    %rcx
  c2:	49 39 d0             	cmp    %rdx,%r8
  c5:	74 08                	je     cf <_ZN5Xbyak13MmapAllocator4freeEPh+0xcf>
  c7:	49 89 3c d1          	mov    %rdi,(%r9,%rdx,8)
  cb:	48 8b 75 00          	mov    0x0(%rbp),%rsi
  cf:	48 89 37             	mov    %rsi,(%rdi)
  d2:	48 89 ef             	mov    %rbp,%rdi
  d5:	e8 00 00 00 00       	callq  da <_ZN5Xbyak13MmapAllocator4freeEPh+0xda>
  da:	48 83 6b 20 01       	subq   $0x1,0x20(%rbx)
  df:	48 83 c4 08          	add    $0x8,%rsp
  e3:	5b                   	pop    %rbx
  e4:	5d                   	pop    %rbp
  e5:	c3                   	retq   
  e6:	66 2e 0f 1f 84 00 00 	nopw   %cs:0x0(%rax,%rax,1)
  ed:	00 00 00 
  f0:	48 85 f6             	test   %rsi,%rsi
  f3:	74 33                	je     128 <_ZN5Xbyak13MmapAllocator4freeEPh+0x128>
  f5:	48 8b 46 08          	mov    0x8(%rsi),%rax
  f9:	31 d2                	xor    %edx,%edx
  fb:	48 f7 f1             	div    %rcx
  fe:	49 39 d0             	cmp    %rdx,%r8
 101:	74 cc                	je     cf <_ZN5Xbyak13MmapAllocator4freeEPh+0xcf>
 103:	49 89 3c d1          	mov    %rdi,(%r9,%rdx,8)
 107:	49 8b 02             	mov    (%r10),%rax
 10a:	48 8d 53 18          	lea    0x18(%rbx),%rdx
 10e:	48 39 d0             	cmp    %rdx,%rax
 111:	74 1d                	je     130 <_ZN5Xbyak13MmapAllocator4freeEPh+0x130>
 113:	49 c7 02 00 00 00 00 	movq   $0x0,(%r10)
 11a:	48 8b 75 00          	mov    0x0(%rbp),%rsi
 11e:	eb af                	jmp    cf <_ZN5Xbyak13MmapAllocator4freeEPh+0xcf>
 120:	c3                   	retq   
 121:	0f 1f 80 00 00 00 00 	nopl   0x0(%rax)
 128:	48 89 f8             	mov    %rdi,%rax
 12b:	eb dd                	jmp    10a <_ZN5Xbyak13MmapAllocator4freeEPh+0x10a>
 12d:	0f 1f 00             	nopl   (%rax)
 130:	48 89 73 18          	mov    %rsi,0x18(%rbx)
 134:	eb dd                	jmp    113 <_ZN5Xbyak13MmapAllocator4freeEPh+0x113>
 136:	bf 10 00 00 00       	mov    $0x10,%edi
 13b:	e8 00 00 00 00       	callq  140 <_ZN5Xbyak13MmapAllocator4freeEPh+0x140>
 140:	48 8b 15 00 00 00 00 	mov    0x0(%rip),%rdx        # 147 <_ZN5Xbyak13MmapAllocator4freeEPh+0x147>
 147:	48 8b 35 00 00 00 00 	mov    0x0(%rip),%rsi        # 14e <_ZN5Xbyak13MmapAllocator4freeEPh+0x14e>
 14e:	48 89 c7             	mov    %rax,%rdi
 151:	48 8b 05 00 00 00 00 	mov    0x0(%rip),%rax        # 158 <_ZN5Xbyak13MmapAllocator4freeEPh+0x158>
 158:	c7 47 08 20 00 00 00 	movl   $0x20,0x8(%rdi)
 15f:	48 83 c0 10          	add    $0x10,%rax
 163:	48 89 07             	mov    %rax,(%rdi)
 166:	e8 00 00 00 00       	callq  16b <_ZN5Xbyak13MmapAllocator4freeEPh+0x16b>
 16b:	bf 10 00 00 00       	mov    $0x10,%edi
 170:	e8 00 00 00 00       	callq  175 <_ZN5Xbyak13MmapAllocator4freeEPh+0x175>
 175:	48 8b 15 00 00 00 00 	mov    0x0(%rip),%rdx        # 17c <_ZN5Xbyak13MmapAllocator4freeEPh+0x17c>
 17c:	48 8b 35 00 00 00 00 	mov    0x0(%rip),%rsi        # 183 <_ZN5Xbyak13MmapAllocator4freeEPh+0x183>
 183:	48 89 c7             	mov    %rax,%rdi
 186:	48 8b 05 00 00 00 00 	mov    0x0(%rip),%rax        # 18d <_ZN5Xbyak13MmapAllocator4freeEPh+0x18d>
 18d:	c7 47 08 0d 00 00 00 	movl   $0xd,0x8(%rdi)
 194:	48 83 c0 10          	add    $0x10,%rax
 198:	48 89 07             	mov    %rax,(%rdi)
 19b:	e8 00 00 00 00       	callq  1a0 <_ZN5Xbyak13CodeGenerator15verifyDuplicateEiiii.isra.0.part.0+0x18>

Disassembly of section .text.unlikely._ZNSt7__cxx1112basic_stringIcSt11char_traitsIcESaIcEEC2EPKcRKS3_.isra.0:

0000000000000000 <_ZNSt7__cxx1112basic_stringIcSt11char_traitsIcESaIcEEC2EPKcRKS3_.isra.0>:
   0:	41 54                	push   %r12
   2:	48 8d 47 10          	lea    0x10(%rdi),%rax
   6:	55                   	push   %rbp
   7:	53                   	push   %rbx
   8:	48 83 ec 10          	sub    $0x10,%rsp
   c:	48 89 07             	mov    %rax,(%rdi)
   f:	48 85 f6             	test   %rsi,%rsi
  12:	74 7b                	je     8f <_ZNSt7__cxx1112basic_stringIcSt11char_traitsIcESaIcEEC2EPKcRKS3_.isra.0+0x8f>
  14:	48 89 fd             	mov    %rdi,%rbp
  17:	48 83 c9 ff          	or     $0xffffffffffffffff,%rcx
  1b:	31 c0                	xor    %eax,%eax
  1d:	48 89 f7             	mov    %rsi,%rdi
  20:	f2 ae                	repnz scas %es:(%rdi),%al
  22:	49 89 f4             	mov    %rsi,%r12
  25:	48 f7 d1             	not    %rcx
  28:	48 8d 59 ff          	lea    -0x1(%rcx),%rbx
  2c:	48 89 5c 24 08       	mov    %rbx,0x8(%rsp)
  31:	48 83 fb 0f          	cmp    $0xf,%rbx
  35:	76 1c                	jbe    53 <_ZNSt7__cxx1112basic_stringIcSt11char_traitsIcESaIcEEC2EPKcRKS3_.isra.0+0x53>
  37:	48 8d 74 24 08       	lea    0x8(%rsp),%rsi
  3c:	31 d2                	xor    %edx,%edx
  3e:	48 89 ef             	mov    %rbp,%rdi
  41:	e8 00 00 00 00       	callq  46 <_ZNSt7__cxx1112basic_stringIcSt11char_traitsIcESaIcEEC2EPKcRKS3_.isra.0+0x46>
  46:	48 89 45 00          	mov    %rax,0x0(%rbp)
  4a:	48 8b 44 24 08       	mov    0x8(%rsp),%rax
  4f:	48 89 45 10          	mov    %rax,0x10(%rbp)
  53:	48 8b 45 00          	mov    0x0(%rbp),%rax
  57:	48 83 fb 01          	cmp    $0x1,%rbx
  5b:	75 08                	jne    65 <_ZNSt7__cxx1112basic_stringIcSt11char_traitsIcESaIcEEC2EPKcRKS3_.isra.0+0x65>
  5d:	41 8a 14 24          	mov    (%r12),%dl
  61:	88 10                	mov    %dl,(%rax)
  63:	eb 10                	jmp    75 <_ZNSt7__cxx1112basic_stringIcSt11char_traitsIcESaIcEEC2EPKcRKS3_.isra.0+0x75>
  65:	48 85 db             	test   %rbx,%rbx
  68:	74 0b                	je     75 <_ZNSt7__cxx1112basic_stringIcSt11char_traitsIcESaIcEEC2EPKcRKS3_.isra.0+0x75>
  6a:	48 89 c7             	mov    %rax,%rdi
  6d:	4c 89 e6             	mov    %r12,%rsi
  70:	48 89 d9             	mov    %rbx,%rcx
  73:	f3 a4                	rep movsb %ds:(%rsi),%es:(%rdi)
  75:	48 8b 44 24 08       	mov    0x8(%rsp),%rax
  7a:	48 8b 55 00          	mov    0x0(%rbp),%rdx
  7e:	48 89 45 08          	mov    %rax,0x8(%rbp)
  82:	c6 04 02 00          	movb   $0x0,(%rdx,%rax,1)
  86:	48 83 c4 10          	add    $0x10,%rsp
  8a:	5b                   	pop    %rbx
  8b:	5d                   	pop    %rbp
  8c:	41 5c                	pop    %r12
  8e:	c3                   	retq   
  8f:	48 8d 3d 00 00 00 00 	lea    0x0(%rip),%rdi        # 96 <_ZNSt7__cxx1112basic_stringIcSt11char_traitsIcESaIcEEC2EPKcRKS3_.isra.0+0x96>
  96:	e8 00 00 00 00       	callq  9b <_ZN5Xbyak13MmapAllocator5allocEm.part.0+0x2b>

Disassembly of section .text._ZN6cybozu9ExceptionD0Ev:

0000000000000000 <_ZN6cybozu9ExceptionD0Ev>:
   0:	f3 0f 1e fa          	endbr64 
   4:	48 8b 05 00 00 00 00 	mov    0x0(%rip),%rax        # b <_ZN6cybozu9ExceptionD0Ev+0xb>
   b:	55                   	push   %rbp
   c:	48 89 fd             	mov    %rdi,%rbp
   f:	48 83 c0 10          	add    $0x10,%rax
  13:	48 89 07             	mov    %rax,(%rdi)
  16:	48 8b 7f 08          	mov    0x8(%rdi),%rdi
  1a:	48 8d 45 18          	lea    0x18(%rbp),%rax
  1e:	48 39 c7             	cmp    %rax,%rdi
  21:	74 05                	je     28 <_ZN6cybozu9ExceptionD0Ev+0x28>
  23:	e8 00 00 00 00       	callq  28 <_ZN6cybozu9ExceptionD0Ev+0x28>
  28:	48 89 ef             	mov    %rbp,%rdi
  2b:	e8 00 00 00 00       	callq  30 <_ZN6cybozu9ExceptionD0Ev+0x30>
  30:	48 89 ef             	mov    %rbp,%rdi
  33:	be 28 00 00 00       	mov    $0x28,%esi
  38:	5d                   	pop    %rbp
  39:	e9 00 00 00 00       	jmpq   3e <_ZNK5Xbyak6RegExp6verifyEv.part.0+0x6>

Disassembly of section .text._ZN5Xbyak13MmapAllocatorD2Ev:

0000000000000000 <_ZN5Xbyak13MmapAllocatorD1Ev>:
   0:	f3 0f 1e fa          	endbr64 
   4:	55                   	push   %rbp
   5:	53                   	push   %rbx
   6:	48 89 fb             	mov    %rdi,%rbx
   9:	48 83 ec 08          	sub    $0x8,%rsp
   d:	48 8b 05 00 00 00 00 	mov    0x0(%rip),%rax        # 14 <_ZN5Xbyak13MmapAllocatorD1Ev+0x14>
  14:	48 8b 6f 18          	mov    0x18(%rdi),%rbp
  18:	48 83 c0 10          	add    $0x10,%rax
  1c:	48 89 07             	mov    %rax,(%rdi)
  1f:	48 85 ed             	test   %rbp,%rbp
  22:	74 15                	je     39 <_ZN5Xbyak13MmapAllocatorD1Ev+0x39>
  24:	0f 1f 40 00          	nopl   0x0(%rax)
  28:	48 89 ef             	mov    %rbp,%rdi
  2b:	48 8b 6d 00          	mov    0x0(%rbp),%rbp
  2f:	e8 00 00 00 00       	callq  34 <_ZN5Xbyak13MmapAllocatorD1Ev+0x34>
  34:	48 85 ed             	test   %rbp,%rbp
  37:	75 ef                	jne    28 <_ZN5Xbyak13MmapAllocatorD1Ev+0x28>
  39:	48 8b 43 10          	mov    0x10(%rbx),%rax
  3d:	48 8b 7b 08          	mov    0x8(%rbx),%rdi
  41:	31 f6                	xor    %esi,%esi
  43:	48 83 c3 38          	add    $0x38,%rbx
  47:	48 8d 14 c5 00 00 00 	lea    0x0(,%rax,8),%rdx
  4e:	00 
  4f:	e8 00 00 00 00       	callq  54 <_ZN5Xbyak13MmapAllocatorD1Ev+0x54>
  54:	48 8b 7b d0          	mov    -0x30(%rbx),%rdi
  58:	48 c7 43 e8 00 00 00 	movq   $0x0,-0x18(%rbx)
  5f:	00 
  60:	48 c7 43 e0 00 00 00 	movq   $0x0,-0x20(%rbx)
  67:	00 
  68:	48 39 df             	cmp    %rbx,%rdi
  6b:	74 13                	je     80 <_ZN5Xbyak13MmapAllocatorD1Ev+0x80>
  6d:	48 83 c4 08          	add    $0x8,%rsp
  71:	5b                   	pop    %rbx
  72:	5d                   	pop    %rbp
  73:	e9 00 00 00 00       	jmpq   78 <_ZN5Xbyak13MmapAllocatorD1Ev+0x78>
  78:	0f 1f 84 00 00 00 00 	nopl   0x0(%rax,%rax,1)
  7f:	00 
  80:	48 83 c4 08          	add    $0x8,%rsp
  84:	5b                   	pop    %rbx
  85:	5d                   	pop    %rbp
  86:	c3                   	retq   

Disassembly of section .text._ZN5Xbyak13MmapAllocatorD0Ev:

0000000000000000 <_ZN5Xbyak13MmapAllocatorD0Ev>:
   0:	f3 0f 1e fa          	endbr64 
   4:	55                   	push   %rbp
   5:	48 89 fd             	mov    %rdi,%rbp
   8:	53                   	push   %rbx
   9:	48 83 ec 08          	sub    $0x8,%rsp
   d:	48 8b 05 00 00 00 00 	mov    0x0(%rip),%rax        # 14 <_ZN5Xbyak13MmapAllocatorD0Ev+0x14>
  14:	48 8b 5f 18          	mov    0x18(%rdi),%rbx
  18:	48 83 c0 10          	add    $0x10,%rax
  1c:	48 89 07             	mov    %rax,(%rdi)
  1f:	48 85 db             	test   %rbx,%rbx
  22:	74 14                	je     38 <_ZN5Xbyak13MmapAllocatorD0Ev+0x38>
  24:	0f 1f 40 00          	nopl   0x0(%rax)
  28:	48 89 df             	mov    %rbx,%rdi
  2b:	48 8b 1b             	mov    (%rbx),%rbx
  2e:	e8 00 00 00 00       	callq  33 <_ZN5Xbyak13MmapAllocatorD0Ev+0x33>
  33:	48 85 db             	test   %rbx,%rbx
  36:	75 f0                	jne    28 <_ZN5Xbyak13MmapAllocatorD0Ev+0x28>
  38:	48 8b 45 10          	mov    0x10(%rbp),%rax
  3c:	48 8b 7d 08          	mov    0x8(%rbp),%rdi
  40:	31 f6                	xor    %esi,%esi
  42:	48 8d 14 c5 00 00 00 	lea    0x0(,%rax,8),%rdx
  49:	00 
  4a:	e8 00 00 00 00       	callq  4f <_ZN5Xbyak13MmapAllocatorD0Ev+0x4f>
  4f:	48 8b 7d 08          	mov    0x8(%rbp),%rdi
  53:	48 8d 45 38          	lea    0x38(%rbp),%rax
  57:	48 c7 45 20 00 00 00 	movq   $0x0,0x20(%rbp)
  5e:	00 
  5f:	48 c7 45 18 00 00 00 	movq   $0x0,0x18(%rbp)
  66:	00 
  67:	48 39 c7             	cmp    %rax,%rdi
  6a:	74 05                	je     71 <_ZN5Xbyak13MmapAllocatorD0Ev+0x71>
  6c:	e8 00 00 00 00       	callq  71 <_ZN5Xbyak13MmapAllocatorD0Ev+0x71>
  71:	48 83 c4 08          	add    $0x8,%rsp
  75:	48 89 ef             	mov    %rbp,%rdi
  78:	be 40 00 00 00       	mov    $0x40,%esi
  7d:	5b                   	pop    %rbx
  7e:	5d                   	pop    %rbp
  7f:	e9 00 00 00 00       	jmpq   84 <_ZN5Xbyak13MmapAllocator5allocEm.part.0+0x14>

Disassembly of section .text._ZN5Xbyak9CodeArrayD2Ev:

0000000000000000 <_ZN5Xbyak9CodeArrayD1Ev>:
   0:	f3 0f 1e fa          	endbr64 
   4:	48 8b 05 00 00 00 00 	mov    0x0(%rip),%rax        # b <_ZN5Xbyak9CodeArrayD1Ev+0xb>
   b:	41 54                	push   %r12
   d:	55                   	push   %rbp
   e:	48 89 fd             	mov    %rdi,%rbp
  11:	48 83 c0 10          	add    $0x10,%rax
  15:	53                   	push   %rbx
  16:	48 89 07             	mov    %rax,(%rdi)
  19:	8b 47 20             	mov    0x20(%rdi),%eax
  1c:	83 e8 02             	sub    $0x2,%eax
  1f:	83 f8 01             	cmp    $0x1,%eax
  22:	0f 86 90 00 00 00    	jbe    b8 <_ZN5Xbyak9CodeArrayD1Ev+0xb8>
  28:	48 8b 05 00 00 00 00 	mov    0x0(%rip),%rax        # 2f <_ZN5Xbyak9CodeArrayD1Ev+0x2f>
  2f:	48 8b 5d 40          	mov    0x40(%rbp),%rbx
  33:	48 83 c0 10          	add    $0x10,%rax
  37:	48 89 45 28          	mov    %rax,0x28(%rbp)
  3b:	48 85 db             	test   %rbx,%rbx
  3e:	74 10                	je     50 <_ZN5Xbyak9CodeArrayD1Ev+0x50>
  40:	48 89 df             	mov    %rbx,%rdi
  43:	48 8b 1b             	mov    (%rbx),%rbx
  46:	e8 00 00 00 00       	callq  4b <_ZN5Xbyak9CodeArrayD1Ev+0x4b>
  4b:	48 85 db             	test   %rbx,%rbx
  4e:	75 f0                	jne    40 <_ZN5Xbyak9CodeArrayD1Ev+0x40>
  50:	48 8b 45 38          	mov    0x38(%rbp),%rax
  54:	48 8b 7d 30          	mov    0x30(%rbp),%rdi
  58:	31 f6                	xor    %esi,%esi
  5a:	48 8d 14 c5 00 00 00 	lea    0x0(,%rax,8),%rdx
  61:	00 
  62:	e8 00 00 00 00       	callq  67 <_ZN5Xbyak9CodeArrayD1Ev+0x67>
  67:	48 8b 7d 30          	mov    0x30(%rbp),%rdi
  6b:	48 8d 45 60          	lea    0x60(%rbp),%rax
  6f:	48 c7 45 48 00 00 00 	movq   $0x0,0x48(%rbp)
  76:	00 
  77:	48 c7 45 40 00 00 00 	movq   $0x0,0x40(%rbp)
  7e:	00 
  7f:	48 39 c7             	cmp    %rax,%rdi
  82:	74 05                	je     89 <_ZN5Xbyak9CodeArrayD1Ev+0x89>
  84:	e8 00 00 00 00       	callq  89 <_ZN5Xbyak9CodeArrayD1Ev+0x89>
  89:	48 8b 5d 08          	mov    0x8(%rbp),%rbx
  8d:	48 83 c5 08          	add    $0x8,%rbp
  91:	48 39 eb             	cmp    %rbp,%rbx
  94:	74 1a                	je     b0 <_ZN5Xbyak9CodeArrayD1Ev+0xb0>
  96:	66 2e 0f 1f 84 00 00 	nopw   %cs:0x0(%rax,%rax,1)
  9d:	00 00 00 
  a0:	48 89 df             	mov    %rbx,%rdi
  a3:	48 8b 1b             	mov    (%rbx),%rbx
  a6:	e8 00 00 00 00       	callq  ab <_ZN5Xbyak9CodeArrayD1Ev+0xab>
  ab:	48 39 eb             	cmp    %rbp,%rbx
  ae:	75 f0                	jne    a0 <_ZN5Xbyak9CodeArrayD1Ev+0xa0>
  b0:	5b                   	pop    %rbx
  b1:	5d                   	pop    %rbp
  b2:	41 5c                	pop    %r12
  b4:	c3                   	retq   
  b5:	0f 1f 00             	nopl   (%rax)
  b8:	48 8b 7f 68          	mov    0x68(%rdi),%rdi
  bc:	48 8b 07             	mov    (%rdi),%rax
  bf:	48 8b 40 20          	mov    0x20(%rax),%rax
  c3:	48 3b 05 00 00 00 00 	cmp    0x0(%rip),%rax        # ca <_ZN5Xbyak9CodeArrayD1Ev+0xca>
  ca:	75 3f                	jne    10b <_ZN5Xbyak9CodeArrayD1Ev+0x10b>
  cc:	bf 1e 00 00 00       	mov    $0x1e,%edi
  d1:	4c 8b 65 78          	mov    0x78(%rbp),%r12
  d5:	48 8b 5d 70          	mov    0x70(%rbp),%rbx
  d9:	e8 00 00 00 00       	callq  de <_ZN5Xbyak9CodeArrayD1Ev+0xde>
  de:	ba 03 00 00 00       	mov    $0x3,%edx
  e3:	48 f7 d8             	neg    %rax
  e6:	4a 8d 34 23          	lea    (%rbx,%r12,1),%rsi
  ea:	48 89 c7             	mov    %rax,%rdi
  ed:	4c 21 e7             	and    %r12,%rdi
  f0:	48 29 fe             	sub    %rdi,%rsi
  f3:	e8 00 00 00 00       	callq  f8 <_ZN5Xbyak9CodeArrayD1Ev+0xf8>
  f8:	48 8b 7d 68          	mov    0x68(%rbp),%rdi
  fc:	48 8b 75 78          	mov    0x78(%rbp),%rsi
 100:	48 8b 07             	mov    (%rdi),%rax
 103:	ff 50 08             	callq  *0x8(%rax)
 106:	e9 1d ff ff ff       	jmpq   28 <_ZN5Xbyak9CodeArrayD1Ev+0x28>
 10b:	ff d0                	callq  *%rax
 10d:	84 c0                	test   %al,%al
 10f:	74 e7                	je     f8 <_ZN5Xbyak9CodeArrayD1Ev+0xf8>
 111:	eb b9                	jmp    cc <_ZN5Xbyak9CodeArrayD1Ev+0xcc>

Disassembly of section .text._ZN5Xbyak9CodeArrayD0Ev:

0000000000000000 <_ZN5Xbyak9CodeArrayD0Ev>:
   0:	f3 0f 1e fa          	endbr64 
   4:	48 8b 05 00 00 00 00 	mov    0x0(%rip),%rax        # b <_ZN5Xbyak9CodeArrayD0Ev+0xb>
   b:	41 54                	push   %r12
   d:	55                   	push   %rbp
   e:	48 89 fd             	mov    %rdi,%rbp
  11:	48 83 c0 10          	add    $0x10,%rax
  15:	53                   	push   %rbx
  16:	48 89 07             	mov    %rax,(%rdi)
  19:	8b 47 20             	mov    0x20(%rdi),%eax
  1c:	83 e8 02             	sub    $0x2,%eax
  1f:	83 f8 01             	cmp    $0x1,%eax
  22:	0f 86 a0 00 00 00    	jbe    c8 <_ZN5Xbyak9CodeArrayD0Ev+0xc8>
  28:	48 8b 05 00 00 00 00 	mov    0x0(%rip),%rax        # 2f <_ZN5Xbyak9CodeArrayD0Ev+0x2f>
  2f:	48 8b 5d 40          	mov    0x40(%rbp),%rbx
  33:	48 83 c0 10          	add    $0x10,%rax
  37:	48 89 45 28          	mov    %rax,0x28(%rbp)
  3b:	48 85 db             	test   %rbx,%rbx
  3e:	74 10                	je     50 <_ZN5Xbyak9CodeArrayD0Ev+0x50>
  40:	48 89 df             	mov    %rbx,%rdi
  43:	48 8b 1b             	mov    (%rbx),%rbx
  46:	e8 00 00 00 00       	callq  4b <_ZN5Xbyak9CodeArrayD0Ev+0x4b>
  4b:	48 85 db             	test   %rbx,%rbx
  4e:	75 f0                	jne    40 <_ZN5Xbyak9CodeArrayD0Ev+0x40>
  50:	48 8b 45 38          	mov    0x38(%rbp),%rax
  54:	48 8b 7d 30          	mov    0x30(%rbp),%rdi
  58:	31 f6                	xor    %esi,%esi
  5a:	48 8d 14 c5 00 00 00 	lea    0x0(,%rax,8),%rdx
  61:	00 
  62:	e8 00 00 00 00       	callq  67 <_ZN5Xbyak9CodeArrayD0Ev+0x67>
  67:	48 8b 7d 30          	mov    0x30(%rbp),%rdi
  6b:	48 8d 45 60          	lea    0x60(%rbp),%rax
  6f:	48 c7 45 48 00 00 00 	movq   $0x0,0x48(%rbp)
  76:	00 
  77:	48 c7 45 40 00 00 00 	movq   $0x0,0x40(%rbp)
  7e:	00 
  7f:	48 39 c7             	cmp    %rax,%rdi
  82:	74 05                	je     89 <_ZN5Xbyak9CodeArrayD0Ev+0x89>
  84:	e8 00 00 00 00       	callq  89 <_ZN5Xbyak9CodeArrayD0Ev+0x89>
  89:	48 8b 5d 08          	mov    0x8(%rbp),%rbx
  8d:	4c 8d 65 08          	lea    0x8(%rbp),%r12
  91:	4c 39 e3             	cmp    %r12,%rbx
  94:	74 1a                	je     b0 <_ZN5Xbyak9CodeArrayD0Ev+0xb0>
  96:	66 2e 0f 1f 84 00 00 	nopw   %cs:0x0(%rax,%rax,1)
  9d:	00 00 00 
  a0:	48 89 df             	mov    %rbx,%rdi
  a3:	48 8b 1b             	mov    (%rbx),%rbx
  a6:	e8 00 00 00 00       	callq  ab <_ZN5Xbyak9CodeArrayD0Ev+0xab>
  ab:	4c 39 e3             	cmp    %r12,%rbx
  ae:	75 f0                	jne    a0 <_ZN5Xbyak9CodeArrayD0Ev+0xa0>
  b0:	5b                   	pop    %rbx
  b1:	48 89 ef             	mov    %rbp,%rdi
  b4:	be 90 00 00 00       	mov    $0x90,%esi
  b9:	5d                   	pop    %rbp
  ba:	41 5c                	pop    %r12
  bc:	e9 00 00 00 00       	jmpq   c1 <_ZN5Xbyak9CodeArrayD0Ev+0xc1>
  c1:	0f 1f 80 00 00 00 00 	nopl   0x0(%rax)
  c8:	48 8b 7f 68          	mov    0x68(%rdi),%rdi
  cc:	48 8b 07             	mov    (%rdi),%rax
  cf:	48 8b 40 20          	mov    0x20(%rax),%rax
  d3:	48 3b 05 00 00 00 00 	cmp    0x0(%rip),%rax        # da <_ZN5Xbyak9CodeArrayD0Ev+0xda>
  da:	75 44                	jne    120 <_ZN5Xbyak9CodeArrayD0Ev+0x120>
  dc:	bf 1e 00 00 00       	mov    $0x1e,%edi
  e1:	4c 8b 65 78          	mov    0x78(%rbp),%r12
  e5:	48 8b 5d 70          	mov    0x70(%rbp),%rbx
  e9:	e8 00 00 00 00       	callq  ee <_ZN5Xbyak9CodeArrayD0Ev+0xee>
  ee:	ba 03 00 00 00       	mov    $0x3,%edx
  f3:	48 f7 d8             	neg    %rax
  f6:	4a 8d 34 23          	lea    (%rbx,%r12,1),%rsi
  fa:	48 89 c7             	mov    %rax,%rdi
  fd:	4c 21 e7             	and    %r12,%rdi
 100:	48 29 fe             	sub    %rdi,%rsi
 103:	e8 00 00 00 00       	callq  108 <_ZN5Xbyak9CodeArrayD0Ev+0x108>
 108:	48 8b 7d 68          	mov    0x68(%rbp),%rdi
 10c:	48 8b 75 78          	mov    0x78(%rbp),%rsi
 110:	48 8b 07             	mov    (%rdi),%rax
 113:	ff 50 08             	callq  *0x8(%rax)
 116:	e9 0d ff ff ff       	jmpq   28 <_ZN5Xbyak9CodeArrayD0Ev+0x28>
 11b:	0f 1f 44 00 00       	nopl   0x0(%rax,%rax,1)
 120:	ff d0                	callq  *%rax
 122:	84 c0                	test   %al,%al
 124:	74 e2                	je     108 <_ZN5Xbyak9CodeArrayD0Ev+0x108>
 126:	eb b4                	jmp    dc <_ZN5Xbyak9CodeArrayD0Ev+0xdc>

Disassembly of section .text._ZN6cybozu9ExceptionC2ERKNSt7__cxx1112basic_stringIcSt11char_traitsIcESaIcEEEb:

0000000000000000 <_ZN6cybozu9ExceptionC1ERKNSt7__cxx1112basic_stringIcSt11char_traitsIcESaIcEEEb>:
   0:	f3 0f 1e fa          	endbr64 
   4:	41 55                	push   %r13
   6:	41 54                	push   %r12
   8:	55                   	push   %rbp
   9:	48 89 fd             	mov    %rdi,%rbp
   c:	48 83 c7 18          	add    $0x18,%rdi
  10:	48 83 ec 10          	sub    $0x10,%rsp
  14:	48 8b 05 00 00 00 00 	mov    0x0(%rip),%rax        # 1b <_ZN6cybozu9ExceptionC1ERKNSt7__cxx1112basic_stringIcSt11char_traitsIcESaIcEEEb+0x1b>
  1b:	4c 8b 66 08          	mov    0x8(%rsi),%r12
  1f:	48 83 c0 10          	add    $0x10,%rax
  23:	48 89 47 e8          	mov    %rax,-0x18(%rdi)
  27:	48 89 7d 08          	mov    %rdi,0x8(%rbp)
  2b:	4c 8b 2e             	mov    (%rsi),%r13
  2e:	4c 89 e8             	mov    %r13,%rax
  31:	4c 01 e0             	add    %r12,%rax
  34:	74 05                	je     3b <_ZN6cybozu9ExceptionC1ERKNSt7__cxx1112basic_stringIcSt11char_traitsIcESaIcEEEb+0x3b>
  36:	4d 85 ed             	test   %r13,%r13
  39:	74 7b                	je     b6 <_ZN6cybozu9ExceptionC1ERKNSt7__cxx1112basic_stringIcSt11char_traitsIcESaIcEEEb+0xb6>
  3b:	4c 89 64 24 08       	mov    %r12,0x8(%rsp)
  40:	49 83 fc 0f          	cmp    $0xf,%r12
  44:	77 3a                	ja     80 <_ZN6cybozu9ExceptionC1ERKNSt7__cxx1112basic_stringIcSt11char_traitsIcESaIcEEEb+0x80>
  46:	49 83 fc 01          	cmp    $0x1,%r12
  4a:	75 24                	jne    70 <_ZN6cybozu9ExceptionC1ERKNSt7__cxx1112basic_stringIcSt11char_traitsIcESaIcEEEb+0x70>
  4c:	41 0f b6 45 00       	movzbl 0x0(%r13),%eax
  51:	88 45 18             	mov    %al,0x18(%rbp)
  54:	4c 89 65 10          	mov    %r12,0x10(%rbp)
  58:	42 c6 04 27 00       	movb   $0x0,(%rdi,%r12,1)
  5d:	48 83 c4 10          	add    $0x10,%rsp
  61:	5d                   	pop    %rbp
  62:	41 5c                	pop    %r12
  64:	41 5d                	pop    %r13
  66:	c3                   	retq   
  67:	66 0f 1f 84 00 00 00 	nopw   0x0(%rax,%rax,1)
  6e:	00 00 
  70:	4d 85 e4             	test   %r12,%r12
  73:	74 df                	je     54 <_ZN6cybozu9ExceptionC1ERKNSt7__cxx1112basic_stringIcSt11char_traitsIcESaIcEEEb+0x54>
  75:	eb 29                	jmp    a0 <_ZN6cybozu9ExceptionC1ERKNSt7__cxx1112basic_stringIcSt11char_traitsIcESaIcEEEb+0xa0>
  77:	66 0f 1f 84 00 00 00 	nopw   0x0(%rax,%rax,1)
  7e:	00 00 
  80:	48 8d 74 24 08       	lea    0x8(%rsp),%rsi
  85:	48 8d 7d 08          	lea    0x8(%rbp),%rdi
  89:	31 d2                	xor    %edx,%edx
  8b:	e8 00 00 00 00       	callq  90 <_ZN6cybozu9ExceptionC1ERKNSt7__cxx1112basic_stringIcSt11char_traitsIcESaIcEEEb+0x90>
  90:	48 89 45 08          	mov    %rax,0x8(%rbp)
  94:	48 89 c7             	mov    %rax,%rdi
  97:	48 8b 44 24 08       	mov    0x8(%rsp),%rax
  9c:	48 89 45 18          	mov    %rax,0x18(%rbp)
  a0:	4c 89 e2             	mov    %r12,%rdx
  a3:	4c 89 ee             	mov    %r13,%rsi
  a6:	e8 00 00 00 00       	callq  ab <_ZN6cybozu9ExceptionC1ERKNSt7__cxx1112basic_stringIcSt11char_traitsIcESaIcEEEb+0xab>
  ab:	4c 8b 64 24 08       	mov    0x8(%rsp),%r12
  b0:	48 8b 7d 08          	mov    0x8(%rbp),%rdi
  b4:	eb 9e                	jmp    54 <_ZN6cybozu9ExceptionC1ERKNSt7__cxx1112basic_stringIcSt11char_traitsIcESaIcEEEb+0x54>
  b6:	48 8d 3d 00 00 00 00 	lea    0x0(%rip),%rdi        # bd <_ZN6cybozu9ExceptionC1ERKNSt7__cxx1112basic_stringIcSt11char_traitsIcESaIcEEEb+0xbd>
  bd:	e8 00 00 00 00       	callq  c2 <_ZN6cybozu9ExceptionC1ERKNSt7__cxx1112basic_stringIcSt11char_traitsIcESaIcEEEb+0xc2>
  c2:	f3 0f 1e fa          	endbr64 
  c6:	49 89 c4             	mov    %rax,%r12
  c9:	48 89 ef             	mov    %rbp,%rdi
  cc:	e8 00 00 00 00       	callq  d1 <_ZN6cybozu9ExceptionC1ERKNSt7__cxx1112basic_stringIcSt11char_traitsIcESaIcEEEb+0xd1>
  d1:	4c 89 e7             	mov    %r12,%rdi
  d4:	e8 00 00 00 00       	callq  d9 <_ZN5Xbyak9CodeArray2dbEi.part.0+0x31>

Disassembly of section .text._ZN3mcl2fp10decToArrayEPmmPKcm:

0000000000000000 <_ZN3mcl2fp10decToArrayEPmmPKcm>:
   0:	f3 0f 1e fa          	endbr64 
   4:	55                   	push   %rbp
   5:	48 8d 04 f5 17 00 00 	lea    0x17(,%rsi,8),%rax
   c:	00 
   d:	49 89 d2             	mov    %rdx,%r10
  10:	48 89 c2             	mov    %rax,%rdx
  13:	48 25 00 f0 ff ff    	and    $0xfffffffffffff000,%rax
  19:	48 83 e2 f0          	and    $0xfffffffffffffff0,%rdx
  1d:	48 89 e5             	mov    %rsp,%rbp
  20:	41 57                	push   %r15
  22:	41 56                	push   %r14
  24:	41 55                	push   %r13
  26:	41 54                	push   %r12
  28:	53                   	push   %rbx
  29:	48 89 f3             	mov    %rsi,%rbx
  2c:	48 83 ec 08          	sub    $0x8,%rsp
  30:	48 89 e6             	mov    %rsp,%rsi
  33:	48 29 c6             	sub    %rax,%rsi
  36:	48 89 f0             	mov    %rsi,%rax
  39:	48 39 c4             	cmp    %rax,%rsp
  3c:	74 15                	je     53 <_ZN3mcl2fp10decToArrayEPmmPKcm+0x53>
  3e:	48 81 ec 00 10 00 00 	sub    $0x1000,%rsp
  45:	48 83 8c 24 f8 0f 00 	orq    $0x0,0xff8(%rsp)
  4c:	00 00 
  4e:	48 39 c4             	cmp    %rax,%rsp
  51:	75 eb                	jne    3e <_ZN3mcl2fp10decToArrayEPmmPKcm+0x3e>
  53:	81 e2 ff 0f 00 00    	and    $0xfff,%edx
  59:	48 29 d4             	sub    %rdx,%rsp
  5c:	48 85 d2             	test   %rdx,%rdx
  5f:	0f 85 3b 03 00 00    	jne    3a0 <_ZN3mcl2fp10decToArrayEPmmPKcm+0x3a0>
  65:	4c 8d 4c 24 0f       	lea    0xf(%rsp),%r9
  6a:	49 83 e1 f0          	and    $0xfffffffffffffff0,%r9
  6e:	48 01 db             	add    %rbx,%rbx
  71:	0f 84 71 02 00 00    	je     2e8 <_ZN3mcl2fp10decToArrayEPmmPKcm+0x2e8>
  77:	41 c7 01 00 00 00 00 	movl   $0x0,(%r9)
  7e:	48 85 c9             	test   %rcx,%rcx
  81:	0f 84 36 03 00 00    	je     3bd <_ZN3mcl2fp10decToArrayEPmmPKcm+0x3bd>
  87:	49 bc 8f e3 38 8e e3 	movabs $0xe38e38e38e38e38f,%r12
  8e:	38 8e e3 
  91:	be 01 00 00 00       	mov    $0x1,%esi
  96:	66 2e 0f 1f 84 00 00 	nopw   %cs:0x0(%rax,%rax,1)
  9d:	00 00 00 
  a0:	48 89 c8             	mov    %rcx,%rax
  a3:	49 f7 e4             	mul    %r12
  a6:	48 89 c8             	mov    %rcx,%rax
  a9:	49 89 d0             	mov    %rdx,%r8
  ac:	48 83 e2 f8          	and    $0xfffffffffffffff8,%rdx
  b0:	49 c1 e8 03          	shr    $0x3,%r8
  b4:	49 01 d0             	add    %rdx,%r8
  b7:	4c 29 c0             	sub    %r8,%rax
  ba:	49 89 c0             	mov    %rax,%r8
  bd:	41 0f be 02          	movsbl (%r10),%eax
  c1:	8d 50 d0             	lea    -0x30(%rax),%edx
  c4:	0f 85 26 02 00 00    	jne    2f0 <_ZN3mcl2fp10decToArrayEPmmPKcm+0x2f0>
  ca:	80 fa 09             	cmp    $0x9,%dl
  cd:	0f 87 15 02 00 00    	ja     2e8 <_ZN3mcl2fp10decToArrayEPmmPKcm+0x2e8>
  d3:	41 0f be 52 01       	movsbl 0x1(%r10),%edx
  d8:	83 e8 30             	sub    $0x30,%eax
  db:	44 8d 42 d0          	lea    -0x30(%rdx),%r8d
  df:	41 80 f8 09          	cmp    $0x9,%r8b
  e3:	0f 87 ff 01 00 00    	ja     2e8 <_ZN3mcl2fp10decToArrayEPmmPKcm+0x2e8>
  e9:	8d 04 80             	lea    (%rax,%rax,4),%eax
  ec:	8d 54 42 d0          	lea    -0x30(%rdx,%rax,2),%edx
  f0:	41 0f be 42 02       	movsbl 0x2(%r10),%eax
  f5:	44 8d 40 d0          	lea    -0x30(%rax),%r8d
  f9:	41 80 f8 09          	cmp    $0x9,%r8b
  fd:	0f 87 e5 01 00 00    	ja     2e8 <_ZN3mcl2fp10decToArrayEPmmPKcm+0x2e8>
 103:	8d 14 92             	lea    (%rdx,%rdx,4),%edx
 106:	41 b8 09 00 00 00    	mov    $0x9,%r8d
 10c:	8d 44 50 d0          	lea    -0x30(%rax,%rdx,2),%eax
 110:	41 0f be 52 03       	movsbl 0x3(%r10),%edx
 115:	44 8d 5a d0          	lea    -0x30(%rdx),%r11d
 119:	41 80 fb 09          	cmp    $0x9,%r11b
 11d:	0f 87 c5 01 00 00    	ja     2e8 <_ZN3mcl2fp10decToArrayEPmmPKcm+0x2e8>
 123:	8d 04 80             	lea    (%rax,%rax,4),%eax
 126:	8d 44 42 d0          	lea    -0x30(%rdx,%rax,2),%eax
 12a:	49 83 f8 04          	cmp    $0x4,%r8
 12e:	0f 84 a4 00 00 00    	je     1d8 <_ZN3mcl2fp10decToArrayEPmmPKcm+0x1d8>
 134:	41 0f be 52 04       	movsbl 0x4(%r10),%edx
 139:	44 8d 5a d0          	lea    -0x30(%rdx),%r11d
 13d:	41 80 fb 09          	cmp    $0x9,%r11b
 141:	0f 87 a1 01 00 00    	ja     2e8 <_ZN3mcl2fp10decToArrayEPmmPKcm+0x2e8>
 147:	8d 04 80             	lea    (%rax,%rax,4),%eax
 14a:	8d 44 42 d0          	lea    -0x30(%rdx,%rax,2),%eax
 14e:	49 83 f8 05          	cmp    $0x5,%r8
 152:	0f 84 80 00 00 00    	je     1d8 <_ZN3mcl2fp10decToArrayEPmmPKcm+0x1d8>
 158:	41 0f be 52 05       	movsbl 0x5(%r10),%edx
 15d:	44 8d 5a d0          	lea    -0x30(%rdx),%r11d
 161:	41 80 fb 09          	cmp    $0x9,%r11b
 165:	0f 87 7d 01 00 00    	ja     2e8 <_ZN3mcl2fp10decToArrayEPmmPKcm+0x2e8>
 16b:	8d 04 80             	lea    (%rax,%rax,4),%eax
 16e:	8d 44 42 d0          	lea    -0x30(%rdx,%rax,2),%eax
 172:	49 83 f8 06          	cmp    $0x6,%r8
 176:	74 60                	je     1d8 <_ZN3mcl2fp10decToArrayEPmmPKcm+0x1d8>
 178:	41 0f be 52 06       	movsbl 0x6(%r10),%edx
 17d:	44 8d 5a d0          	lea    -0x30(%rdx),%r11d
 181:	41 80 fb 09          	cmp    $0x9,%r11b
 185:	0f 87 5d 01 00 00    	ja     2e8 <_ZN3mcl2fp10decToArrayEPmmPKcm+0x2e8>
 18b:	8d 04 80             	lea    (%rax,%rax,4),%eax
 18e:	8d 44 42 d0          	lea    -0x30(%rdx,%rax,2),%eax
 192:	49 83 f8 07          	cmp    $0x7,%r8
 196:	74 40                	je     1d8 <_ZN3mcl2fp10decToArrayEPmmPKcm+0x1d8>
 198:	41 0f be 52 07       	movsbl 0x7(%r10),%edx
 19d:	44 8d 5a d0          	lea    -0x30(%rdx),%r11d
 1a1:	41 80 fb 09          	cmp    $0x9,%r11b
 1a5:	0f 87 3d 01 00 00    	ja     2e8 <_ZN3mcl2fp10decToArrayEPmmPKcm+0x2e8>
 1ab:	8d 04 80             	lea    (%rax,%rax,4),%eax
 1ae:	8d 44 42 d0          	lea    -0x30(%rdx,%rax,2),%eax
 1b2:	49 83 f8 08          	cmp    $0x8,%r8
 1b6:	74 20                	je     1d8 <_ZN3mcl2fp10decToArrayEPmmPKcm+0x1d8>
 1b8:	41 0f be 52 08       	movsbl 0x8(%r10),%edx
 1bd:	44 8d 42 d0          	lea    -0x30(%rdx),%r8d
 1c1:	41 80 f8 09          	cmp    $0x9,%r8b
 1c5:	0f 87 1d 01 00 00    	ja     2e8 <_ZN3mcl2fp10decToArrayEPmmPKcm+0x2e8>
 1cb:	8d 04 80             	lea    (%rax,%rax,4),%eax
 1ce:	41 b8 09 00 00 00    	mov    $0x9,%r8d
 1d4:	8d 44 42 d0          	lea    -0x30(%rdx,%rax,2),%eax
 1d8:	41 8b 11             	mov    (%r9),%edx
 1db:	4d 8d 59 04          	lea    0x4(%r9),%r11
 1df:	48 69 d2 00 ca 9a 3b 	imul   $0x3b9aca00,%rdx,%rdx
 1e6:	49 89 d6             	mov    %rdx,%r14
 1e9:	41 89 11             	mov    %edx,(%r9)
 1ec:	49 c1 ee 20          	shr    $0x20,%r14
 1f0:	4d 89 f7             	mov    %r14,%r15
 1f3:	4d 8d 34 b1          	lea    (%r9,%rsi,4),%r14
 1f7:	48 83 fe 01          	cmp    $0x1,%rsi
 1fb:	74 36                	je     233 <_ZN3mcl2fp10decToArrayEPmmPKcm+0x233>
 1fd:	0f 1f 00             	nopl   (%rax)
 200:	41 8b 13             	mov    (%r11),%edx
 203:	48 69 d2 00 ca 9a 3b 	imul   $0x3b9aca00,%rdx,%rdx
 20a:	49 89 d5             	mov    %rdx,%r13
 20d:	49 c1 ed 20          	shr    $0x20,%r13
 211:	44 01 fa             	add    %r15d,%edx
 214:	41 0f 92 c7          	setb   %r15b
 218:	41 89 13             	mov    %edx,(%r11)
 21b:	45 0f b6 ff          	movzbl %r15b,%r15d
 21f:	41 83 ff 01          	cmp    $0x1,%r15d
 223:	45 89 ef             	mov    %r13d,%r15d
 226:	41 83 df ff          	sbb    $0xffffffff,%r15d
 22a:	49 83 c3 04          	add    $0x4,%r11
 22e:	4d 39 de             	cmp    %r11,%r14
 231:	75 cd                	jne    200 <_ZN3mcl2fp10decToArrayEPmmPKcm+0x200>
 233:	45 85 ff             	test   %r15d,%r15d
 236:	0f 84 14 01 00 00    	je     350 <_ZN3mcl2fp10decToArrayEPmmPKcm+0x350>
 23c:	48 39 f3             	cmp    %rsi,%rbx
 23f:	0f 84 a3 00 00 00    	je     2e8 <_ZN3mcl2fp10decToArrayEPmmPKcm+0x2e8>
 245:	45 89 3c b1          	mov    %r15d,(%r9,%rsi,4)
 249:	41 03 01             	add    (%r9),%eax
 24c:	4c 8d 5e 01          	lea    0x1(%rsi),%r11
 250:	41 89 01             	mov    %eax,(%r9)
 253:	73 1f                	jae    274 <_ZN3mcl2fp10decToArrayEPmmPKcm+0x274>
 255:	b8 01 00 00 00       	mov    $0x1,%eax
 25a:	eb 11                	jmp    26d <_ZN3mcl2fp10decToArrayEPmmPKcm+0x26d>
 25c:	0f 1f 40 00          	nopl   0x0(%rax)
 260:	48 83 c0 01          	add    $0x1,%rax
 264:	4c 39 d8             	cmp    %r11,%rax
 267:	0f 83 03 01 00 00    	jae    370 <_ZN3mcl2fp10decToArrayEPmmPKcm+0x370>
 26d:	41 83 04 81 01       	addl   $0x1,(%r9,%rax,4)
 272:	74 ec                	je     260 <_ZN3mcl2fp10decToArrayEPmmPKcm+0x260>
 274:	4c 89 de             	mov    %r11,%rsi
 277:	4d 01 c2             	add    %r8,%r10
 27a:	4c 29 c1             	sub    %r8,%rcx
 27d:	0f 85 1d fe ff ff    	jne    a0 <_ZN3mcl2fp10decToArrayEPmmPKcm+0xa0>
 283:	40 f6 c6 01          	test   $0x1,%sil
 287:	0f 84 45 01 00 00    	je     3d2 <_ZN3mcl2fp10decToArrayEPmmPKcm+0x3d2>
 28d:	48 8d 04 b5 00 00 00 	lea    0x0(,%rsi,4),%rax
 294:	00 
 295:	48 83 c6 01          	add    $0x1,%rsi
 299:	49 89 f2             	mov    %rsi,%r10
 29c:	49 d1 ea             	shr    %r10
 29f:	41 c7 04 01 00 00 00 	movl   $0x0,(%r9,%rax,1)
 2a6:	00 
 2a7:	31 c0                	xor    %eax,%eax
 2a9:	0f 1f 80 00 00 00 00 	nopl   0x0(%rax)
 2b0:	41 8b 54 81 04       	mov    0x4(%r9,%rax,4),%edx
 2b5:	45 8b 04 81          	mov    (%r9,%rax,4),%r8d
 2b9:	48 89 c1             	mov    %rax,%rcx
 2bc:	48 83 c0 02          	add    $0x2,%rax
 2c0:	48 d1 e9             	shr    %rcx
 2c3:	48 c1 e2 20          	shl    $0x20,%rdx
 2c7:	4c 09 c2             	or     %r8,%rdx
 2ca:	48 89 14 cf          	mov    %rdx,(%rdi,%rcx,8)
 2ce:	48 39 f0             	cmp    %rsi,%rax
 2d1:	72 dd                	jb     2b0 <_ZN3mcl2fp10decToArrayEPmmPKcm+0x2b0>
 2d3:	48 8d 65 d8          	lea    -0x28(%rbp),%rsp
 2d7:	4c 89 d0             	mov    %r10,%rax
 2da:	5b                   	pop    %rbx
 2db:	41 5c                	pop    %r12
 2dd:	41 5d                	pop    %r13
 2df:	41 5e                	pop    %r14
 2e1:	41 5f                	pop    %r15
 2e3:	5d                   	pop    %rbp
 2e4:	c3                   	retq   
 2e5:	0f 1f 00             	nopl   (%rax)
 2e8:	45 31 d2             	xor    %r10d,%r10d
 2eb:	eb e6                	jmp    2d3 <_ZN3mcl2fp10decToArrayEPmmPKcm+0x2d3>
 2ed:	0f 1f 00             	nopl   (%rax)
 2f0:	80 fa 09             	cmp    $0x9,%dl
 2f3:	77 f3                	ja     2e8 <_ZN3mcl2fp10decToArrayEPmmPKcm+0x2e8>
 2f5:	83 e8 30             	sub    $0x30,%eax
 2f8:	49 83 f8 01          	cmp    $0x1,%r8
 2fc:	0f 84 d6 fe ff ff    	je     1d8 <_ZN3mcl2fp10decToArrayEPmmPKcm+0x1d8>
 302:	41 0f be 52 01       	movsbl 0x1(%r10),%edx
 307:	44 8d 5a d0          	lea    -0x30(%rdx),%r11d
 30b:	41 80 fb 09          	cmp    $0x9,%r11b
 30f:	77 d7                	ja     2e8 <_ZN3mcl2fp10decToArrayEPmmPKcm+0x2e8>
 311:	8d 04 80             	lea    (%rax,%rax,4),%eax
 314:	8d 44 42 d0          	lea    -0x30(%rdx,%rax,2),%eax
 318:	49 83 f8 02          	cmp    $0x2,%r8
 31c:	0f 84 b6 fe ff ff    	je     1d8 <_ZN3mcl2fp10decToArrayEPmmPKcm+0x1d8>
 322:	41 0f be 52 02       	movsbl 0x2(%r10),%edx
 327:	44 8d 5a d0          	lea    -0x30(%rdx),%r11d
 32b:	41 80 fb 09          	cmp    $0x9,%r11b
 32f:	77 b7                	ja     2e8 <_ZN3mcl2fp10decToArrayEPmmPKcm+0x2e8>
 331:	8d 04 80             	lea    (%rax,%rax,4),%eax
 334:	8d 44 42 d0          	lea    -0x30(%rdx,%rax,2),%eax
 338:	49 83 f8 03          	cmp    $0x3,%r8
 33c:	0f 85 ce fd ff ff    	jne    110 <_ZN3mcl2fp10decToArrayEPmmPKcm+0x110>
 342:	e9 91 fe ff ff       	jmpq   1d8 <_ZN3mcl2fp10decToArrayEPmmPKcm+0x1d8>
 347:	66 0f 1f 84 00 00 00 	nopw   0x0(%rax,%rax,1)
 34e:	00 00 
 350:	41 03 01             	add    (%r9),%eax
 353:	41 89 01             	mov    %eax,(%r9)
 356:	0f 83 1b ff ff ff    	jae    277 <_ZN3mcl2fp10decToArrayEPmmPKcm+0x277>
 35c:	48 83 fe 01          	cmp    $0x1,%rsi
 360:	74 2e                	je     390 <_ZN3mcl2fp10decToArrayEPmmPKcm+0x390>
 362:	49 89 f3             	mov    %rsi,%r11
 365:	e9 eb fe ff ff       	jmpq   255 <_ZN3mcl2fp10decToArrayEPmmPKcm+0x255>
 36a:	66 0f 1f 44 00 00    	nopw   0x0(%rax,%rax,1)
 370:	4c 39 db             	cmp    %r11,%rbx
 373:	0f 84 6f ff ff ff    	je     2e8 <_ZN3mcl2fp10decToArrayEPmmPKcm+0x2e8>
 379:	43 c7 04 99 01 00 00 	movl   $0x1,(%r9,%r11,4)
 380:	00 
 381:	49 8d 73 01          	lea    0x1(%r11),%rsi
 385:	e9 ed fe ff ff       	jmpq   277 <_ZN3mcl2fp10decToArrayEPmmPKcm+0x277>
 38a:	66 0f 1f 44 00 00    	nopw   0x0(%rax,%rax,1)
 390:	41 bb 01 00 00 00    	mov    $0x1,%r11d
 396:	eb e1                	jmp    379 <_ZN3mcl2fp10decToArrayEPmmPKcm+0x379>
 398:	0f 1f 84 00 00 00 00 	nopl   0x0(%rax,%rax,1)
 39f:	00 
 3a0:	48 83 4c 14 f8 00    	orq    $0x0,-0x8(%rsp,%rdx,1)
 3a6:	4c 8d 4c 24 0f       	lea    0xf(%rsp),%r9
 3ab:	49 83 e1 f0          	and    $0xfffffffffffffff0,%r9
 3af:	48 01 db             	add    %rbx,%rbx
 3b2:	0f 85 bf fc ff ff    	jne    77 <_ZN3mcl2fp10decToArrayEPmmPKcm+0x77>
 3b8:	e9 2b ff ff ff       	jmpq   2e8 <_ZN3mcl2fp10decToArrayEPmmPKcm+0x2e8>
 3bd:	41 ba 01 00 00 00    	mov    $0x1,%r10d
 3c3:	be 02 00 00 00       	mov    $0x2,%esi
 3c8:	b8 04 00 00 00       	mov    $0x4,%eax
 3cd:	e9 cd fe ff ff       	jmpq   29f <_ZN3mcl2fp10decToArrayEPmmPKcm+0x29f>
 3d2:	49 89 f2             	mov    %rsi,%r10
 3d5:	49 d1 ea             	shr    %r10
 3d8:	e9 ca fe ff ff       	jmpq   2a7 <_ZN3mcl2fp10decToArrayEPmmPKcm+0x2a7>

Disassembly of section .text._ZN5Xbyak6RegExpC2ERKNS_3RegEi:

0000000000000000 <_ZN5Xbyak6RegExpC1ERKNS_3RegEi>:
   0:	f3 0f 1e fa          	endbr64 
   4:	48 83 ec 08          	sub    $0x8,%rsp
   8:	81 27 00 00 00 80    	andl   $0x80000000,(%rdi)
   e:	80 67 04 c0          	andb   $0xc0,0x4(%rdi)
  12:	81 67 08 00 00 00 80 	andl   $0x80000000,0x8(%rdi)
  19:	80 67 0c c0          	andb   $0xc0,0xc(%rdi)
  1d:	0f b7 06             	movzwl (%rsi),%eax
  20:	89 57 10             	mov    %edx,0x10(%rdi)
  23:	89 c1                	mov    %eax,%ecx
  25:	48 c7 47 18 00 00 00 	movq   $0x0,0x18(%rdi)
  2c:	00 
  2d:	66 c1 e9 06          	shr    $0x6,%cx
  31:	a8 80                	test   $0x80,%al
  33:	74 3b                	je     70 <_ZN5Xbyak6RegExpC1ERKNS_3RegEi+0x70>
  35:	f6 46 02 60          	testb  $0x60,0x2(%rsi)
  39:	74 35                	je     70 <_ZN5Xbyak6RegExpC1ERKNS_3RegEi+0x70>
  3b:	85 d2                	test   %edx,%edx
  3d:	74 2b                	je     6a <_ZN5Xbyak6RegExpC1ERKNS_3RegEi+0x6a>
  3f:	8d 42 fc             	lea    -0x4(%rdx),%eax
  42:	83 e0 fb             	and    $0xfffffffb,%eax
  45:	75 69                	jne    b0 <_ZN5Xbyak6RegExpC1ERKNS_3RegEi+0xb0>
  47:	0f b7 46 02          	movzwl 0x2(%rsi),%eax
  4b:	66 25 ff 3f          	and    $0x3fff,%ax
  4f:	66 83 f8 7f          	cmp    $0x7f,%ax
  53:	8b 06                	mov    (%rsi),%eax
  55:	77 09                	ja     60 <_ZN5Xbyak6RegExpC1ERKNS_3RegEi+0x60>
  57:	83 fa 01             	cmp    $0x1,%edx
  5a:	0f 84 90 00 00 00    	je     f0 <_ZN5Xbyak6RegExpC1ERKNS_3RegEi+0xf0>
  60:	89 47 08             	mov    %eax,0x8(%rdi)
  63:	0f b6 46 04          	movzbl 0x4(%rsi),%eax
  67:	88 47 0c             	mov    %al,0xc(%rdi)
  6a:	48 83 c4 08          	add    $0x8,%rsp
  6e:	c3                   	retq   
  6f:	90                   	nop
  70:	66 f7 c1 70 02       	test   $0x270,%cx
  75:	75 c4                	jne    3b <_ZN5Xbyak6RegExpC1ERKNS_3RegEi+0x3b>
  77:	bf 10 00 00 00       	mov    $0x10,%edi
  7c:	e8 00 00 00 00       	callq  81 <_ZN5Xbyak6RegExpC1ERKNS_3RegEi+0x81>
  81:	48 8b 15 00 00 00 00 	mov    0x0(%rip),%rdx        # 88 <_ZN5Xbyak6RegExpC1ERKNS_3RegEi+0x88>
  88:	48 8b 35 00 00 00 00 	mov    0x0(%rip),%rsi        # 8f <_ZN5Xbyak6RegExpC1ERKNS_3RegEi+0x8f>
  8f:	48 89 c7             	mov    %rax,%rdi
  92:	48 8b 05 00 00 00 00 	mov    0x0(%rip),%rax        # 99 <_ZN5Xbyak6RegExpC1ERKNS_3RegEi+0x99>
  99:	c7 47 08 06 00 00 00 	movl   $0x6,0x8(%rdi)
  a0:	48 83 c0 10          	add    $0x10,%rax
  a4:	48 89 07             	mov    %rax,(%rdi)
  a7:	e8 00 00 00 00       	callq  ac <_ZN5Xbyak6RegExpC1ERKNS_3RegEi+0xac>
  ac:	0f 1f 40 00          	nopl   0x0(%rax)
  b0:	8d 42 ff             	lea    -0x1(%rdx),%eax
  b3:	83 f8 01             	cmp    $0x1,%eax
  b6:	76 8f                	jbe    47 <_ZN5Xbyak6RegExpC1ERKNS_3RegEi+0x47>
  b8:	bf 10 00 00 00       	mov    $0x10,%edi
  bd:	e8 00 00 00 00       	callq  c2 <_ZN5Xbyak6RegExpC1ERKNS_3RegEi+0xc2>
  c2:	48 8b 15 00 00 00 00 	mov    0x0(%rip),%rdx        # c9 <_ZN5Xbyak6RegExpC1ERKNS_3RegEi+0xc9>
  c9:	48 8b 35 00 00 00 00 	mov    0x0(%rip),%rsi        # d0 <_ZN5Xbyak6RegExpC1ERKNS_3RegEi+0xd0>
  d0:	48 89 c7             	mov    %rax,%rdi
  d3:	48 8b 05 00 00 00 00 	mov    0x0(%rip),%rax        # da <_ZN5Xbyak6RegExpC1ERKNS_3RegEi+0xda>
  da:	c7 47 08 03 00 00 00 	movl   $0x3,0x8(%rdi)
  e1:	48 83 c0 10          	add    $0x10,%rax
  e5:	48 89 07             	mov    %rax,(%rdi)
  e8:	e8 00 00 00 00       	callq  ed <_ZN5Xbyak6RegExpC1ERKNS_3RegEi+0xed>
  ed:	0f 1f 00             	nopl   (%rax)
  f0:	89 07                	mov    %eax,(%rdi)
  f2:	0f b6 46 04          	movzbl 0x4(%rsi),%eax
  f6:	88 47 04             	mov    %al,0x4(%rdi)
  f9:	48 83 c4 08          	add    $0x8,%rsp
  fd:	c3                   	retq   

Disassembly of section .text._ZN5Xbyak9CodeArray2dbEi:

0000000000000000 <_ZN5Xbyak9CodeArray2dbEi>:
   0:	f3 0f 1e fa          	endbr64 
   4:	41 55                	push   %r13
   6:	41 89 f5             	mov    %esi,%r13d
   9:	41 54                	push   %r12
   b:	55                   	push   %rbp
   c:	53                   	push   %rbx
   d:	48 89 fb             	mov    %rdi,%rbx
  10:	48 83 ec 08          	sub    $0x8,%rsp
  14:	48 8b 87 80 00 00 00 	mov    0x80(%rdi),%rax
  1b:	48 8b 6f 70          	mov    0x70(%rdi),%rbp
  1f:	48 39 e8             	cmp    %rbp,%rax
  22:	0f 82 98 00 00 00    	jb     c0 <_ZN5Xbyak9CodeArray2dbEi+0xc0>
  28:	83 7f 20 03          	cmpl   $0x3,0x20(%rdi)
  2c:	0f 85 94 00 00 00    	jne    c6 <_ZN5Xbyak9CodeArray2dbEi+0xc6>
  32:	48 8b 7f 68          	mov    0x68(%rdi),%rdi
  36:	48 01 ed             	add    %rbp,%rbp
  39:	b8 00 10 00 00       	mov    $0x1000,%eax
  3e:	48 81 fd 00 10 00 00 	cmp    $0x1000,%rbp
  45:	48 0f 42 e8          	cmovb  %rax,%rbp
  49:	48 8b 07             	mov    (%rdi),%rax
  4c:	48 89 ee             	mov    %rbp,%rsi
  4f:	ff 10                	callq  *(%rax)
  51:	49 89 c4             	mov    %rax,%r12
  54:	48 85 c0             	test   %rax,%rax
  57:	74 72                	je     cb <_ZN5Xbyak9CodeArray2dbEi+0xcb>
  59:	31 d2                	xor    %edx,%edx
  5b:	48 83 bb 80 00 00 00 	cmpq   $0x0,0x80(%rbx)
  62:	00 
  63:	74 1c                	je     81 <_ZN5Xbyak9CodeArray2dbEi+0x81>
  65:	0f 1f 00             	nopl   (%rax)
  68:	48 8b 43 78          	mov    0x78(%rbx),%rax
  6c:	0f b6 04 10          	movzbl (%rax,%rdx,1),%eax
  70:	41 88 04 14          	mov    %al,(%r12,%rdx,1)
  74:	48 83 c2 01          	add    $0x1,%rdx
  78:	48 39 93 80 00 00 00 	cmp    %rdx,0x80(%rbx)
  7f:	77 e7                	ja     68 <_ZN5Xbyak9CodeArray2dbEi+0x68>
  81:	48 8b 7b 68          	mov    0x68(%rbx),%rdi
  85:	48 8b 73 78          	mov    0x78(%rbx),%rsi
  89:	48 8b 07             	mov    (%rdi),%rax
  8c:	ff 50 08             	callq  *0x8(%rax)
  8f:	4c 89 63 78          	mov    %r12,0x78(%rbx)
  93:	48 8b 83 80 00 00 00 	mov    0x80(%rbx),%rax
  9a:	48 89 6b 70          	mov    %rbp,0x70(%rbx)
  9e:	48 8d 50 01          	lea    0x1(%rax),%rdx
  a2:	48 89 93 80 00 00 00 	mov    %rdx,0x80(%rbx)
  a9:	45 88 2c 04          	mov    %r13b,(%r12,%rax,1)
  ad:	48 83 c4 08          	add    $0x8,%rsp
  b1:	5b                   	pop    %rbx
  b2:	5d                   	pop    %rbp
  b3:	41 5c                	pop    %r12
  b5:	41 5d                	pop    %r13
  b7:	c3                   	retq   
  b8:	0f 1f 84 00 00 00 00 	nopl   0x0(%rax,%rax,1)
  bf:	00 
  c0:	4c 8b 67 78          	mov    0x78(%rdi),%r12
  c4:	eb d8                	jmp    9e <_ZN5Xbyak9CodeArray2dbEi+0x9e>
  c6:	e8 00 00 00 00       	callq  cb <_ZN5Xbyak9CodeArray2dbEi+0xcb>
  cb:	e8 00 00 00 00       	callq  d0 <_ZN5Xbyak9CodeArray2dbEi.part.0+0x28>

Disassembly of section .text._ZN5Xbyak13CodeGenerator3rexERKNS_7OperandES3_:

0000000000000000 <_ZN5Xbyak13CodeGenerator3rexERKNS_7OperandES3_>:
   0:	f3 0f 1e fa          	endbr64 
   4:	41 57                	push   %r15
   6:	41 56                	push   %r14
   8:	41 55                	push   %r13
   a:	49 89 f5             	mov    %rsi,%r13
   d:	41 54                	push   %r12
   f:	49 89 d4             	mov    %rdx,%r12
  12:	55                   	push   %rbp
  13:	53                   	push   %rbx
  14:	48 89 fb             	mov    %rdi,%rbx
  17:	48 83 ec 18          	sub    $0x18,%rsp
  1b:	41 0f b7 04 24       	movzwl (%r12),%eax
  20:	0f b7 16             	movzwl (%rsi),%edx
  23:	66 c1 e8 06          	shr    $0x6,%ax
  27:	89 d1                	mov    %edx,%ecx
  29:	89 c6                	mov    %eax,%esi
  2b:	66 c1 e9 06          	shr    $0x6,%cx
  2f:	83 e6 01             	and    $0x1,%esi
  32:	83 e2 40             	and    $0x40,%edx
  35:	0f 84 fd 00 00 00    	je     138 <_ZN5Xbyak13CodeGenerator3rexERKNS_7OperandES3_+0x138>
  3b:	66 85 f6             	test   %si,%si
  3e:	0f 85 6e 04 00 00    	jne    4b2 <_ZN5Xbyak13CodeGenerator3rexERKNS_7OperandES3_+0x4b2>
  44:	4d 89 ee             	mov    %r13,%r14
  47:	4d 89 e7             	mov    %r12,%r15
  4a:	41 0f b7 56 0a       	movzwl 0xa(%r14),%edx
  4f:	66 81 e2 ff 3f       	and    $0x3fff,%dx
  54:	66 83 fa 20          	cmp    $0x20,%dx
  58:	0f 84 fa 02 00 00    	je     358 <_ZN5Xbyak13CodeGenerator3rexERKNS_7OperandES3_+0x358>
  5e:	41 0f b7 56 12       	movzwl 0x12(%r14),%edx
  63:	66 81 e2 ff 3f       	and    $0x3fff,%dx
  68:	66 83 fa 20          	cmp    $0x20,%dx
  6c:	0f 84 e6 02 00 00    	je     358 <_ZN5Xbyak13CodeGenerator3rexERKNS_7OperandES3_+0x358>
  72:	41 8b 56 30          	mov    0x30(%r14),%edx
  76:	31 ed                	xor    %ebp,%ebp
  78:	85 d2                	test   %edx,%edx
  7a:	75 3e                	jne    ba <_ZN5Xbyak13CodeGenerator3rexERKNS_7OperandES3_+0xba>
  7c:	41 0f b6 56 08       	movzbl 0x8(%r14),%edx
  81:	41 0f b6 4e 10       	movzbl 0x10(%r14),%ecx
  86:	83 e2 3f             	and    $0x3f,%edx
  89:	83 e1 3f             	and    $0x3f,%ecx
  8c:	41 f6 46 12 60       	testb  $0x60,0x12(%r14)
  91:	74 11                	je     a4 <_ZN5Xbyak13CodeGenerator3rexERKNS_7OperandES3_+0xa4>
  93:	66 41 f7 46 0a ff 3f 	testw  $0x3fff,0xa(%r14)
  9a:	75 08                	jne    a4 <_ZN5Xbyak13CodeGenerator3rexERKNS_7OperandES3_+0xa4>
  9c:	41 83 7e 18 02       	cmpl   $0x2,0x18(%r14)
  a1:	0f 44 d1             	cmove  %ecx,%edx
  a4:	83 e2 08             	and    $0x8,%edx
  a7:	83 e1 08             	and    $0x8,%ecx
  aa:	0f 85 c0 03 00 00    	jne    470 <_ZN5Xbyak13CodeGenerator3rexERKNS_7OperandES3_+0x470>
  b0:	80 fa 01             	cmp    $0x1,%dl
  b3:	19 ed                	sbb    %ebp,%ebp
  b5:	f7 d5                	not    %ebp
  b7:	83 e5 41             	and    $0x41,%ebp
  ba:	41 0f b6 17          	movzbl (%r15),%edx
  be:	89 d1                	mov    %edx,%ecx
  c0:	83 e2 08             	and    $0x8,%edx
  c3:	83 e1 3f             	and    $0x3f,%ecx
  c6:	a8 02                	test   $0x2,%al
  c8:	74 0b                	je     d5 <_ZN5Xbyak13CodeGenerator3rexERKNS_7OperandES3_+0xd5>
  ca:	41 f6 47 02 40       	testb  $0x40,0x2(%r15)
  cf:	0f 85 83 03 00 00    	jne    458 <_ZN5Xbyak13CodeGenerator3rexERKNS_7OperandES3_+0x458>
  d5:	b8 44 00 00 00       	mov    $0x44,%eax
  da:	84 d2                	test   %dl,%dl
  dc:	75 0a                	jne    e8 <_ZN5Xbyak13CodeGenerator3rexERKNS_7OperandES3_+0xe8>
  de:	83 e1 20             	and    $0x20,%ecx
  e1:	74 07                	je     ea <_ZN5Xbyak13CodeGenerator3rexERKNS_7OperandES3_+0xea>
  e3:	b8 40 00 00 00       	mov    $0x40,%eax
  e8:	09 c5                	or     %eax,%ebp
  ea:	41 0f b7 45 02       	movzwl 0x2(%r13),%eax
  ef:	41 0f b7 54 24 02    	movzwl 0x2(%r12),%edx
  f5:	66 25 ff 3f          	and    $0x3fff,%ax
  f9:	66 81 e2 ff 3f       	and    $0x3fff,%dx
  fe:	a8 10                	test   $0x10,%al
 100:	0f 85 b1 00 00 00    	jne    1b7 <_ZN5Xbyak13CodeGenerator3rexERKNS_7OperandES3_+0x1b7>
 106:	83 e2 10             	and    $0x10,%edx
 109:	0f 84 4f 01 00 00    	je     25e <_ZN5Xbyak13CodeGenerator3rexERKNS_7OperandES3_+0x25e>
 10f:	a8 60                	test   $0x60,%al
 111:	0f 85 47 01 00 00    	jne    25e <_ZN5Xbyak13CodeGenerator3rexERKNS_7OperandES3_+0x25e>
 117:	48 8b 83 80 00 00 00 	mov    0x80(%rbx),%rax
 11e:	4c 8b 6b 70          	mov    0x70(%rbx),%r13
 122:	4c 39 e8             	cmp    %r13,%rax
 125:	0f 83 a9 00 00 00    	jae    1d4 <_ZN5Xbyak13CodeGenerator3rexERKNS_7OperandES3_+0x1d4>
 12b:	4c 8b 63 78          	mov    0x78(%rbx),%r12
 12f:	e9 1a 01 00 00       	jmpq   24e <_ZN5Xbyak13CodeGenerator3rexERKNS_7OperandES3_+0x24e>
 134:	0f 1f 40 00          	nopl   0x0(%rax)
 138:	66 85 f6             	test   %si,%si
 13b:	0f 85 5a 03 00 00    	jne    49b <_ZN5Xbyak13CodeGenerator3rexERKNS_7OperandES3_+0x49b>
 141:	41 0f b7 74 24 02    	movzwl 0x2(%r12),%esi
 147:	89 f2                	mov    %esi,%edx
 149:	66 81 e2 ff 3f       	and    $0x3fff,%dx
 14e:	a8 02                	test   $0x2,%al
 150:	0f 85 22 01 00 00    	jne    278 <_ZN5Xbyak13CodeGenerator3rexERKNS_7OperandES3_+0x278>
 156:	41 b8 04 00 00 00    	mov    $0x4,%r8d
 15c:	31 ff                	xor    %edi,%edi
 15e:	41 0f b6 75 00       	movzbl 0x0(%r13),%esi
 163:	45 0f b6 0c 24       	movzbl (%r12),%r9d
 168:	83 e1 02             	and    $0x2,%ecx
 16b:	45 0f b7 5d 02       	movzwl 0x2(%r13),%r11d
 170:	83 e6 3f             	and    $0x3f,%esi
 173:	45 89 ca             	mov    %r9d,%r10d
 176:	89 f5                	mov    %esi,%ebp
 178:	44 89 d8             	mov    %r11d,%eax
 17b:	41 83 e2 3f          	and    $0x3f,%r10d
 17f:	40 c0 ed 03          	shr    $0x3,%bpl
 183:	66 25 ff 3f          	and    $0x3fff,%ax
 187:	83 e5 01             	and    $0x1,%ebp
 18a:	41 83 e1 08          	and    $0x8,%r9d
 18e:	0f 85 ec 02 00 00    	jne    480 <_ZN5Xbyak13CodeGenerator3rexERKNS_7OperandES3_+0x480>
 194:	09 fd                	or     %edi,%ebp
 196:	66 85 c9             	test   %cx,%cx
 199:	0f 84 01 01 00 00    	je     2a0 <_ZN5Xbyak13CodeGenerator3rexERKNS_7OperandES3_+0x2a0>
 19f:	41 83 e3 40          	and    $0x40,%r11d
 1a3:	0f 84 f7 00 00 00    	je     2a0 <_ZN5Xbyak13CodeGenerator3rexERKNS_7OperandES3_+0x2a0>
 1a9:	83 cd 08             	or     $0x8,%ebp
 1ac:	83 cd 40             	or     $0x40,%ebp
 1af:	a8 10                	test   $0x10,%al
 1b1:	0f 84 4f ff ff ff    	je     106 <_ZN5Xbyak13CodeGenerator3rexERKNS_7OperandES3_+0x106>
 1b7:	f6 c2 60             	test   $0x60,%dl
 1ba:	0f 85 46 ff ff ff    	jne    106 <_ZN5Xbyak13CodeGenerator3rexERKNS_7OperandES3_+0x106>
 1c0:	48 8b 83 80 00 00 00 	mov    0x80(%rbx),%rax
 1c7:	4c 8b 6b 70          	mov    0x70(%rbx),%r13
 1cb:	4c 39 e8             	cmp    %r13,%rax
 1ce:	0f 82 57 ff ff ff    	jb     12b <_ZN5Xbyak13CodeGenerator3rexERKNS_7OperandES3_+0x12b>
 1d4:	83 7b 20 03          	cmpl   $0x3,0x20(%rbx)
 1d8:	0f 85 ca 02 00 00    	jne    4a8 <_ZN5Xbyak13CodeGenerator3rexERKNS_7OperandES3_+0x4a8>
 1de:	48 8b 7b 68          	mov    0x68(%rbx),%rdi
 1e2:	4d 01 ed             	add    %r13,%r13
 1e5:	b8 00 10 00 00       	mov    $0x1000,%eax
 1ea:	49 81 fd 00 10 00 00 	cmp    $0x1000,%r13
 1f1:	4c 0f 42 e8          	cmovb  %rax,%r13
 1f5:	48 8b 07             	mov    (%rdi),%rax
 1f8:	4c 89 ee             	mov    %r13,%rsi
 1fb:	ff 10                	callq  *(%rax)
 1fd:	49 89 c4             	mov    %rax,%r12
 200:	48 85 c0             	test   %rax,%rax
 203:	0f 84 a4 02 00 00    	je     4ad <_ZN5Xbyak13CodeGenerator3rexERKNS_7OperandES3_+0x4ad>
 209:	31 d2                	xor    %edx,%edx
 20b:	48 83 bb 80 00 00 00 	cmpq   $0x0,0x80(%rbx)
 212:	00 
 213:	74 1c                	je     231 <_ZN5Xbyak13CodeGenerator3rexERKNS_7OperandES3_+0x231>
 215:	0f 1f 00             	nopl   (%rax)
 218:	48 8b 43 78          	mov    0x78(%rbx),%rax
 21c:	0f b6 04 10          	movzbl (%rax,%rdx,1),%eax
 220:	41 88 04 14          	mov    %al,(%r12,%rdx,1)
 224:	48 83 c2 01          	add    $0x1,%rdx
 228:	48 39 93 80 00 00 00 	cmp    %rdx,0x80(%rbx)
 22f:	77 e7                	ja     218 <_ZN5Xbyak13CodeGenerator3rexERKNS_7OperandES3_+0x218>
 231:	48 8b 7b 68          	mov    0x68(%rbx),%rdi
 235:	48 8b 73 78          	mov    0x78(%rbx),%rsi
 239:	48 8b 07             	mov    (%rdi),%rax
 23c:	ff 50 08             	callq  *0x8(%rax)
 23f:	4c 89 63 78          	mov    %r12,0x78(%rbx)
 243:	48 8b 83 80 00 00 00 	mov    0x80(%rbx),%rax
 24a:	4c 89 6b 70          	mov    %r13,0x70(%rbx)
 24e:	48 8d 50 01          	lea    0x1(%rax),%rdx
 252:	48 89 93 80 00 00 00 	mov    %rdx,0x80(%rbx)
 259:	41 c6 04 04 66       	movb   $0x66,(%r12,%rax,1)
 25e:	40 84 ed             	test   %bpl,%bpl
 261:	75 5d                	jne    2c0 <_ZN5Xbyak13CodeGenerator3rexERKNS_7OperandES3_+0x2c0>
 263:	48 83 c4 18          	add    $0x18,%rsp
 267:	5b                   	pop    %rbx
 268:	5d                   	pop    %rbp
 269:	41 5c                	pop    %r12
 26b:	41 5d                	pop    %r13
 26d:	41 5e                	pop    %r14
 26f:	41 5f                	pop    %r15
 271:	c3                   	retq   
 272:	66 0f 1f 44 00 00    	nopw   0x0(%rax,%rax,1)
 278:	83 e6 40             	and    $0x40,%esi
 27b:	66 83 fe 01          	cmp    $0x1,%si
 27f:	45 19 c0             	sbb    %r8d,%r8d
 282:	41 83 e0 f8          	and    $0xfffffff8,%r8d
 286:	41 83 c0 0c          	add    $0xc,%r8d
 28a:	66 83 fe 01          	cmp    $0x1,%si
 28e:	19 ff                	sbb    %edi,%edi
 290:	f7 d7                	not    %edi
 292:	83 e7 08             	and    $0x8,%edi
 295:	e9 c4 fe ff ff       	jmpq   15e <_ZN5Xbyak13CodeGenerator3rexERKNS_7OperandES3_+0x15e>
 29a:	66 0f 1f 44 00 00    	nopw   0x0(%rax,%rax,1)
 2a0:	40 84 ed             	test   %bpl,%bpl
 2a3:	0f 85 03 ff ff ff    	jne    1ac <_ZN5Xbyak13CodeGenerator3rexERKNS_7OperandES3_+0x1ac>
 2a9:	44 09 d6             	or     %r10d,%esi
 2ac:	83 e6 20             	and    $0x20,%esi
 2af:	0f 85 f7 fe ff ff    	jne    1ac <_ZN5Xbyak13CodeGenerator3rexERKNS_7OperandES3_+0x1ac>
 2b5:	e9 f5 fe ff ff       	jmpq   1af <_ZN5Xbyak13CodeGenerator3rexERKNS_7OperandES3_+0x1af>
 2ba:	66 0f 1f 44 00 00    	nopw   0x0(%rax,%rax,1)
 2c0:	48 8b 83 80 00 00 00 	mov    0x80(%rbx),%rax
 2c7:	4c 8b 6b 70          	mov    0x70(%rbx),%r13
 2cb:	4c 39 e8             	cmp    %r13,%rax
 2ce:	0f 82 34 01 00 00    	jb     408 <_ZN5Xbyak13CodeGenerator3rexERKNS_7OperandES3_+0x408>
 2d4:	83 7b 20 03          	cmpl   $0x3,0x20(%rbx)
 2d8:	0f 85 ca 01 00 00    	jne    4a8 <_ZN5Xbyak13CodeGenerator3rexERKNS_7OperandES3_+0x4a8>
 2de:	48 8b 7b 68          	mov    0x68(%rbx),%rdi
 2e2:	4d 01 ed             	add    %r13,%r13
 2e5:	b8 00 10 00 00       	mov    $0x1000,%eax
 2ea:	49 81 fd 00 10 00 00 	cmp    $0x1000,%r13
 2f1:	4c 0f 42 e8          	cmovb  %rax,%r13
 2f5:	48 8b 07             	mov    (%rdi),%rax
 2f8:	4c 89 ee             	mov    %r13,%rsi
 2fb:	ff 10                	callq  *(%rax)
 2fd:	49 89 c4             	mov    %rax,%r12
 300:	48 85 c0             	test   %rax,%rax
 303:	0f 84 a4 01 00 00    	je     4ad <_ZN5Xbyak13CodeGenerator3rexERKNS_7OperandES3_+0x4ad>
 309:	31 d2                	xor    %edx,%edx
 30b:	48 83 bb 80 00 00 00 	cmpq   $0x0,0x80(%rbx)
 312:	00 
 313:	74 1c                	je     331 <_ZN5Xbyak13CodeGenerator3rexERKNS_7OperandES3_+0x331>
 315:	0f 1f 00             	nopl   (%rax)
 318:	48 8b 43 78          	mov    0x78(%rbx),%rax
 31c:	0f b6 04 10          	movzbl (%rax,%rdx,1),%eax
 320:	41 88 04 14          	mov    %al,(%r12,%rdx,1)
 324:	48 83 c2 01          	add    $0x1,%rdx
 328:	48 39 93 80 00 00 00 	cmp    %rdx,0x80(%rbx)
 32f:	77 e7                	ja     318 <_ZN5Xbyak13CodeGenerator3rexERKNS_7OperandES3_+0x318>
 331:	48 8b 7b 68          	mov    0x68(%rbx),%rdi
 335:	48 8b 73 78          	mov    0x78(%rbx),%rsi
 339:	48 8b 07             	mov    (%rdi),%rax
 33c:	ff 50 08             	callq  *0x8(%rax)
 33f:	4c 89 63 78          	mov    %r12,0x78(%rbx)
 343:	48 8b 83 80 00 00 00 	mov    0x80(%rbx),%rax
 34a:	4c 89 6b 70          	mov    %r13,0x70(%rbx)
 34e:	e9 b9 00 00 00       	jmpq   40c <_ZN5Xbyak13CodeGenerator3rexERKNS_7OperandES3_+0x40c>
 353:	0f 1f 44 00 00       	nopl   0x0(%rax,%rax,1)
 358:	48 8b 83 80 00 00 00 	mov    0x80(%rbx),%rax
 35f:	48 8b 4b 70          	mov    0x70(%rbx),%rcx
 363:	48 39 c8             	cmp    %rcx,%rax
 366:	0f 82 c4 00 00 00    	jb     430 <_ZN5Xbyak13CodeGenerator3rexERKNS_7OperandES3_+0x430>
 36c:	83 7b 20 03          	cmpl   $0x3,0x20(%rbx)
 370:	0f 85 32 01 00 00    	jne    4a8 <_ZN5Xbyak13CodeGenerator3rexERKNS_7OperandES3_+0x4a8>
 376:	48 8b 7b 68          	mov    0x68(%rbx),%rdi
 37a:	48 01 c9             	add    %rcx,%rcx
 37d:	b8 00 10 00 00       	mov    $0x1000,%eax
 382:	48 81 f9 00 10 00 00 	cmp    $0x1000,%rcx
 389:	48 0f 42 c8          	cmovb  %rax,%rcx
 38d:	48 8b 07             	mov    (%rdi),%rax
 390:	48 89 4c 24 08       	mov    %rcx,0x8(%rsp)
 395:	48 89 ce             	mov    %rcx,%rsi
 398:	ff 10                	callq  *(%rax)
 39a:	48 8b 4c 24 08       	mov    0x8(%rsp),%rcx
 39f:	48 85 c0             	test   %rax,%rax
 3a2:	48 89 c5             	mov    %rax,%rbp
 3a5:	0f 84 02 01 00 00    	je     4ad <_ZN5Xbyak13CodeGenerator3rexERKNS_7OperandES3_+0x4ad>
 3ab:	31 d2                	xor    %edx,%edx
 3ad:	48 83 bb 80 00 00 00 	cmpq   $0x0,0x80(%rbx)
 3b4:	00 
 3b5:	74 22                	je     3d9 <_ZN5Xbyak13CodeGenerator3rexERKNS_7OperandES3_+0x3d9>
 3b7:	66 0f 1f 84 00 00 00 	nopw   0x0(%rax,%rax,1)
 3be:	00 00 
 3c0:	48 8b 43 78          	mov    0x78(%rbx),%rax
 3c4:	0f b6 04 10          	movzbl (%rax,%rdx,1),%eax
 3c8:	88 44 15 00          	mov    %al,0x0(%rbp,%rdx,1)
 3cc:	48 83 c2 01          	add    $0x1,%rdx
 3d0:	48 39 93 80 00 00 00 	cmp    %rdx,0x80(%rbx)
 3d7:	77 e7                	ja     3c0 <_ZN5Xbyak13CodeGenerator3rexERKNS_7OperandES3_+0x3c0>
 3d9:	48 8b 7b 68          	mov    0x68(%rbx),%rdi
 3dd:	48 8b 73 78          	mov    0x78(%rbx),%rsi
 3e1:	48 89 4c 24 08       	mov    %rcx,0x8(%rsp)
 3e6:	48 8b 07             	mov    (%rdi),%rax
 3e9:	ff 50 08             	callq  *0x8(%rax)
 3ec:	48 8b 4c 24 08       	mov    0x8(%rsp),%rcx
 3f1:	48 89 6b 78          	mov    %rbp,0x78(%rbx)
 3f5:	48 8b 83 80 00 00 00 	mov    0x80(%rbx),%rax
 3fc:	48 89 4b 70          	mov    %rcx,0x70(%rbx)
 400:	eb 32                	jmp    434 <_ZN5Xbyak13CodeGenerator3rexERKNS_7OperandES3_+0x434>
 402:	66 0f 1f 44 00 00    	nopw   0x0(%rax,%rax,1)
 408:	4c 8b 63 78          	mov    0x78(%rbx),%r12
 40c:	48 8d 50 01          	lea    0x1(%rax),%rdx
 410:	48 89 93 80 00 00 00 	mov    %rdx,0x80(%rbx)
 417:	41 88 2c 04          	mov    %bpl,(%r12,%rax,1)
 41b:	48 83 c4 18          	add    $0x18,%rsp
 41f:	5b                   	pop    %rbx
 420:	5d                   	pop    %rbp
 421:	41 5c                	pop    %r12
 423:	41 5d                	pop    %r13
 425:	41 5e                	pop    %r14
 427:	41 5f                	pop    %r15
 429:	c3                   	retq   
 42a:	66 0f 1f 44 00 00    	nopw   0x0(%rax,%rax,1)
 430:	48 8b 6b 78          	mov    0x78(%rbx),%rbp
 434:	48 8d 50 01          	lea    0x1(%rax),%rdx
 438:	48 89 93 80 00 00 00 	mov    %rdx,0x80(%rbx)
 43f:	c6 44 05 00 67       	movb   $0x67,0x0(%rbp,%rax,1)
 444:	41 0f b7 07          	movzwl (%r15),%eax
 448:	66 c1 e8 06          	shr    $0x6,%ax
 44c:	e9 21 fc ff ff       	jmpq   72 <_ZN5Xbyak13CodeGenerator3rexERKNS_7OperandES3_+0x72>
 451:	0f 1f 80 00 00 00 00 	nopl   0x0(%rax)
 458:	80 fa 01             	cmp    $0x1,%dl
 45b:	19 c0                	sbb    %eax,%eax
 45d:	83 e0 fc             	and    $0xfffffffc,%eax
 460:	83 c0 4c             	add    $0x4c,%eax
 463:	09 c5                	or     %eax,%ebp
 465:	e9 80 fc ff ff       	jmpq   ea <_ZN5Xbyak13CodeGenerator3rexERKNS_7OperandES3_+0xea>
 46a:	66 0f 1f 44 00 00    	nopw   0x0(%rax,%rax,1)
 470:	84 d2                	test   %dl,%dl
 472:	40 0f 95 c5          	setne  %bpl
 476:	83 c5 42             	add    $0x42,%ebp
 479:	e9 3c fc ff ff       	jmpq   ba <_ZN5Xbyak13CodeGenerator3rexERKNS_7OperandES3_+0xba>
 47e:	66 90                	xchg   %ax,%ax
 480:	44 09 c5             	or     %r8d,%ebp
 483:	66 85 c9             	test   %cx,%cx
 486:	0f 84 20 fd ff ff    	je     1ac <_ZN5Xbyak13CodeGenerator3rexERKNS_7OperandES3_+0x1ac>
 48c:	41 83 e3 40          	and    $0x40,%r11d
 490:	0f 85 13 fd ff ff    	jne    1a9 <_ZN5Xbyak13CodeGenerator3rexERKNS_7OperandES3_+0x1a9>
 496:	e9 11 fd ff ff       	jmpq   1ac <_ZN5Xbyak13CodeGenerator3rexERKNS_7OperandES3_+0x1ac>
 49b:	89 c8                	mov    %ecx,%eax
 49d:	4d 89 e6             	mov    %r12,%r14
 4a0:	4d 89 ef             	mov    %r13,%r15
 4a3:	e9 a2 fb ff ff       	jmpq   4a <_ZN5Xbyak13CodeGenerator3rexERKNS_7OperandES3_+0x4a>
 4a8:	e8 00 00 00 00       	callq  4ad <_ZN5Xbyak13CodeGenerator3rexERKNS_7OperandES3_+0x4ad>
 4ad:	e8 00 00 00 00       	callq  4b2 <_ZN5Xbyak13CodeGenerator3rexERKNS_7OperandES3_+0x4b2>
 4b2:	e8 00 00 00 00       	callq  4b7 <_GLOBAL__sub_I_mcl.cpp.cold+0x187>

Disassembly of section .text._ZN5Xbyak13CodeGenerator3vexERKNS_3RegES3_PKNS_7OperandEiib:

0000000000000000 <_ZN5Xbyak13CodeGenerator3vexERKNS_3RegES3_PKNS_7OperandEiib>:
   0:	f3 0f 1e fa          	endbr64 
   4:	41 57                	push   %r15
   6:	41 56                	push   %r14
   8:	41 55                	push   %r13
   a:	45 89 cd             	mov    %r9d,%r13d
   d:	41 54                	push   %r12
   f:	45 89 c4             	mov    %r8d,%r12d
  12:	55                   	push   %rbp
  13:	41 c1 fc 0e          	sar    $0xe,%r12d
  17:	53                   	push   %rbx
  18:	41 83 e4 01          	and    $0x1,%r12d
  1c:	48 89 fb             	mov    %rdi,%rbx
  1f:	bf 01 00 00 00       	mov    $0x1,%edi
  24:	48 83 ec 28          	sub    $0x28,%rsp
  28:	44 8b 74 24 60       	mov    0x60(%rsp),%r14d
  2d:	41 f7 c0 00 10 00 00 	test   $0x1000,%r8d
  34:	75 0f                	jne    45 <_ZN5Xbyak13CodeGenerator3vexERKNS_3RegES3_PKNS_7OperandEiib+0x45>
  36:	31 ff                	xor    %edi,%edi
  38:	41 f7 c0 00 08 00 00 	test   $0x800,%r8d
  3f:	0f 84 eb 03 00 00    	je     430 <_ZN5Xbyak13CodeGenerator3vexERKNS_3RegES3_PKNS_7OperandEiib+0x430>
  45:	44 0f b6 0e          	movzbl (%rsi),%r9d
  49:	44 0f b6 3a          	movzbl (%rdx),%r15d
  4d:	31 d2                	xor    %edx,%edx
  4f:	44 89 c8             	mov    %r9d,%eax
  52:	44 89 fe             	mov    %r15d,%esi
  55:	41 83 e1 08          	and    $0x8,%r9d
  59:	41 83 e7 08          	and    $0x8,%r15d
  5d:	83 e0 3f             	and    $0x3f,%eax
  60:	83 e6 3f             	and    $0x3f,%esi
  63:	48 85 c9             	test   %rcx,%rcx
  66:	74 06                	je     6e <_ZN5Xbyak13CodeGenerator3vexERKNS_3RegES3_PKNS_7OperandEiib+0x6e>
  68:	0f b6 11             	movzbl (%rcx),%edx
  6b:	83 e2 1f             	and    $0x1f,%edx
  6e:	09 f0                	or     %esi,%eax
  70:	83 e0 1f             	and    $0x1f,%eax
  73:	09 d0                	or     %edx,%eax
  75:	83 f8 0f             	cmp    $0xf,%eax
  78:	0f 8f 28 04 00 00    	jg     4a6 <_ZN5Xbyak13CodeGenerator3vexERKNS_3RegES3_PKNS_7OperandEiib+0x4a6>
  7e:	f7 d2                	not    %edx
  80:	44 89 c5             	mov    %r8d,%ebp
  83:	8d 04 d5 00 00 00 00 	lea    0x0(,%rdx,8),%eax
  8a:	c1 fd 05             	sar    $0x5,%ebp
  8d:	83 e0 78             	and    $0x78,%eax
  90:	83 e5 03             	and    $0x3,%ebp
  93:	89 c2                	mov    %eax,%edx
  95:	83 ca 04             	or     $0x4,%edx
  98:	40 84 ff             	test   %dil,%dil
  9b:	0f 45 c2             	cmovne %edx,%eax
  9e:	44 89 f2             	mov    %r14d,%edx
  a1:	09 c5                	or     %eax,%ebp
  a3:	44 89 c0             	mov    %r8d,%eax
  a6:	25 00 01 00 00       	and    $0x100,%eax
  ab:	45 84 ff             	test   %r15b,%r15b
  ae:	0f 94 c1             	sete   %cl
  b1:	83 f2 01             	xor    $0x1,%edx
  b4:	84 d1                	test   %dl,%cl
  b6:	74 09                	je     c1 <_ZN5Xbyak13CodeGenerator3vexERKNS_3RegES3_PKNS_7OperandEiib+0xc1>
  b8:	45 85 e4             	test   %r12d,%r12d
  bb:	0f 84 2f 03 00 00    	je     3f0 <_ZN5Xbyak13CodeGenerator3vexERKNS_3RegES3_PKNS_7OperandEiib+0x3f0>
  c1:	b9 01 00 00 00       	mov    $0x1,%ecx
  c6:	85 c0                	test   %eax,%eax
  c8:	0f 84 26 03 00 00    	je     3f4 <_ZN5Xbyak13CodeGenerator3vexERKNS_3RegES3_PKNS_7OperandEiib+0x3f4>
  ce:	48 8b 93 80 00 00 00 	mov    0x80(%rbx),%rdx
  d5:	4c 8b 43 70          	mov    0x70(%rbx),%r8
  d9:	4c 39 c2             	cmp    %r8,%rdx
  dc:	0f 83 46 02 00 00    	jae    328 <_ZN5Xbyak13CodeGenerator3vexERKNS_3RegES3_PKNS_7OperandEiib+0x328>
  e2:	48 8b 43 78          	mov    0x78(%rbx),%rax
  e6:	41 80 f9 01          	cmp    $0x1,%r9b
  ea:	48 8d 72 01          	lea    0x1(%rdx),%rsi
  ee:	48 89 b3 80 00 00 00 	mov    %rsi,0x80(%rbx)
  f5:	c6 04 10 c4          	movb   $0xc4,(%rax,%rdx,1)
  f9:	19 d2                	sbb    %edx,%edx
  fb:	81 e2 80 00 00 00    	and    $0x80,%edx
 101:	83 c2 40             	add    $0x40,%edx
 104:	41 80 f9 01          	cmp    $0x1,%r9b
 108:	19 c0                	sbb    %eax,%eax
 10a:	25 80 00 00 00       	and    $0x80,%eax
 10f:	45 84 f6             	test   %r14b,%r14b
 112:	0f 44 c2             	cmove  %edx,%eax
 115:	89 c2                	mov    %eax,%edx
 117:	83 ca 20             	or     $0x20,%edx
 11a:	45 84 ff             	test   %r15b,%r15b
 11d:	4c 8b 7b 70          	mov    0x70(%rbx),%r15
 121:	0f 44 c2             	cmove  %edx,%eax
 124:	48 8b 93 80 00 00 00 	mov    0x80(%rbx),%rdx
 12b:	09 c8                	or     %ecx,%eax
 12d:	41 89 c6             	mov    %eax,%r14d
 130:	4c 39 fa             	cmp    %r15,%rdx
 133:	0f 82 27 03 00 00    	jb     460 <_ZN5Xbyak13CodeGenerator3vexERKNS_3RegES3_PKNS_7OperandEiib+0x460>
 139:	83 7b 20 03          	cmpl   $0x3,0x20(%rbx)
 13d:	0f 85 68 03 00 00    	jne    4ab <_ZN5Xbyak13CodeGenerator3vexERKNS_3RegES3_PKNS_7OperandEiib+0x4ab>
 143:	4d 01 ff             	add    %r15,%r15
 146:	48 8b 7b 68          	mov    0x68(%rbx),%rdi
 14a:	b8 00 10 00 00       	mov    $0x1000,%eax
 14f:	49 81 ff 00 10 00 00 	cmp    $0x1000,%r15
 156:	4c 0f 42 f8          	cmovb  %rax,%r15
 15a:	48 8b 07             	mov    (%rdi),%rax
 15d:	4c 89 fe             	mov    %r15,%rsi
 160:	ff 10                	callq  *(%rax)
 162:	48 85 c0             	test   %rax,%rax
 165:	0f 84 36 03 00 00    	je     4a1 <_ZN5Xbyak13CodeGenerator3vexERKNS_3RegES3_PKNS_7OperandEiib+0x4a1>
 16b:	31 d2                	xor    %edx,%edx
 16d:	48 83 bb 80 00 00 00 	cmpq   $0x0,0x80(%rbx)
 174:	00 
 175:	74 21                	je     198 <_ZN5Xbyak13CodeGenerator3vexERKNS_3RegES3_PKNS_7OperandEiib+0x198>
 177:	66 0f 1f 84 00 00 00 	nopw   0x0(%rax,%rax,1)
 17e:	00 00 
 180:	48 8b 4b 78          	mov    0x78(%rbx),%rcx
 184:	0f b6 0c 11          	movzbl (%rcx,%rdx,1),%ecx
 188:	88 0c 10             	mov    %cl,(%rax,%rdx,1)
 18b:	48 83 c2 01          	add    $0x1,%rdx
 18f:	48 39 93 80 00 00 00 	cmp    %rdx,0x80(%rbx)
 196:	77 e8                	ja     180 <_ZN5Xbyak13CodeGenerator3vexERKNS_3RegES3_PKNS_7OperandEiib+0x180>
 198:	48 8b 7b 68          	mov    0x68(%rbx),%rdi
 19c:	48 8b 73 78          	mov    0x78(%rbx),%rsi
 1a0:	48 89 44 24 08       	mov    %rax,0x8(%rsp)
 1a5:	48 8b 17             	mov    (%rdi),%rdx
 1a8:	ff 52 08             	callq  *0x8(%rdx)
 1ab:	48 8b 44 24 08       	mov    0x8(%rsp),%rax
 1b0:	4c 89 7b 70          	mov    %r15,0x70(%rbx)
 1b4:	48 8b 93 80 00 00 00 	mov    0x80(%rbx),%rdx
 1bb:	48 89 43 78          	mov    %rax,0x78(%rbx)
 1bf:	41 c1 e4 07          	shl    $0x7,%r12d
 1c3:	48 8d 4a 01          	lea    0x1(%rdx),%rcx
 1c7:	48 89 8b 80 00 00 00 	mov    %rcx,0x80(%rbx)
 1ce:	44 09 e5             	or     %r12d,%ebp
 1d1:	44 88 34 10          	mov    %r14b,(%rax,%rdx,1)
 1d5:	48 8b 83 80 00 00 00 	mov    0x80(%rbx),%rax
 1dc:	4c 8b 63 70          	mov    0x70(%rbx),%r12
 1e0:	4c 39 e0             	cmp    %r12,%rax
 1e3:	0f 82 67 02 00 00    	jb     450 <_ZN5Xbyak13CodeGenerator3vexERKNS_3RegES3_PKNS_7OperandEiib+0x450>
 1e9:	83 7b 20 03          	cmpl   $0x3,0x20(%rbx)
 1ed:	0f 85 b8 02 00 00    	jne    4ab <_ZN5Xbyak13CodeGenerator3vexERKNS_3RegES3_PKNS_7OperandEiib+0x4ab>
 1f3:	48 8b 7b 68          	mov    0x68(%rbx),%rdi
 1f7:	4d 01 e4             	add    %r12,%r12
 1fa:	b8 00 10 00 00       	mov    $0x1000,%eax
 1ff:	49 81 fc 00 10 00 00 	cmp    $0x1000,%r12
 206:	4c 0f 42 e0          	cmovb  %rax,%r12
 20a:	48 8b 07             	mov    (%rdi),%rax
 20d:	4c 89 e6             	mov    %r12,%rsi
 210:	ff 10                	callq  *(%rax)
 212:	49 89 c6             	mov    %rax,%r14
 215:	48 85 c0             	test   %rax,%rax
 218:	0f 84 83 02 00 00    	je     4a1 <_ZN5Xbyak13CodeGenerator3vexERKNS_3RegES3_PKNS_7OperandEiib+0x4a1>
 21e:	31 d2                	xor    %edx,%edx
 220:	48 83 bb 80 00 00 00 	cmpq   $0x0,0x80(%rbx)
 227:	00 
 228:	74 1f                	je     249 <_ZN5Xbyak13CodeGenerator3vexERKNS_3RegES3_PKNS_7OperandEiib+0x249>
 22a:	66 0f 1f 44 00 00    	nopw   0x0(%rax,%rax,1)
 230:	48 8b 43 78          	mov    0x78(%rbx),%rax
 234:	0f b6 04 10          	movzbl (%rax,%rdx,1),%eax
 238:	41 88 04 16          	mov    %al,(%r14,%rdx,1)
 23c:	48 83 c2 01          	add    $0x1,%rdx
 240:	48 39 93 80 00 00 00 	cmp    %rdx,0x80(%rbx)
 247:	77 e7                	ja     230 <_ZN5Xbyak13CodeGenerator3vexERKNS_3RegES3_PKNS_7OperandEiib+0x230>
 249:	48 8b 7b 68          	mov    0x68(%rbx),%rdi
 24d:	48 8b 73 78          	mov    0x78(%rbx),%rsi
 251:	48 8b 07             	mov    (%rdi),%rax
 254:	ff 50 08             	callq  *0x8(%rax)
 257:	4c 89 73 78          	mov    %r14,0x78(%rbx)
 25b:	48 8b 83 80 00 00 00 	mov    0x80(%rbx),%rax
 262:	4c 89 63 70          	mov    %r12,0x70(%rbx)
 266:	48 8d 50 01          	lea    0x1(%rax),%rdx
 26a:	48 89 93 80 00 00 00 	mov    %rdx,0x80(%rbx)
 271:	41 88 2c 06          	mov    %bpl,(%r14,%rax,1)
 275:	48 8b 83 80 00 00 00 	mov    0x80(%rbx),%rax
 27c:	48 8b 6b 70          	mov    0x70(%rbx),%rbp
 280:	48 39 e8             	cmp    %rbp,%rax
 283:	0f 82 b7 01 00 00    	jb     440 <_ZN5Xbyak13CodeGenerator3vexERKNS_3RegES3_PKNS_7OperandEiib+0x440>
 289:	83 7b 20 03          	cmpl   $0x3,0x20(%rbx)
 28d:	0f 85 18 02 00 00    	jne    4ab <_ZN5Xbyak13CodeGenerator3vexERKNS_3RegES3_PKNS_7OperandEiib+0x4ab>
 293:	48 8b 7b 68          	mov    0x68(%rbx),%rdi
 297:	48 01 ed             	add    %rbp,%rbp
 29a:	b8 00 10 00 00       	mov    $0x1000,%eax
 29f:	48 81 fd 00 10 00 00 	cmp    $0x1000,%rbp
 2a6:	48 0f 42 e8          	cmovb  %rax,%rbp
 2aa:	48 8b 07             	mov    (%rdi),%rax
 2ad:	48 89 ee             	mov    %rbp,%rsi
 2b0:	ff 10                	callq  *(%rax)
 2b2:	49 89 c4             	mov    %rax,%r12
 2b5:	48 85 c0             	test   %rax,%rax
 2b8:	0f 84 e3 01 00 00    	je     4a1 <_ZN5Xbyak13CodeGenerator3vexERKNS_3RegES3_PKNS_7OperandEiib+0x4a1>
 2be:	31 d2                	xor    %edx,%edx
 2c0:	48 83 bb 80 00 00 00 	cmpq   $0x0,0x80(%rbx)
 2c7:	00 
 2c8:	74 1f                	je     2e9 <_ZN5Xbyak13CodeGenerator3vexERKNS_3RegES3_PKNS_7OperandEiib+0x2e9>
 2ca:	66 0f 1f 44 00 00    	nopw   0x0(%rax,%rax,1)
 2d0:	48 8b 43 78          	mov    0x78(%rbx),%rax
 2d4:	0f b6 04 10          	movzbl (%rax,%rdx,1),%eax
 2d8:	41 88 04 14          	mov    %al,(%r12,%rdx,1)
 2dc:	48 83 c2 01          	add    $0x1,%rdx
 2e0:	48 39 93 80 00 00 00 	cmp    %rdx,0x80(%rbx)
 2e7:	77 e7                	ja     2d0 <_ZN5Xbyak13CodeGenerator3vexERKNS_3RegES3_PKNS_7OperandEiib+0x2d0>
 2e9:	48 8b 7b 68          	mov    0x68(%rbx),%rdi
 2ed:	48 8b 73 78          	mov    0x78(%rbx),%rsi
 2f1:	48 8b 07             	mov    (%rdi),%rax
 2f4:	ff 50 08             	callq  *0x8(%rax)
 2f7:	4c 89 63 78          	mov    %r12,0x78(%rbx)
 2fb:	48 8b 83 80 00 00 00 	mov    0x80(%rbx),%rax
 302:	48 89 6b 70          	mov    %rbp,0x70(%rbx)
 306:	48 8d 50 01          	lea    0x1(%rax),%rdx
 30a:	48 89 93 80 00 00 00 	mov    %rdx,0x80(%rbx)
 311:	45 88 2c 04          	mov    %r13b,(%r12,%rax,1)
 315:	48 83 c4 28          	add    $0x28,%rsp
 319:	5b                   	pop    %rbx
 31a:	5d                   	pop    %rbp
 31b:	41 5c                	pop    %r12
 31d:	41 5d                	pop    %r13
 31f:	41 5e                	pop    %r14
 321:	41 5f                	pop    %r15
 323:	c3                   	retq   
 324:	0f 1f 40 00          	nopl   0x0(%rax)
 328:	83 7b 20 03          	cmpl   $0x3,0x20(%rbx)
 32c:	44 88 4c 24 17       	mov    %r9b,0x17(%rsp)
 331:	89 4c 24 10          	mov    %ecx,0x10(%rsp)
 335:	0f 85 70 01 00 00    	jne    4ab <_ZN5Xbyak13CodeGenerator3vexERKNS_3RegES3_PKNS_7OperandEiib+0x4ab>
 33b:	48 8b 7b 68          	mov    0x68(%rbx),%rdi
 33f:	4d 01 c0             	add    %r8,%r8
 342:	b8 00 10 00 00       	mov    $0x1000,%eax
 347:	49 81 f8 00 10 00 00 	cmp    $0x1000,%r8
 34e:	4c 0f 42 c0          	cmovb  %rax,%r8
 352:	48 8b 07             	mov    (%rdi),%rax
 355:	4c 89 44 24 08       	mov    %r8,0x8(%rsp)
 35a:	4c 89 c6             	mov    %r8,%rsi
 35d:	ff 10                	callq  *(%rax)
 35f:	4c 8b 44 24 08       	mov    0x8(%rsp),%r8
 364:	8b 4c 24 10          	mov    0x10(%rsp),%ecx
 368:	48 85 c0             	test   %rax,%rax
 36b:	44 0f b6 4c 24 17    	movzbl 0x17(%rsp),%r9d
 371:	0f 84 2a 01 00 00    	je     4a1 <_ZN5Xbyak13CodeGenerator3vexERKNS_3RegES3_PKNS_7OperandEiib+0x4a1>
 377:	31 d2                	xor    %edx,%edx
 379:	48 83 bb 80 00 00 00 	cmpq   $0x0,0x80(%rbx)
 380:	00 
 381:	74 1e                	je     3a1 <_ZN5Xbyak13CodeGenerator3vexERKNS_3RegES3_PKNS_7OperandEiib+0x3a1>
 383:	0f 1f 44 00 00       	nopl   0x0(%rax,%rax,1)
 388:	48 8b 73 78          	mov    0x78(%rbx),%rsi
 38c:	0f b6 34 16          	movzbl (%rsi,%rdx,1),%esi
 390:	40 88 34 10          	mov    %sil,(%rax,%rdx,1)
 394:	48 83 c2 01          	add    $0x1,%rdx
 398:	48 39 93 80 00 00 00 	cmp    %rdx,0x80(%rbx)
 39f:	77 e7                	ja     388 <_ZN5Xbyak13CodeGenerator3vexERKNS_3RegES3_PKNS_7OperandEiib+0x388>
 3a1:	48 8b 7b 68          	mov    0x68(%rbx),%rdi
 3a5:	48 89 44 24 18       	mov    %rax,0x18(%rsp)
 3aa:	44 88 4c 24 17       	mov    %r9b,0x17(%rsp)
 3af:	48 8b 73 78          	mov    0x78(%rbx),%rsi
 3b3:	48 8b 17             	mov    (%rdi),%rdx
 3b6:	89 4c 24 10          	mov    %ecx,0x10(%rsp)
 3ba:	4c 89 44 24 08       	mov    %r8,0x8(%rsp)
 3bf:	ff 52 08             	callq  *0x8(%rdx)
 3c2:	48 8b 44 24 18       	mov    0x18(%rsp),%rax
 3c7:	4c 8b 44 24 08       	mov    0x8(%rsp),%r8
 3cc:	48 8b 93 80 00 00 00 	mov    0x80(%rbx),%rdx
 3d3:	8b 4c 24 10          	mov    0x10(%rsp),%ecx
 3d7:	48 89 43 78          	mov    %rax,0x78(%rbx)
 3db:	44 0f b6 4c 24 17    	movzbl 0x17(%rsp),%r9d
 3e1:	4c 89 43 70          	mov    %r8,0x70(%rbx)
 3e5:	e9 fc fc ff ff       	jmpq   e6 <_ZN5Xbyak13CodeGenerator3vexERKNS_3RegES3_PKNS_7OperandEiib+0xe6>
 3ea:	66 0f 1f 44 00 00    	nopw   0x0(%rax,%rax,1)
 3f0:	85 c0                	test   %eax,%eax
 3f2:	75 7c                	jne    470 <_ZN5Xbyak13CodeGenerator3vexERKNS_3RegES3_PKNS_7OperandEiib+0x470>
 3f4:	b9 02 00 00 00       	mov    $0x2,%ecx
 3f9:	41 f7 c0 00 02 00 00 	test   $0x200,%r8d
 400:	0f 85 c8 fc ff ff    	jne    ce <_ZN5Xbyak13CodeGenerator3vexERKNS_3RegES3_PKNS_7OperandEiib+0xce>
 406:	44 89 c1             	mov    %r8d,%ecx
 409:	48 8b 93 80 00 00 00 	mov    0x80(%rbx),%rdx
 410:	4c 8b 43 70          	mov    0x70(%rbx),%r8
 414:	c1 e1 15             	shl    $0x15,%ecx
 417:	c1 f9 1f             	sar    $0x1f,%ecx
 41a:	83 e1 03             	and    $0x3,%ecx
 41d:	4c 39 c2             	cmp    %r8,%rdx
 420:	0f 82 bc fc ff ff    	jb     e2 <_ZN5Xbyak13CodeGenerator3vexERKNS_3RegES3_PKNS_7OperandEiib+0xe2>
 426:	e9 fd fe ff ff       	jmpq   328 <_ZN5Xbyak13CodeGenerator3vexERKNS_3RegES3_PKNS_7OperandEiib+0x328>
 42b:	0f 1f 44 00 00       	nopl   0x0(%rax,%rax,1)
 430:	0f b7 3e             	movzwl (%rsi),%edi
 433:	66 c1 ef 0b          	shr    $0xb,%di
 437:	83 e7 01             	and    $0x1,%edi
 43a:	e9 06 fc ff ff       	jmpq   45 <_ZN5Xbyak13CodeGenerator3vexERKNS_3RegES3_PKNS_7OperandEiib+0x45>
 43f:	90                   	nop
 440:	4c 8b 63 78          	mov    0x78(%rbx),%r12
 444:	e9 bd fe ff ff       	jmpq   306 <_ZN5Xbyak13CodeGenerator3vexERKNS_3RegES3_PKNS_7OperandEiib+0x306>
 449:	0f 1f 80 00 00 00 00 	nopl   0x0(%rax)
 450:	4c 8b 73 78          	mov    0x78(%rbx),%r14
 454:	e9 0d fe ff ff       	jmpq   266 <_ZN5Xbyak13CodeGenerator3vexERKNS_3RegES3_PKNS_7OperandEiib+0x266>
 459:	0f 1f 80 00 00 00 00 	nopl   0x0(%rax)
 460:	48 8b 43 78          	mov    0x78(%rbx),%rax
 464:	e9 56 fd ff ff       	jmpq   1bf <_ZN5Xbyak13CodeGenerator3vexERKNS_3RegES3_PKNS_7OperandEiib+0x1bf>
 469:	0f 1f 80 00 00 00 00 	nopl   0x0(%rax)
 470:	48 89 df             	mov    %rbx,%rdi
 473:	be c5 00 00 00       	mov    $0xc5,%esi
 478:	44 88 4c 24 08       	mov    %r9b,0x8(%rsp)
 47d:	e8 00 00 00 00       	callq  482 <_ZN5Xbyak13CodeGenerator3vexERKNS_3RegES3_PKNS_7OperandEiib+0x482>
 482:	44 0f b6 4c 24 08    	movzbl 0x8(%rsp),%r9d
 488:	89 e8                	mov    %ebp,%eax
 48a:	48 89 df             	mov    %rbx,%rdi
 48d:	0c 80                	or     $0x80,%al
 48f:	45 84 c9             	test   %r9b,%r9b
 492:	0f 44 e8             	cmove  %eax,%ebp
 495:	89 ee                	mov    %ebp,%esi
 497:	e8 00 00 00 00       	callq  49c <_ZN5Xbyak13CodeGenerator3vexERKNS_3RegES3_PKNS_7OperandEiib+0x49c>
 49c:	e9 d4 fd ff ff       	jmpq   275 <_ZN5Xbyak13CodeGenerator3vexERKNS_3RegES3_PKNS_7OperandEiib+0x275>
 4a1:	e8 00 00 00 00       	callq  4a6 <_ZN5Xbyak13CodeGenerator3vexERKNS_3RegES3_PKNS_7OperandEiib+0x4a6>
 4a6:	e8 00 00 00 00       	callq  4ab <_ZN5Xbyak13CodeGenerator3vexERKNS_3RegES3_PKNS_7OperandEiib+0x4ab>
 4ab:	e8 00 00 00 00       	callq  4b0 <_GLOBAL__sub_I_mcl.cpp.cold+0x180>

Disassembly of section .text._ZN5Xbyak13CodeGenerator4evexERKNS_3RegES3_PKNS_7OperandEiibbijb:

0000000000000000 <_ZN5Xbyak13CodeGenerator4evexERKNS_3RegES3_PKNS_7OperandEiibbijb>:
   0:	f3 0f 1e fa          	endbr64 
   4:	41 57                	push   %r15
   6:	41 56                	push   %r14
   8:	41 55                	push   %r13
   a:	41 54                	push   %r12
   c:	55                   	push   %rbp
   d:	53                   	push   %rbx
   e:	48 89 fb             	mov    %rdi,%rbx
  11:	48 89 cf             	mov    %rcx,%rdi
  14:	48 83 ec 48          	sub    $0x48,%rsp
  18:	44 8b ac 24 88 00 00 	mov    0x88(%rsp),%r13d
  1f:	00 
  20:	8b 84 24 a0 00 00 00 	mov    0xa0(%rsp),%eax
  27:	44 89 4c 24 2c       	mov    %r9d,0x2c(%rsp)
  2c:	8b 8c 24 80 00 00 00 	mov    0x80(%rsp),%ecx
  33:	89 44 24 30          	mov    %eax,0x30(%rsp)
  37:	44 88 6c 24 29       	mov    %r13b,0x29(%rsp)
  3c:	41 f7 c0 00 00 04 02 	test   $0x2040000,%r8d
  43:	0f 84 95 09 00 00    	je     9de <_ZN5Xbyak13CodeGenerator4evexERKNS_3RegES3_PKNS_7OperandEiibbijb+0x9de>
  49:	44 89 c0             	mov    %r8d,%eax
  4c:	41 89 cc             	mov    %ecx,%r12d
  4f:	c1 f8 10             	sar    $0x10,%eax
  52:	83 e0 01             	and    $0x1,%eax
  55:	89 44 24 08          	mov    %eax,0x8(%rsp)
  59:	41 f7 c0 00 01 00 00 	test   $0x100,%r8d
  60:	75 36                	jne    98 <_ZN5Xbyak13CodeGenerator4evexERKNS_3RegES3_PKNS_7OperandEiibbijb+0x98>
  62:	41 f7 c0 00 02 00 00 	test   $0x200,%r8d
  69:	0f 85 e1 01 00 00    	jne    250 <_ZN5Xbyak13CodeGenerator4evexERKNS_3RegES3_PKNS_7OperandEiibbijb+0x250>
  6f:	44 89 c0             	mov    %r8d,%eax
  72:	25 00 04 00 00       	and    $0x400,%eax
  77:	83 f8 01             	cmp    $0x1,%eax
  7a:	45 19 ff             	sbb    %r15d,%r15d
  7d:	41 83 e7 fd          	and    $0xfffffffd,%r15d
  81:	41 83 c7 07          	add    $0x7,%r15d
  85:	83 f8 01             	cmp    $0x1,%eax
  88:	19 c0                	sbb    %eax,%eax
  8a:	f7 d0                	not    %eax
  8c:	83 e0 03             	and    $0x3,%eax
  8f:	eb 12                	jmp    a3 <_ZN5Xbyak13CodeGenerator4evexERKNS_3RegES3_PKNS_7OperandEiibbijb+0xa3>
  91:	0f 1f 80 00 00 00 00 	nopl   0x0(%rax)
  98:	41 bf 05 00 00 00    	mov    $0x5,%r15d
  9e:	b8 01 00 00 00       	mov    $0x1,%eax
  a3:	45 85 c0             	test   %r8d,%r8d
  a6:	44 0f b6 0a          	movzbl (%rdx),%r9d
  aa:	44 89 c5             	mov    %r8d,%ebp
  ad:	44 0f 49 f8          	cmovns %eax,%r15d
  b1:	0f b6 06             	movzbl (%rsi),%eax
  b4:	c1 fd 05             	sar    $0x5,%ebp
  b7:	83 e5 03             	and    $0x3,%ebp
  ba:	41 89 c3             	mov    %eax,%r11d
  bd:	83 e0 10             	and    $0x10,%eax
  c0:	88 44 24 18          	mov    %al,0x18(%rsp)
  c4:	41 83 e3 08          	and    $0x8,%r11d
  c8:	44 89 c8             	mov    %r9d,%eax
  cb:	41 83 e1 08          	and    $0x8,%r9d
  cf:	44 88 5c 24 10       	mov    %r11b,0x10(%rsp)
  d4:	83 e0 3f             	and    $0x3f,%eax
  d7:	44 88 4c 24 2b       	mov    %r9b,0x2b(%rsp)
  dc:	48 85 ff             	test   %rdi,%rdi
  df:	0f 84 9b 07 00 00    	je     880 <_ZN5Xbyak13CodeGenerator4evexERKNS_3RegES3_PKNS_7OperandEiibbijb+0x880>
  e5:	44 0f b6 0f          	movzbl (%rdi),%r9d
  e9:	41 83 e1 1f          	and    $0x1f,%r9d
  ed:	41 f7 d1             	not    %r9d
  f0:	44 89 4c 24 24       	mov    %r9d,0x24(%rsp)
  f5:	84 c9                	test   %cl,%cl
  f7:	0f 85 43 01 00 00    	jne    240 <_ZN5Xbyak13CodeGenerator4evexERKNS_3RegES3_PKNS_7OperandEiibbijb+0x240>
  fd:	c0 e8 04             	shr    $0x4,%al
 100:	83 f0 01             	xor    $0x1,%eax
 103:	83 e0 01             	and    $0x1,%eax
 106:	88 44 24 2a          	mov    %al,0x2a(%rsp)
 10a:	0f b6 4f 04          	movzbl 0x4(%rdi),%ecx
 10e:	c0 e9 03             	shr    $0x3,%cl
 111:	83 e1 07             	and    $0x7,%ecx
 114:	41 0f 95 c4          	setne  %r12b
 118:	44 0f b6 4a 04       	movzbl 0x4(%rdx),%r9d
 11d:	0f b6 46 04          	movzbl 0x4(%rsi),%eax
 121:	45 89 ca             	mov    %r9d,%r10d
 124:	88 44 24 38          	mov    %al,0x38(%rsp)
 128:	c0 e8 03             	shr    $0x3,%al
 12b:	41 c0 ea 03          	shr    $0x3,%r10b
 12f:	83 e0 07             	and    $0x7,%eax
 132:	41 83 e2 07          	and    $0x7,%r10d
 136:	44 0f b6 f0          	movzbl %al,%r14d
 13a:	44 09 d0             	or     %r10d,%eax
 13d:	45 0f b6 da          	movzbl %r10b,%r11d
 141:	0f b6 c0             	movzbl %al,%eax
 144:	09 c8                	or     %ecx,%eax
 146:	45 85 f6             	test   %r14d,%r14d
 149:	41 0f 9f c2          	setg   %r10b
 14d:	41 39 c6             	cmp    %eax,%r14d
 150:	41 0f 95 c6          	setne  %r14b
 154:	45 0f b6 f6          	movzbl %r14b,%r14d
 158:	45 21 f2             	and    %r14d,%r10d
 15b:	45 85 db             	test   %r11d,%r11d
 15e:	41 0f 9f c6          	setg   %r14b
 162:	41 39 c3             	cmp    %eax,%r11d
 165:	41 0f 95 c3          	setne  %r11b
 169:	45 0f b6 db          	movzbl %r11b,%r11d
 16d:	45 21 de             	and    %r11d,%r14d
 170:	45 01 d6             	add    %r10d,%r14d
 173:	45 31 d2             	xor    %r10d,%r10d
 176:	39 c1                	cmp    %eax,%ecx
 178:	41 0f 95 c2          	setne  %r10b
 17c:	45 21 d4             	and    %r10d,%r12d
 17f:	45 01 e6             	add    %r12d,%r14d
 182:	44 89 74 24 20       	mov    %r14d,0x20(%rsp)
 187:	0f 85 86 08 00 00    	jne    a13 <_ZN5Xbyak13CodeGenerator4evexERKNS_3RegES3_PKNS_7OperandEiibbijb+0xa13>
 18d:	85 c0                	test   %eax,%eax
 18f:	0f 84 2b 01 00 00    	je     2c0 <_ZN5Xbyak13CodeGenerator4evexERKNS_3RegES3_PKNS_7OperandEiibbijb+0x2c0>
 195:	83 f8 05             	cmp    $0x5,%eax
 198:	0f 84 d2 07 00 00    	je     970 <_ZN5Xbyak13CodeGenerator4evexERKNS_3RegES3_PKNS_7OperandEiibbijb+0x970>
 19e:	41 f6 c0 80          	test   $0x80,%r8b
 1a2:	74 0c                	je     1b0 <_ZN5Xbyak13CodeGenerator4evexERKNS_3RegES3_PKNS_7OperandEiibbijb+0x1b0>
 1a4:	f6 02 80             	testb  $0x80,(%rdx)
 1a7:	74 07                	je     1b0 <_ZN5Xbyak13CodeGenerator4evexERKNS_3RegES3_PKNS_7OperandEiibbijb+0x1b0>
 1a9:	f6 42 02 60          	testb  $0x60,0x2(%rdx)
 1ad:	75 19                	jne    1c8 <_ZN5Xbyak13CodeGenerator4evexERKNS_3RegES3_PKNS_7OperandEiibbijb+0x1c8>
 1af:	90                   	nop
 1b0:	41 f7 c0 00 00 08 00 	test   $0x80000,%r8d
 1b7:	0f 84 a3 00 00 00    	je     260 <_ZN5Xbyak13CodeGenerator4evexERKNS_3RegES3_PKNS_7OperandEiibbijb+0x260>
 1bd:	66 f7 02 00 04       	testw  $0x400,(%rdx)
 1c2:	0f 84 98 00 00 00    	je     260 <_ZN5Xbyak13CodeGenerator4evexERKNS_3RegES3_PKNS_7OperandEiibbijb+0x260>
 1c8:	83 e8 01             	sub    $0x1,%eax
 1cb:	c6 44 24 29 01       	movb   $0x1,0x29(%rsp)
 1d0:	41 bc 01 00 00 00    	mov    $0x1,%r12d
 1d6:	89 44 24 04          	mov    %eax,0x4(%rsp)
 1da:	45 31 ed             	xor    %r13d,%r13d
 1dd:	48 85 ff             	test   %rdi,%rdi
 1e0:	74 0c                	je     1ee <_ZN5Xbyak13CodeGenerator4evexERKNS_3RegES3_PKNS_7OperandEiibbijb+0x1ee>
 1e2:	44 0f b6 2f          	movzbl (%rdi),%r13d
 1e6:	41 c1 ed 04          	shr    $0x4,%r13d
 1ea:	41 83 e5 01          	and    $0x1,%r13d
 1ee:	0f b6 44 24 30       	movzbl 0x30(%rsp),%eax
 1f3:	41 09 c5             	or     %eax,%r13d
 1f6:	48 8b 06             	mov    (%rsi),%rax
 1f9:	a9 00 00 00 40       	test   $0x40000000,%eax
 1fe:	0f 85 64 01 00 00    	jne    368 <_ZN5Xbyak13CodeGenerator4evexERKNS_3RegES3_PKNS_7OperandEiibbijb+0x368>
 204:	48 8b 02             	mov    (%rdx),%rax
 207:	a9 00 00 00 40       	test   $0x40000000,%eax
 20c:	0f 85 56 01 00 00    	jne    368 <_ZN5Xbyak13CodeGenerator4evexERKNS_3RegES3_PKNS_7OperandEiibbijb+0x368>
 212:	48 85 ff             	test   %rdi,%rdi
 215:	0f 84 2d 07 00 00    	je     948 <_ZN5Xbyak13CodeGenerator4evexERKNS_3RegES3_PKNS_7OperandEiibbijb+0x948>
 21b:	44 8b 84 24 90 00 00 	mov    0x90(%rsp),%r8d
 222:	00 
 223:	48 f7 07 00 00 00 40 	testq  $0x40000000,(%rdi)
 22a:	41 0f 95 c6          	setne  %r14b
 22e:	45 85 c0             	test   %r8d,%r8d
 231:	0f 85 c8 01 00 00    	jne    3ff <_ZN5Xbyak13CodeGenerator4evexERKNS_3RegES3_PKNS_7OperandEiibbijb+0x3ff>
 237:	e9 4a 01 00 00       	jmpq   386 <_ZN5Xbyak13CodeGenerator4evexERKNS_3RegES3_PKNS_7OperandEiibbijb+0x386>
 23c:	0f 1f 40 00          	nopl   0x0(%rax)
 240:	c6 44 24 2a 00       	movb   $0x0,0x2a(%rsp)
 245:	e9 c0 fe ff ff       	jmpq   10a <_ZN5Xbyak13CodeGenerator4evexERKNS_3RegES3_PKNS_7OperandEiibbijb+0x10a>
 24a:	66 0f 1f 44 00 00    	nopw   0x0(%rax,%rax,1)
 250:	41 bf 06 00 00 00    	mov    $0x6,%r15d
 256:	b8 02 00 00 00       	mov    $0x2,%eax
 25b:	e9 43 fe ff ff       	jmpq   a3 <_ZN5Xbyak13CodeGenerator4evexERKNS_3RegES3_PKNS_7OperandEiibbijb+0xa3>
 260:	41 f7 c0 00 00 10 00 	test   $0x100000,%r8d
 267:	74 0b                	je     274 <_ZN5Xbyak13CodeGenerator4evexERKNS_3RegES3_PKNS_7OperandEiibbijb+0x274>
 269:	66 f7 02 00 08       	testw  $0x800,(%rdx)
 26e:	0f 85 54 ff ff ff    	jne    1c8 <_ZN5Xbyak13CodeGenerator4evexERKNS_3RegES3_PKNS_7OperandEiibbijb+0x1c8>
 274:	41 81 e0 00 00 20 00 	and    $0x200000,%r8d
 27b:	74 0b                	je     288 <_ZN5Xbyak13CodeGenerator4evexERKNS_3RegES3_PKNS_7OperandEiibbijb+0x288>
 27d:	66 f7 02 00 10       	testw  $0x1000,(%rdx)
 282:	0f 85 40 ff ff ff    	jne    1c8 <_ZN5Xbyak13CodeGenerator4evexERKNS_3RegES3_PKNS_7OperandEiibbijb+0x1c8>
 288:	bf 10 00 00 00       	mov    $0x10,%edi
 28d:	e8 00 00 00 00       	callq  292 <_ZN5Xbyak13CodeGenerator4evexERKNS_3RegES3_PKNS_7OperandEiibbijb+0x292>
 292:	48 8b 15 00 00 00 00 	mov    0x0(%rip),%rdx        # 299 <_ZN5Xbyak13CodeGenerator4evexERKNS_3RegES3_PKNS_7OperandEiibbijb+0x299>
 299:	48 8b 35 00 00 00 00 	mov    0x0(%rip),%rsi        # 2a0 <_ZN5Xbyak13CodeGenerator4evexERKNS_3RegES3_PKNS_7OperandEiibbijb+0x2a0>
 2a0:	48 89 c7             	mov    %rax,%rdi
 2a3:	48 8b 05 00 00 00 00 	mov    0x0(%rip),%rax        # 2aa <_ZN5Xbyak13CodeGenerator4evexERKNS_3RegES3_PKNS_7OperandEiibbijb+0x2aa>
 2aa:	c7 47 08 26 00 00 00 	movl   $0x26,0x8(%rdi)
 2b1:	48 83 c0 10          	add    $0x10,%rax
 2b5:	48 89 07             	mov    %rax,(%rdi)
 2b8:	e8 00 00 00 00       	callq  2bd <_ZN5Xbyak13CodeGenerator4evexERKNS_3RegES3_PKNS_7OperandEiibbijb+0x2bd>
 2bd:	0f 1f 00             	nopl   (%rax)
 2c0:	48 85 ff             	test   %rdi,%rdi
 2c3:	74 1f                	je     2e4 <_ZN5Xbyak13CodeGenerator4evexERKNS_3RegES3_PKNS_7OperandEiibbijb+0x2e4>
 2c5:	0f b7 47 02          	movzwl 0x2(%rdi),%eax
 2c9:	25 ff 3f 00 00       	and    $0x3fff,%eax
 2ce:	39 84 24 98 00 00 00 	cmp    %eax,0x98(%rsp)
 2d5:	0f 43 84 24 98 00 00 	cmovae 0x98(%rsp),%eax
 2dc:	00 
 2dd:	89 84 24 98 00 00 00 	mov    %eax,0x98(%rsp)
 2e4:	0f b7 4e 02          	movzwl 0x2(%rsi),%ecx
 2e8:	0f b7 42 02          	movzwl 0x2(%rdx),%eax
 2ec:	c7 44 24 04 02 00 00 	movl   $0x2,0x4(%rsp)
 2f3:	00 
 2f4:	81 e1 ff 3f 00 00    	and    $0x3fff,%ecx
 2fa:	25 ff 3f 00 00       	and    $0x3fff,%eax
 2ff:	39 c1                	cmp    %eax,%ecx
 301:	0f 43 c1             	cmovae %ecx,%eax
 304:	3b 84 24 98 00 00 00 	cmp    0x98(%rsp),%eax
 30b:	0f 42 84 24 98 00 00 	cmovb  0x98(%rsp),%eax
 312:	00 
 313:	3d 00 02 00 00       	cmp    $0x200,%eax
 318:	74 0e                	je     328 <_ZN5Xbyak13CodeGenerator4evexERKNS_3RegES3_PKNS_7OperandEiibbijb+0x328>
 31a:	31 c9                	xor    %ecx,%ecx
 31c:	3d 00 01 00 00       	cmp    $0x100,%eax
 321:	0f 94 c1             	sete   %cl
 324:	89 4c 24 04          	mov    %ecx,0x4(%rsp)
 328:	45 84 ed             	test   %r13b,%r13b
 32b:	0f 84 6f 05 00 00    	je     8a0 <_ZN5Xbyak13CodeGenerator4evexERKNS_3RegES3_PKNS_7OperandEiibbijb+0x8a0>
 331:	44 89 c0             	mov    %r8d,%eax
 334:	41 bc 02 00 00 00    	mov    $0x2,%r12d
 33a:	25 00 00 00 0c       	and    $0xc000000,%eax
 33f:	3d 00 00 00 0c       	cmp    $0xc000000,%eax
 344:	0f 84 90 fe ff ff    	je     1da <_ZN5Xbyak13CodeGenerator4evexERKNS_3RegES3_PKNS_7OperandEiibbijb+0x1da>
 34a:	41 81 e0 00 00 00 04 	and    $0x4000000,%r8d
 351:	41 83 f8 01          	cmp    $0x1,%r8d
 355:	45 19 e4             	sbb    %r12d,%r12d
 358:	41 83 e4 04          	and    $0x4,%r12d
 35c:	41 83 c4 04          	add    $0x4,%r12d
 360:	e9 75 fe ff ff       	jmpq   1da <_ZN5Xbyak13CodeGenerator4evexERKNS_3RegES3_PKNS_7OperandEiibbijb+0x1da>
 365:	0f 1f 00             	nopl   (%rax)
 368:	8b b4 24 90 00 00 00 	mov    0x90(%rsp),%esi
 36f:	85 f6                	test   %esi,%esi
 371:	0f 85 f9 04 00 00    	jne    870 <_ZN5Xbyak13CodeGenerator4evexERKNS_3RegES3_PKNS_7OperandEiibbijb+0x870>
 377:	48 85 ff             	test   %rdi,%rdi
 37a:	0f 84 40 06 00 00    	je     9c0 <_ZN5Xbyak13CodeGenerator4evexERKNS_3RegES3_PKNS_7OperandEiibbijb+0x9c0>
 380:	41 be 01 00 00 00    	mov    $0x1,%r14d
 386:	0f b6 4f 04          	movzbl 0x4(%rdi),%ecx
 38a:	83 e1 07             	and    $0x7,%ecx
 38d:	40 0f 95 c6          	setne  %sil
 391:	0f b6 7c 24 38       	movzbl 0x38(%rsp),%edi
 396:	89 f8                	mov    %edi,%eax
 398:	44 09 c8             	or     %r9d,%eax
 39b:	83 e0 07             	and    $0x7,%eax
 39e:	09 c8                	or     %ecx,%eax
 3a0:	41 83 e1 07          	and    $0x7,%r9d
 3a4:	89 84 24 90 00 00 00 	mov    %eax,0x90(%rsp)
 3ab:	0f 95 c0             	setne  %al
 3ae:	31 d2                	xor    %edx,%edx
 3b0:	44 3b 8c 24 90 00 00 	cmp    0x90(%rsp),%r9d
 3b7:	00 
 3b8:	0f 95 c2             	setne  %dl
 3bb:	21 c2                	and    %eax,%edx
 3bd:	89 f8                	mov    %edi,%eax
 3bf:	83 e0 07             	and    $0x7,%eax
 3c2:	40 0f 95 c7          	setne  %dil
 3c6:	3b 84 24 90 00 00 00 	cmp    0x90(%rsp),%eax
 3cd:	0f 95 c0             	setne  %al
 3d0:	0f b6 c0             	movzbl %al,%eax
 3d3:	21 f8                	and    %edi,%eax
 3d5:	01 d0                	add    %edx,%eax
 3d7:	31 d2                	xor    %edx,%edx
 3d9:	3b 8c 24 90 00 00 00 	cmp    0x90(%rsp),%ecx
 3e0:	0f 95 c2             	setne  %dl
 3e3:	21 f2                	and    %esi,%edx
 3e5:	01 d0                	add    %edx,%eax
 3e7:	0f 85 3a 06 00 00    	jne    a27 <_ZN5Xbyak13CodeGenerator4evexERKNS_3RegES3_PKNS_7OperandEiibbijb+0xa27>
 3ed:	8b 8c 24 90 00 00 00 	mov    0x90(%rsp),%ecx
 3f4:	b8 00 00 00 00       	mov    $0x0,%eax
 3f9:	85 c9                	test   %ecx,%ecx
 3fb:	44 0f 44 f0          	cmove  %eax,%r14d
 3ff:	48 8b 93 80 00 00 00 	mov    0x80(%rbx),%rdx
 406:	48 8b 4b 70          	mov    0x70(%rbx),%rcx
 40a:	48 39 ca             	cmp    %rcx,%rdx
 40d:	0f 82 4d 04 00 00    	jb     860 <_ZN5Xbyak13CodeGenerator4evexERKNS_3RegES3_PKNS_7OperandEiibbijb+0x860>
 413:	83 7b 20 03          	cmpl   $0x3,0x20(%rbx)
 417:	0f 85 00 06 00 00    	jne    a1d <_ZN5Xbyak13CodeGenerator4evexERKNS_3RegES3_PKNS_7OperandEiibbijb+0xa1d>
 41d:	48 8b 7b 68          	mov    0x68(%rbx),%rdi
 421:	48 01 c9             	add    %rcx,%rcx
 424:	b8 00 10 00 00       	mov    $0x1000,%eax
 429:	48 81 f9 00 10 00 00 	cmp    $0x1000,%rcx
 430:	48 0f 42 c8          	cmovb  %rax,%rcx
 434:	48 8b 07             	mov    (%rdi),%rax
 437:	48 89 4c 24 30       	mov    %rcx,0x30(%rsp)
 43c:	48 89 ce             	mov    %rcx,%rsi
 43f:	ff 10                	callq  *(%rax)
 441:	48 8b 4c 24 30       	mov    0x30(%rsp),%rcx
 446:	48 85 c0             	test   %rax,%rax
 449:	0f 84 d3 05 00 00    	je     a22 <_ZN5Xbyak13CodeGenerator4evexERKNS_3RegES3_PKNS_7OperandEiibbijb+0xa22>
 44f:	31 d2                	xor    %edx,%edx
 451:	48 83 bb 80 00 00 00 	cmpq   $0x0,0x80(%rbx)
 458:	00 
 459:	74 1e                	je     479 <_ZN5Xbyak13CodeGenerator4evexERKNS_3RegES3_PKNS_7OperandEiibbijb+0x479>
 45b:	0f 1f 44 00 00       	nopl   0x0(%rax,%rax,1)
 460:	48 8b 73 78          	mov    0x78(%rbx),%rsi
 464:	0f b6 34 16          	movzbl (%rsi,%rdx,1),%esi
 468:	40 88 34 10          	mov    %sil,(%rax,%rdx,1)
 46c:	48 83 c2 01          	add    $0x1,%rdx
 470:	48 39 93 80 00 00 00 	cmp    %rdx,0x80(%rbx)
 477:	77 e7                	ja     460 <_ZN5Xbyak13CodeGenerator4evexERKNS_3RegES3_PKNS_7OperandEiibbijb+0x460>
 479:	48 8b 7b 68          	mov    0x68(%rbx),%rdi
 47d:	48 8b 73 78          	mov    0x78(%rbx),%rsi
 481:	48 89 4c 24 38       	mov    %rcx,0x38(%rsp)
 486:	48 89 44 24 30       	mov    %rax,0x30(%rsp)
 48b:	48 8b 17             	mov    (%rdi),%rdx
 48e:	ff 52 08             	callq  *0x8(%rdx)
 491:	48 8b 44 24 30       	mov    0x30(%rsp),%rax
 496:	48 8b 4c 24 38       	mov    0x38(%rsp),%rcx
 49b:	48 8b 93 80 00 00 00 	mov    0x80(%rbx),%rdx
 4a2:	48 89 43 78          	mov    %rax,0x78(%rbx)
 4a6:	48 89 4b 70          	mov    %rcx,0x70(%rbx)
 4aa:	48 8d 4a 01          	lea    0x1(%rdx),%rcx
 4ae:	80 7c 24 10 01       	cmpb   $0x1,0x10(%rsp)
 4b3:	48 89 8b 80 00 00 00 	mov    %rcx,0x80(%rbx)
 4ba:	c6 04 10 62          	movb   $0x62,(%rax,%rdx,1)
 4be:	19 d2                	sbb    %edx,%edx
 4c0:	48 8b 4b 70          	mov    0x70(%rbx),%rcx
 4c4:	81 e2 80 00 00 00    	and    $0x80,%edx
 4ca:	80 7c 24 2a 00       	cmpb   $0x0,0x2a(%rsp)
 4cf:	8d 42 40             	lea    0x40(%rdx),%eax
 4d2:	0f 44 c2             	cmove  %edx,%eax
 4d5:	89 c2                	mov    %eax,%edx
 4d7:	83 ca 20             	or     $0x20,%edx
 4da:	80 7c 24 2b 00       	cmpb   $0x0,0x2b(%rsp)
 4df:	0f 44 c2             	cmove  %edx,%eax
 4e2:	89 c2                	mov    %eax,%edx
 4e4:	83 ca 10             	or     $0x10,%edx
 4e7:	80 7c 24 18 00       	cmpb   $0x0,0x18(%rsp)
 4ec:	0f 44 c2             	cmove  %edx,%eax
 4ef:	48 8b 93 80 00 00 00 	mov    0x80(%rbx),%rdx
 4f6:	41 09 c7             	or     %eax,%r15d
 4f9:	48 39 ca             	cmp    %rcx,%rdx
 4fc:	0f 82 4e 03 00 00    	jb     850 <_ZN5Xbyak13CodeGenerator4evexERKNS_3RegES3_PKNS_7OperandEiibbijb+0x850>
 502:	83 7b 20 03          	cmpl   $0x3,0x20(%rbx)
 506:	0f 85 11 05 00 00    	jne    a1d <_ZN5Xbyak13CodeGenerator4evexERKNS_3RegES3_PKNS_7OperandEiibbijb+0xa1d>
 50c:	48 01 c9             	add    %rcx,%rcx
 50f:	48 8b 7b 68          	mov    0x68(%rbx),%rdi
 513:	b8 00 10 00 00       	mov    $0x1000,%eax
 518:	48 81 f9 00 10 00 00 	cmp    $0x1000,%rcx
 51f:	48 0f 42 c8          	cmovb  %rax,%rcx
 523:	48 8b 07             	mov    (%rdi),%rax
 526:	48 89 4c 24 10       	mov    %rcx,0x10(%rsp)
 52b:	48 89 ce             	mov    %rcx,%rsi
 52e:	ff 10                	callq  *(%rax)
 530:	48 85 c0             	test   %rax,%rax
 533:	0f 84 e9 04 00 00    	je     a22 <_ZN5Xbyak13CodeGenerator4evexERKNS_3RegES3_PKNS_7OperandEiibbijb+0xa22>
 539:	31 d2                	xor    %edx,%edx
 53b:	48 83 bb 80 00 00 00 	cmpq   $0x0,0x80(%rbx)
 542:	00 
 543:	48 8b 4c 24 10       	mov    0x10(%rsp),%rcx
 548:	74 1f                	je     569 <_ZN5Xbyak13CodeGenerator4evexERKNS_3RegES3_PKNS_7OperandEiibbijb+0x569>
 54a:	66 0f 1f 44 00 00    	nopw   0x0(%rax,%rax,1)
 550:	48 8b 73 78          	mov    0x78(%rbx),%rsi
 554:	0f b6 34 16          	movzbl (%rsi,%rdx,1),%esi
 558:	40 88 34 10          	mov    %sil,(%rax,%rdx,1)
 55c:	48 83 c2 01          	add    $0x1,%rdx
 560:	48 39 93 80 00 00 00 	cmp    %rdx,0x80(%rbx)
 567:	77 e7                	ja     550 <_ZN5Xbyak13CodeGenerator4evexERKNS_3RegES3_PKNS_7OperandEiibbijb+0x550>
 569:	48 8b 7b 68          	mov    0x68(%rbx),%rdi
 56d:	48 8b 73 78          	mov    0x78(%rbx),%rsi
 571:	48 89 4c 24 18       	mov    %rcx,0x18(%rsp)
 576:	48 89 44 24 10       	mov    %rax,0x10(%rsp)
 57b:	48 8b 17             	mov    (%rdi),%rdx
 57e:	ff 52 08             	callq  *0x8(%rdx)
 581:	48 8b 44 24 10       	mov    0x10(%rsp),%rax
 586:	48 8b 4c 24 18       	mov    0x18(%rsp),%rcx
 58b:	48 8b 93 80 00 00 00 	mov    0x80(%rbx),%rdx
 592:	48 89 43 78          	mov    %rax,0x78(%rbx)
 596:	48 89 4b 70          	mov    %rcx,0x70(%rbx)
 59a:	48 8d 4a 01          	lea    0x1(%rdx),%rcx
 59e:	44 8b 4c 24 24       	mov    0x24(%rsp),%r9d
 5a3:	48 89 8b 80 00 00 00 	mov    %rcx,0x80(%rbx)
 5aa:	44 88 3c 10          	mov    %r15b,(%rax,%rdx,1)
 5ae:	8b 54 24 08          	mov    0x8(%rsp),%edx
 5b2:	89 e8                	mov    %ebp,%eax
 5b4:	0c 80                	or     $0x80,%al
 5b6:	4c 8b 7b 70          	mov    0x70(%rbx),%r15
 5ba:	85 d2                	test   %edx,%edx
 5bc:	48 8b 93 80 00 00 00 	mov    0x80(%rbx),%rdx
 5c3:	0f 45 e8             	cmovne %eax,%ebp
 5c6:	41 c1 e1 03          	shl    $0x3,%r9d
 5ca:	41 83 e1 78          	and    $0x78,%r9d
 5ce:	44 09 cd             	or     %r9d,%ebp
 5d1:	83 cd 04             	or     $0x4,%ebp
 5d4:	4c 39 fa             	cmp    %r15,%rdx
 5d7:	0f 82 63 02 00 00    	jb     840 <_ZN5Xbyak13CodeGenerator4evexERKNS_3RegES3_PKNS_7OperandEiibbijb+0x840>
 5dd:	83 7b 20 03          	cmpl   $0x3,0x20(%rbx)
 5e1:	0f 85 36 04 00 00    	jne    a1d <_ZN5Xbyak13CodeGenerator4evexERKNS_3RegES3_PKNS_7OperandEiibbijb+0xa1d>
 5e7:	4d 01 ff             	add    %r15,%r15
 5ea:	48 8b 7b 68          	mov    0x68(%rbx),%rdi
 5ee:	b8 00 10 00 00       	mov    $0x1000,%eax
 5f3:	49 81 ff 00 10 00 00 	cmp    $0x1000,%r15
 5fa:	4c 0f 42 f8          	cmovb  %rax,%r15
 5fe:	48 8b 07             	mov    (%rdi),%rax
 601:	4c 89 fe             	mov    %r15,%rsi
 604:	ff 10                	callq  *(%rax)
 606:	48 85 c0             	test   %rax,%rax
 609:	0f 84 13 04 00 00    	je     a22 <_ZN5Xbyak13CodeGenerator4evexERKNS_3RegES3_PKNS_7OperandEiibbijb+0xa22>
 60f:	31 d2                	xor    %edx,%edx
 611:	48 83 bb 80 00 00 00 	cmpq   $0x0,0x80(%rbx)
 618:	00 
 619:	74 1d                	je     638 <_ZN5Xbyak13CodeGenerator4evexERKNS_3RegES3_PKNS_7OperandEiibbijb+0x638>
 61b:	0f 1f 44 00 00       	nopl   0x0(%rax,%rax,1)
 620:	48 8b 4b 78          	mov    0x78(%rbx),%rcx
 624:	0f b6 0c 11          	movzbl (%rcx,%rdx,1),%ecx
 628:	88 0c 10             	mov    %cl,(%rax,%rdx,1)
 62b:	48 83 c2 01          	add    $0x1,%rdx
 62f:	48 39 93 80 00 00 00 	cmp    %rdx,0x80(%rbx)
 636:	77 e8                	ja     620 <_ZN5Xbyak13CodeGenerator4evexERKNS_3RegES3_PKNS_7OperandEiibbijb+0x620>
 638:	48 8b 7b 68          	mov    0x68(%rbx),%rdi
 63c:	48 8b 73 78          	mov    0x78(%rbx),%rsi
 640:	48 89 44 24 08       	mov    %rax,0x8(%rsp)
 645:	48 8b 17             	mov    (%rdi),%rdx
 648:	ff 52 08             	callq  *0x8(%rdx)
 64b:	48 8b 44 24 08       	mov    0x8(%rsp),%rax
 650:	4c 89 7b 70          	mov    %r15,0x70(%rbx)
 654:	48 8b 93 80 00 00 00 	mov    0x80(%rbx),%rdx
 65b:	48 89 43 78          	mov    %rax,0x78(%rbx)
 65f:	48 8d 4a 01          	lea    0x1(%rdx),%rcx
 663:	45 31 db             	xor    %r11d,%r11d
 666:	45 84 f6             	test   %r14b,%r14b
 669:	44 8b b4 24 90 00 00 	mov    0x90(%rsp),%r14d
 670:	00 
 671:	48 89 8b 80 00 00 00 	mov    %rcx,0x80(%rbx)
 678:	41 0f 95 c3          	setne  %r11b
 67c:	45 31 d2             	xor    %r10d,%r10d
 67f:	40 88 2c 10          	mov    %bpl,(%rax,%rdx,1)
 683:	8b 44 24 04          	mov    0x4(%rsp),%eax
 687:	41 c1 e3 07          	shl    $0x7,%r11d
 68b:	ba 08 00 00 00       	mov    $0x8,%edx
 690:	89 d6                	mov    %edx,%esi
 692:	48 8b 6b 70          	mov    0x70(%rbx),%rbp
 696:	c1 e0 05             	shl    $0x5,%eax
 699:	83 e0 60             	and    $0x60,%eax
 69c:	80 7c 24 29 00       	cmpb   $0x0,0x29(%rsp)
 6a1:	41 0f 95 c2          	setne  %r10b
 6a5:	41 c1 e2 04          	shl    $0x4,%r10d
 6a9:	45 85 ed             	test   %r13d,%r13d
 6ac:	0f 45 74 24 20       	cmovne 0x20(%rsp),%esi
 6b1:	41 83 e6 07          	and    $0x7,%r14d
 6b5:	41 09 c6             	or     %eax,%r14d
 6b8:	48 8b 83 80 00 00 00 	mov    0x80(%rbx),%rax
 6bf:	45 09 de             	or     %r11d,%r14d
 6c2:	45 09 d6             	or     %r10d,%r14d
 6c5:	41 09 f6             	or     %esi,%r14d
 6c8:	48 39 e8             	cmp    %rbp,%rax
 6cb:	0f 82 5f 01 00 00    	jb     830 <_ZN5Xbyak13CodeGenerator4evexERKNS_3RegES3_PKNS_7OperandEiibbijb+0x830>
 6d1:	83 7b 20 03          	cmpl   $0x3,0x20(%rbx)
 6d5:	0f 85 42 03 00 00    	jne    a1d <_ZN5Xbyak13CodeGenerator4evexERKNS_3RegES3_PKNS_7OperandEiibbijb+0xa1d>
 6db:	48 8b 7b 68          	mov    0x68(%rbx),%rdi
 6df:	48 01 ed             	add    %rbp,%rbp
 6e2:	b8 00 10 00 00       	mov    $0x1000,%eax
 6e7:	48 81 fd 00 10 00 00 	cmp    $0x1000,%rbp
 6ee:	48 0f 42 e8          	cmovb  %rax,%rbp
 6f2:	48 8b 07             	mov    (%rdi),%rax
 6f5:	48 89 ee             	mov    %rbp,%rsi
 6f8:	ff 10                	callq  *(%rax)
 6fa:	49 89 c5             	mov    %rax,%r13
 6fd:	48 85 c0             	test   %rax,%rax
 700:	0f 84 1c 03 00 00    	je     a22 <_ZN5Xbyak13CodeGenerator4evexERKNS_3RegES3_PKNS_7OperandEiibbijb+0xa22>
 706:	31 d2                	xor    %edx,%edx
 708:	48 83 bb 80 00 00 00 	cmpq   $0x0,0x80(%rbx)
 70f:	00 
 710:	74 20                	je     732 <_ZN5Xbyak13CodeGenerator4evexERKNS_3RegES3_PKNS_7OperandEiibbijb+0x732>
 712:	66 0f 1f 44 00 00    	nopw   0x0(%rax,%rax,1)
 718:	48 8b 43 78          	mov    0x78(%rbx),%rax
 71c:	0f b6 04 10          	movzbl (%rax,%rdx,1),%eax
 720:	41 88 44 15 00       	mov    %al,0x0(%r13,%rdx,1)
 725:	48 83 c2 01          	add    $0x1,%rdx
 729:	48 39 93 80 00 00 00 	cmp    %rdx,0x80(%rbx)
 730:	77 e6                	ja     718 <_ZN5Xbyak13CodeGenerator4evexERKNS_3RegES3_PKNS_7OperandEiibbijb+0x718>
 732:	48 8b 7b 68          	mov    0x68(%rbx),%rdi
 736:	48 8b 73 78          	mov    0x78(%rbx),%rsi
 73a:	48 8b 07             	mov    (%rdi),%rax
 73d:	ff 50 08             	callq  *0x8(%rax)
 740:	4c 89 6b 78          	mov    %r13,0x78(%rbx)
 744:	48 8b 83 80 00 00 00 	mov    0x80(%rbx),%rax
 74b:	48 89 6b 70          	mov    %rbp,0x70(%rbx)
 74f:	48 8d 50 01          	lea    0x1(%rax),%rdx
 753:	48 89 93 80 00 00 00 	mov    %rdx,0x80(%rbx)
 75a:	45 88 74 05 00       	mov    %r14b,0x0(%r13,%rax,1)
 75f:	48 8b 83 80 00 00 00 	mov    0x80(%rbx),%rax
 766:	48 8b 6b 70          	mov    0x70(%rbx),%rbp
 76a:	48 39 e8             	cmp    %rbp,%rax
 76d:	0f 82 ad 00 00 00    	jb     820 <_ZN5Xbyak13CodeGenerator4evexERKNS_3RegES3_PKNS_7OperandEiibbijb+0x820>
 773:	83 7b 20 03          	cmpl   $0x3,0x20(%rbx)
 777:	0f 85 a0 02 00 00    	jne    a1d <_ZN5Xbyak13CodeGenerator4evexERKNS_3RegES3_PKNS_7OperandEiibbijb+0xa1d>
 77d:	48 8b 7b 68          	mov    0x68(%rbx),%rdi
 781:	48 01 ed             	add    %rbp,%rbp
 784:	b8 00 10 00 00       	mov    $0x1000,%eax
 789:	48 81 fd 00 10 00 00 	cmp    $0x1000,%rbp
 790:	48 0f 42 e8          	cmovb  %rax,%rbp
 794:	48 8b 07             	mov    (%rdi),%rax
 797:	48 89 ee             	mov    %rbp,%rsi
 79a:	ff 10                	callq  *(%rax)
 79c:	49 89 c5             	mov    %rax,%r13
 79f:	48 85 c0             	test   %rax,%rax
 7a2:	0f 84 7a 02 00 00    	je     a22 <_ZN5Xbyak13CodeGenerator4evexERKNS_3RegES3_PKNS_7OperandEiibbijb+0xa22>
 7a8:	31 d2                	xor    %edx,%edx
 7aa:	48 83 bb 80 00 00 00 	cmpq   $0x0,0x80(%rbx)
 7b1:	00 
 7b2:	74 1e                	je     7d2 <_ZN5Xbyak13CodeGenerator4evexERKNS_3RegES3_PKNS_7OperandEiibbijb+0x7d2>
 7b4:	0f 1f 40 00          	nopl   0x0(%rax)
 7b8:	48 8b 43 78          	mov    0x78(%rbx),%rax
 7bc:	0f b6 04 10          	movzbl (%rax,%rdx,1),%eax
 7c0:	41 88 44 15 00       	mov    %al,0x0(%r13,%rdx,1)
 7c5:	48 83 c2 01          	add    $0x1,%rdx
 7c9:	48 39 93 80 00 00 00 	cmp    %rdx,0x80(%rbx)
 7d0:	77 e6                	ja     7b8 <_ZN5Xbyak13CodeGenerator4evexERKNS_3RegES3_PKNS_7OperandEiibbijb+0x7b8>
 7d2:	48 8b 7b 68          	mov    0x68(%rbx),%rdi
 7d6:	48 8b 73 78          	mov    0x78(%rbx),%rsi
 7da:	48 8b 07             	mov    (%rdi),%rax
 7dd:	ff 50 08             	callq  *0x8(%rax)
 7e0:	4c 89 6b 78          	mov    %r13,0x78(%rbx)
 7e4:	48 8b 83 80 00 00 00 	mov    0x80(%rbx),%rax
 7eb:	48 89 6b 70          	mov    %rbp,0x70(%rbx)
 7ef:	0f b6 74 24 2c       	movzbl 0x2c(%rsp),%esi
 7f4:	48 8d 50 01          	lea    0x1(%rax),%rdx
 7f8:	48 89 93 80 00 00 00 	mov    %rdx,0x80(%rbx)
 7ff:	41 88 74 05 00       	mov    %sil,0x0(%r13,%rax,1)
 804:	48 83 c4 48          	add    $0x48,%rsp
 808:	44 89 e0             	mov    %r12d,%eax
 80b:	5b                   	pop    %rbx
 80c:	5d                   	pop    %rbp
 80d:	41 5c                	pop    %r12
 80f:	41 5d                	pop    %r13
 811:	41 5e                	pop    %r14
 813:	41 5f                	pop    %r15
 815:	c3                   	retq   
 816:	66 2e 0f 1f 84 00 00 	nopw   %cs:0x0(%rax,%rax,1)
 81d:	00 00 00 
 820:	4c 8b 6b 78          	mov    0x78(%rbx),%r13
 824:	eb c9                	jmp    7ef <_ZN5Xbyak13CodeGenerator4evexERKNS_3RegES3_PKNS_7OperandEiibbijb+0x7ef>
 826:	66 2e 0f 1f 84 00 00 	nopw   %cs:0x0(%rax,%rax,1)
 82d:	00 00 00 
 830:	4c 8b 6b 78          	mov    0x78(%rbx),%r13
 834:	e9 16 ff ff ff       	jmpq   74f <_ZN5Xbyak13CodeGenerator4evexERKNS_3RegES3_PKNS_7OperandEiibbijb+0x74f>
 839:	0f 1f 80 00 00 00 00 	nopl   0x0(%rax)
 840:	48 8b 43 78          	mov    0x78(%rbx),%rax
 844:	e9 16 fe ff ff       	jmpq   65f <_ZN5Xbyak13CodeGenerator4evexERKNS_3RegES3_PKNS_7OperandEiibbijb+0x65f>
 849:	0f 1f 80 00 00 00 00 	nopl   0x0(%rax)
 850:	48 8b 43 78          	mov    0x78(%rbx),%rax
 854:	e9 41 fd ff ff       	jmpq   59a <_ZN5Xbyak13CodeGenerator4evexERKNS_3RegES3_PKNS_7OperandEiibbijb+0x59a>
 859:	0f 1f 80 00 00 00 00 	nopl   0x0(%rax)
 860:	48 8b 43 78          	mov    0x78(%rbx),%rax
 864:	e9 41 fc ff ff       	jmpq   4aa <_ZN5Xbyak13CodeGenerator4evexERKNS_3RegES3_PKNS_7OperandEiibbijb+0x4aa>
 869:	0f 1f 80 00 00 00 00 	nopl   0x0(%rax)
 870:	41 be 01 00 00 00    	mov    $0x1,%r14d
 876:	e9 84 fb ff ff       	jmpq   3ff <_ZN5Xbyak13CodeGenerator4evexERKNS_3RegES3_PKNS_7OperandEiibbijb+0x3ff>
 87b:	0f 1f 44 00 00       	nopl   0x0(%rax,%rax,1)
 880:	84 c9                	test   %cl,%cl
 882:	74 4c                	je     8d0 <_ZN5Xbyak13CodeGenerator4evexERKNS_3RegES3_PKNS_7OperandEiibbijb+0x8d0>
 884:	c7 44 24 24 ff ff ff 	movl   $0xffffffff,0x24(%rsp)
 88b:	ff 
 88c:	45 31 e4             	xor    %r12d,%r12d
 88f:	31 c9                	xor    %ecx,%ecx
 891:	c6 44 24 2a 00       	movb   $0x0,0x2a(%rsp)
 896:	e9 7d f8 ff ff       	jmpq   118 <_ZN5Xbyak13CodeGenerator4evexERKNS_3RegES3_PKNS_7OperandEiibbijb+0x118>
 89b:	0f 1f 44 00 00       	nopl   0x0(%rax,%rax,1)
 8a0:	41 f6 c0 10          	test   $0x10,%r8b
 8a4:	74 4a                	je     8f0 <_ZN5Xbyak13CodeGenerator4evexERKNS_3RegES3_PKNS_7OperandEiibbijb+0x8f0>
 8a6:	41 bc 08 00 00 00    	mov    $0x8,%r12d
 8ac:	3d 80 00 00 00       	cmp    $0x80,%eax
 8b1:	0f 84 23 f9 ff ff    	je     1da <_ZN5Xbyak13CodeGenerator4evexERKNS_3RegES3_PKNS_7OperandEiibbijb+0x1da>
 8b7:	3d 00 01 00 00       	cmp    $0x100,%eax
 8bc:	41 bc 20 00 00 00    	mov    $0x20,%r12d
 8c2:	b8 40 00 00 00       	mov    $0x40,%eax
 8c7:	44 0f 45 e0          	cmovne %eax,%r12d
 8cb:	e9 0a f9 ff ff       	jmpq   1da <_ZN5Xbyak13CodeGenerator4evexERKNS_3RegES3_PKNS_7OperandEiibbijb+0x1da>
 8d0:	c0 e8 04             	shr    $0x4,%al
 8d3:	c7 44 24 24 ff ff ff 	movl   $0xffffffff,0x24(%rsp)
 8da:	ff 
 8db:	31 c9                	xor    %ecx,%ecx
 8dd:	83 f0 01             	xor    $0x1,%eax
 8e0:	83 e0 01             	and    $0x1,%eax
 8e3:	88 44 24 2a          	mov    %al,0x2a(%rsp)
 8e7:	e9 2c f8 ff ff       	jmpq   118 <_ZN5Xbyak13CodeGenerator4evexERKNS_3RegES3_PKNS_7OperandEiibbijb+0x118>
 8ec:	0f 1f 40 00          	nopl   0x0(%rax)
 8f0:	44 89 c1             	mov    %r8d,%ecx
 8f3:	41 bc 01 00 00 00    	mov    $0x1,%r12d
 8f9:	83 c9 0d             	or     $0xd,%ecx
 8fc:	41 f6 c0 0f          	test   $0xf,%r8b
 900:	44 0f 44 c1          	cmove  %ecx,%r8d
 904:	44 89 c1             	mov    %r8d,%ecx
 907:	83 e1 07             	and    $0x7,%ecx
 90a:	0f 84 ca f8 ff ff    	je     1da <_ZN5Xbyak13CodeGenerator4evexERKNS_3RegES3_PKNS_7OperandEiibbijb+0x1da>
 910:	83 e9 01             	sub    $0x1,%ecx
 913:	41 d3 e4             	shl    %cl,%r12d
 916:	41 83 e0 08          	and    $0x8,%r8d
 91a:	0f 84 ba f8 ff ff    	je     1da <_ZN5Xbyak13CodeGenerator4evexERKNS_3RegES3_PKNS_7OperandEiibbijb+0x1da>
 920:	3d 00 02 00 00       	cmp    $0x200,%eax
 925:	0f 84 a5 00 00 00    	je     9d0 <_ZN5Xbyak13CodeGenerator4evexERKNS_3RegES3_PKNS_7OperandEiibbijb+0x9d0>
 92b:	41 b8 02 00 00 00    	mov    $0x2,%r8d
 931:	41 d3 e0             	shl    %cl,%r8d
 934:	3d 00 01 00 00       	cmp    $0x100,%eax
 939:	45 0f 44 e0          	cmove  %r8d,%r12d
 93d:	e9 98 f8 ff ff       	jmpq   1da <_ZN5Xbyak13CodeGenerator4evexERKNS_3RegES3_PKNS_7OperandEiibbijb+0x1da>
 942:	66 0f 1f 44 00 00    	nopw   0x0(%rax,%rax,1)
 948:	8b 84 24 90 00 00 00 	mov    0x90(%rsp),%eax
 94f:	45 31 f6             	xor    %r14d,%r14d
 952:	85 c0                	test   %eax,%eax
 954:	0f 85 a5 fa ff ff    	jne    3ff <_ZN5Xbyak13CodeGenerator4evexERKNS_3RegES3_PKNS_7OperandEiibbijb+0x3ff>
 95a:	31 c9                	xor    %ecx,%ecx
 95c:	31 f6                	xor    %esi,%esi
 95e:	45 31 f6             	xor    %r14d,%r14d
 961:	e9 2b fa ff ff       	jmpq   391 <_ZN5Xbyak13CodeGenerator4evexERKNS_3RegES3_PKNS_7OperandEiibbijb+0x391>
 966:	66 2e 0f 1f 84 00 00 	nopw   %cs:0x0(%rax,%rax,1)
 96d:	00 00 00 
 970:	41 f7 c0 00 00 40 00 	test   $0x400000,%r8d
 977:	74 07                	je     980 <_ZN5Xbyak13CodeGenerator4evexERKNS_3RegES3_PKNS_7OperandEiibbijb+0x980>
 979:	66 f7 02 00 04       	testw  $0x400,(%rdx)
 97e:	75 28                	jne    9a8 <_ZN5Xbyak13CodeGenerator4evexERKNS_3RegES3_PKNS_7OperandEiibbijb+0x9a8>
 980:	41 f7 c0 00 00 80 00 	test   $0x800000,%r8d
 987:	74 07                	je     990 <_ZN5Xbyak13CodeGenerator4evexERKNS_3RegES3_PKNS_7OperandEiibbijb+0x990>
 989:	66 f7 02 00 08       	testw  $0x800,(%rdx)
 98e:	75 18                	jne    9a8 <_ZN5Xbyak13CodeGenerator4evexERKNS_3RegES3_PKNS_7OperandEiibbijb+0x9a8>
 990:	41 81 e0 00 00 00 01 	and    $0x1000000,%r8d
 997:	0f 84 94 00 00 00    	je     a31 <_ZN5Xbyak13CodeGenerator4evexERKNS_3RegES3_PKNS_7OperandEiibbijb+0xa31>
 99d:	66 f7 02 00 10       	testw  $0x1000,(%rdx)
 9a2:	0f 84 89 00 00 00    	je     a31 <_ZN5Xbyak13CodeGenerator4evexERKNS_3RegES3_PKNS_7OperandEiibbijb+0xa31>
 9a8:	c7 44 24 04 00 00 00 	movl   $0x0,0x4(%rsp)
 9af:	00 
 9b0:	41 bc 01 00 00 00    	mov    $0x1,%r12d
 9b6:	c6 44 24 29 01       	movb   $0x1,0x29(%rsp)
 9bb:	e9 1a f8 ff ff       	jmpq   1da <_ZN5Xbyak13CodeGenerator4evexERKNS_3RegES3_PKNS_7OperandEiibbijb+0x1da>
 9c0:	31 c9                	xor    %ecx,%ecx
 9c2:	31 f6                	xor    %esi,%esi
 9c4:	41 be 01 00 00 00    	mov    $0x1,%r14d
 9ca:	e9 c2 f9 ff ff       	jmpq   391 <_ZN5Xbyak13CodeGenerator4evexERKNS_3RegES3_PKNS_7OperandEiibbijb+0x391>
 9cf:	90                   	nop
 9d0:	41 bc 04 00 00 00    	mov    $0x4,%r12d
 9d6:	41 d3 e4             	shl    %cl,%r12d
 9d9:	e9 fc f7 ff ff       	jmpq   1da <_ZN5Xbyak13CodeGenerator4evexERKNS_3RegES3_PKNS_7OperandEiibbijb+0x1da>
 9de:	bf 10 00 00 00       	mov    $0x10,%edi
 9e3:	e8 00 00 00 00       	callq  9e8 <_ZN5Xbyak13CodeGenerator4evexERKNS_3RegES3_PKNS_7OperandEiibbijb+0x9e8>
 9e8:	48 8b 15 00 00 00 00 	mov    0x0(%rip),%rdx        # 9ef <_ZN5Xbyak13CodeGenerator4evexERKNS_3RegES3_PKNS_7OperandEiibbijb+0x9ef>
 9ef:	48 8b 35 00 00 00 00 	mov    0x0(%rip),%rsi        # 9f6 <_ZN5Xbyak13CodeGenerator4evexERKNS_3RegES3_PKNS_7OperandEiibbijb+0x9f6>
 9f6:	48 89 c7             	mov    %rax,%rdi
 9f9:	48 8b 05 00 00 00 00 	mov    0x0(%rip),%rax        # a00 <_ZN5Xbyak13CodeGenerator4evexERKNS_3RegES3_PKNS_7OperandEiibbijb+0xa00>
 a00:	c7 47 08 24 00 00 00 	movl   $0x24,0x8(%rdi)
 a07:	48 83 c0 10          	add    $0x10,%rax
 a0b:	48 89 07             	mov    %rax,(%rdi)
 a0e:	e8 00 00 00 00       	callq  a13 <_ZN5Xbyak13CodeGenerator4evexERKNS_3RegES3_PKNS_7OperandEiibbijb+0xa13>
 a13:	bf 22 00 00 00       	mov    $0x22,%edi
 a18:	e8 00 00 00 00       	callq  a1d <_ZN5Xbyak13CodeGenerator4evexERKNS_3RegES3_PKNS_7OperandEiibbijb+0xa1d>
 a1d:	e8 00 00 00 00       	callq  a22 <_ZN5Xbyak13CodeGenerator4evexERKNS_3RegES3_PKNS_7OperandEiibbijb+0xa22>
 a22:	e8 00 00 00 00       	callq  a27 <_ZN5Xbyak13CodeGenerator4evexERKNS_3RegES3_PKNS_7OperandEiibbijb+0xa27>
 a27:	bf 21 00 00 00       	mov    $0x21,%edi
 a2c:	e8 00 00 00 00       	callq  a31 <_ZN5Xbyak13CodeGenerator4evexERKNS_3RegES3_PKNS_7OperandEiibbijb+0xa31>
 a31:	bf 10 00 00 00       	mov    $0x10,%edi
 a36:	e8 00 00 00 00       	callq  a3b <_ZN5Xbyak13CodeGenerator4evexERKNS_3RegES3_PKNS_7OperandEiibbijb+0xa3b>
 a3b:	48 8b 15 00 00 00 00 	mov    0x0(%rip),%rdx        # a42 <_ZN5Xbyak13CodeGenerator4evexERKNS_3RegES3_PKNS_7OperandEiibbijb+0xa42>
 a42:	48 8b 35 00 00 00 00 	mov    0x0(%rip),%rsi        # a49 <_ZN5Xbyak13CodeGenerator4evexERKNS_3RegES3_PKNS_7OperandEiibbijb+0xa49>
 a49:	48 89 c7             	mov    %rax,%rdi
 a4c:	48 8b 05 00 00 00 00 	mov    0x0(%rip),%rax        # a53 <_ZN5Xbyak13CodeGenerator4evexERKNS_3RegES3_PKNS_7OperandEiibbijb+0xa53>
 a53:	c7 47 08 25 00 00 00 	movl   $0x25,0x8(%rdi)
 a5a:	48 83 c0 10          	add    $0x10,%rax
 a5e:	48 89 07             	mov    %rax,(%rdi)
 a61:	e8 00 00 00 00       	callq  a66 <_GLOBAL__sub_I_mcl.cpp.cold+0x736>

Disassembly of section .text._ZNSt10_HashtableINSt7__cxx1112basic_stringIcSt11char_traitsIcESaIcEEESt4pairIKS5_N5Xbyak12LabelManager9SlabelValEESaISB_ENSt8__detail10_Select1stESt8equal_toIS5_ESt4hashIS5_ENSD_18_Mod_range_hashingENSD_20_Default_ranged_hashENSD_20_Prime_rehash_policyENSD_17_Hashtable_traitsILb1ELb0ELb1EEEED2Ev:

0000000000000000 <_ZNSt10_HashtableINSt7__cxx1112basic_stringIcSt11char_traitsIcESaIcEEESt4pairIKS5_N5Xbyak12LabelManager9SlabelValEESaISB_ENSt8__detail10_Select1stESt8equal_toIS5_ESt4hashIS5_ENSD_18_Mod_range_hashingENSD_20_Default_ranged_hashENSD_20_Prime_rehash_policyENSD_17_Hashtable_traitsILb1ELb0ELb1EEEED1Ev>:
   0:	f3 0f 1e fa          	endbr64 
   4:	41 54                	push   %r12
   6:	55                   	push   %rbp
   7:	53                   	push   %rbx
   8:	48 8b 6f 10          	mov    0x10(%rdi),%rbp
   c:	48 89 fb             	mov    %rdi,%rbx
   f:	48 85 ed             	test   %rbp,%rbp
  12:	75 21                	jne    35 <_ZNSt10_HashtableINSt7__cxx1112basic_stringIcSt11char_traitsIcESaIcEEESt4pairIKS5_N5Xbyak12LabelManager9SlabelValEESaISB_ENSt8__detail10_Select1stESt8equal_toIS5_ESt4hashIS5_ENSD_18_Mod_range_hashingENSD_20_Default_ranged_hashENSD_20_Prime_rehash_policyENSD_17_Hashtable_traitsILb1ELb0ELb1EEEED1Ev+0x35>
  14:	eb 3d                	jmp    53 <_ZNSt10_HashtableINSt7__cxx1112basic_stringIcSt11char_traitsIcESaIcEEESt4pairIKS5_N5Xbyak12LabelManager9SlabelValEESaISB_ENSt8__detail10_Select1stESt8equal_toIS5_ESt4hashIS5_ENSD_18_Mod_range_hashingENSD_20_Default_ranged_hashENSD_20_Prime_rehash_policyENSD_17_Hashtable_traitsILb1ELb0ELb1EEEED1Ev+0x53>
  16:	66 2e 0f 1f 84 00 00 	nopw   %cs:0x0(%rax,%rax,1)
  1d:	00 00 00 
  20:	e8 00 00 00 00       	callq  25 <_ZNSt10_HashtableINSt7__cxx1112basic_stringIcSt11char_traitsIcESaIcEEESt4pairIKS5_N5Xbyak12LabelManager9SlabelValEESaISB_ENSt8__detail10_Select1stESt8equal_toIS5_ESt4hashIS5_ENSD_18_Mod_range_hashingENSD_20_Default_ranged_hashENSD_20_Prime_rehash_policyENSD_17_Hashtable_traitsILb1ELb0ELb1EEEED1Ev+0x25>
  25:	48 89 ef             	mov    %rbp,%rdi
  28:	e8 00 00 00 00       	callq  2d <_ZNSt10_HashtableINSt7__cxx1112basic_stringIcSt11char_traitsIcESaIcEEESt4pairIKS5_N5Xbyak12LabelManager9SlabelValEESaISB_ENSt8__detail10_Select1stESt8equal_toIS5_ESt4hashIS5_ENSD_18_Mod_range_hashingENSD_20_Default_ranged_hashENSD_20_Prime_rehash_policyENSD_17_Hashtable_traitsILb1ELb0ELb1EEEED1Ev+0x2d>
  2d:	4d 85 e4             	test   %r12,%r12
  30:	74 21                	je     53 <_ZNSt10_HashtableINSt7__cxx1112basic_stringIcSt11char_traitsIcESaIcEEESt4pairIKS5_N5Xbyak12LabelManager9SlabelValEESaISB_ENSt8__detail10_Select1stESt8equal_toIS5_ESt4hashIS5_ENSD_18_Mod_range_hashingENSD_20_Default_ranged_hashENSD_20_Prime_rehash_policyENSD_17_Hashtable_traitsILb1ELb0ELb1EEEED1Ev+0x53>
  32:	4c 89 e5             	mov    %r12,%rbp
  35:	48 8b 7d 08          	mov    0x8(%rbp),%rdi
  39:	48 8d 45 18          	lea    0x18(%rbp),%rax
  3d:	4c 8b 65 00          	mov    0x0(%rbp),%r12
  41:	48 39 c7             	cmp    %rax,%rdi
  44:	75 da                	jne    20 <_ZNSt10_HashtableINSt7__cxx1112basic_stringIcSt11char_traitsIcESaIcEEESt4pairIKS5_N5Xbyak12LabelManager9SlabelValEESaISB_ENSt8__detail10_Select1stESt8equal_toIS5_ESt4hashIS5_ENSD_18_Mod_range_hashingENSD_20_Default_ranged_hashENSD_20_Prime_rehash_policyENSD_17_Hashtable_traitsILb1ELb0ELb1EEEED1Ev+0x20>
  46:	48 89 ef             	mov    %rbp,%rdi
  49:	e8 00 00 00 00       	callq  4e <_ZNSt10_HashtableINSt7__cxx1112basic_stringIcSt11char_traitsIcESaIcEEESt4pairIKS5_N5Xbyak12LabelManager9SlabelValEESaISB_ENSt8__detail10_Select1stESt8equal_toIS5_ESt4hashIS5_ENSD_18_Mod_range_hashingENSD_20_Default_ranged_hashENSD_20_Prime_rehash_policyENSD_17_Hashtable_traitsILb1ELb0ELb1EEEED1Ev+0x4e>
  4e:	4d 85 e4             	test   %r12,%r12
  51:	75 df                	jne    32 <_ZNSt10_HashtableINSt7__cxx1112basic_stringIcSt11char_traitsIcESaIcEEESt4pairIKS5_N5Xbyak12LabelManager9SlabelValEESaISB_ENSt8__detail10_Select1stESt8equal_toIS5_ESt4hashIS5_ENSD_18_Mod_range_hashingENSD_20_Default_ranged_hashENSD_20_Prime_rehash_policyENSD_17_Hashtable_traitsILb1ELb0ELb1EEEED1Ev+0x32>
  53:	48 8b 43 08          	mov    0x8(%rbx),%rax
  57:	48 8b 3b             	mov    (%rbx),%rdi
  5a:	31 f6                	xor    %esi,%esi
  5c:	48 83 c3 30          	add    $0x30,%rbx
  60:	48 8d 14 c5 00 00 00 	lea    0x0(,%rax,8),%rdx
  67:	00 
  68:	e8 00 00 00 00       	callq  6d <_ZNSt10_HashtableINSt7__cxx1112basic_stringIcSt11char_traitsIcESaIcEEESt4pairIKS5_N5Xbyak12LabelManager9SlabelValEESaISB_ENSt8__detail10_Select1stESt8equal_toIS5_ESt4hashIS5_ENSD_18_Mod_range_hashingENSD_20_Default_ranged_hashENSD_20_Prime_rehash_policyENSD_17_Hashtable_traitsILb1ELb0ELb1EEEED1Ev+0x6d>
  6d:	48 8b 7b d0          	mov    -0x30(%rbx),%rdi
  71:	48 c7 43 e8 00 00 00 	movq   $0x0,-0x18(%rbx)
  78:	00 
  79:	48 c7 43 e0 00 00 00 	movq   $0x0,-0x20(%rbx)
  80:	00 
  81:	48 39 df             	cmp    %rbx,%rdi
  84:	74 0a                	je     90 <_ZNSt10_HashtableINSt7__cxx1112basic_stringIcSt11char_traitsIcESaIcEEESt4pairIKS5_N5Xbyak12LabelManager9SlabelValEESaISB_ENSt8__detail10_Select1stESt8equal_toIS5_ESt4hashIS5_ENSD_18_Mod_range_hashingENSD_20_Default_ranged_hashENSD_20_Prime_rehash_policyENSD_17_Hashtable_traitsILb1ELb0ELb1EEEED1Ev+0x90>
  86:	5b                   	pop    %rbx
  87:	5d                   	pop    %rbp
  88:	41 5c                	pop    %r12
  8a:	e9 00 00 00 00       	jmpq   8f <_ZNSt10_HashtableINSt7__cxx1112basic_stringIcSt11char_traitsIcESaIcEEESt4pairIKS5_N5Xbyak12LabelManager9SlabelValEESaISB_ENSt8__detail10_Select1stESt8equal_toIS5_ESt4hashIS5_ENSD_18_Mod_range_hashingENSD_20_Default_ranged_hashENSD_20_Prime_rehash_policyENSD_17_Hashtable_traitsILb1ELb0ELb1EEEED1Ev+0x8f>
  8f:	90                   	nop
  90:	5b                   	pop    %rbx
  91:	5d                   	pop    %rbp
  92:	41 5c                	pop    %r12
  94:	c3                   	retq   

Disassembly of section .text._ZNSt10_HashtableINSt7__cxx1112basic_stringIcSt11char_traitsIcESaIcEEESt4pairIKS5_KN5Xbyak8JmpLabelEESaISB_ENSt8__detail10_Select1stESt8equal_toIS5_ESt4hashIS5_ENSD_18_Mod_range_hashingENSD_20_Default_ranged_hashENSD_20_Prime_rehash_policyENSD_17_Hashtable_traitsILb1ELb0ELb0EEEED2Ev:

0000000000000000 <_ZNSt10_HashtableINSt7__cxx1112basic_stringIcSt11char_traitsIcESaIcEEESt4pairIKS5_KN5Xbyak8JmpLabelEESaISB_ENSt8__detail10_Select1stESt8equal_toIS5_ESt4hashIS5_ENSD_18_Mod_range_hashingENSD_20_Default_ranged_hashENSD_20_Prime_rehash_policyENSD_17_Hashtable_traitsILb1ELb0ELb0EEEED1Ev>:
   0:	f3 0f 1e fa          	endbr64 
   4:	41 54                	push   %r12
   6:	55                   	push   %rbp
   7:	53                   	push   %rbx
   8:	48 8b 6f 10          	mov    0x10(%rdi),%rbp
   c:	48 89 fb             	mov    %rdi,%rbx
   f:	48 85 ed             	test   %rbp,%rbp
  12:	75 21                	jne    35 <_ZNSt10_HashtableINSt7__cxx1112basic_stringIcSt11char_traitsIcESaIcEEESt4pairIKS5_KN5Xbyak8JmpLabelEESaISB_ENSt8__detail10_Select1stESt8equal_toIS5_ESt4hashIS5_ENSD_18_Mod_range_hashingENSD_20_Default_ranged_hashENSD_20_Prime_rehash_policyENSD_17_Hashtable_traitsILb1ELb0ELb0EEEED1Ev+0x35>
  14:	eb 3d                	jmp    53 <_ZNSt10_HashtableINSt7__cxx1112basic_stringIcSt11char_traitsIcESaIcEEESt4pairIKS5_KN5Xbyak8JmpLabelEESaISB_ENSt8__detail10_Select1stESt8equal_toIS5_ESt4hashIS5_ENSD_18_Mod_range_hashingENSD_20_Default_ranged_hashENSD_20_Prime_rehash_policyENSD_17_Hashtable_traitsILb1ELb0ELb0EEEED1Ev+0x53>
  16:	66 2e 0f 1f 84 00 00 	nopw   %cs:0x0(%rax,%rax,1)
  1d:	00 00 00 
  20:	e8 00 00 00 00       	callq  25 <_ZNSt10_HashtableINSt7__cxx1112basic_stringIcSt11char_traitsIcESaIcEEESt4pairIKS5_KN5Xbyak8JmpLabelEESaISB_ENSt8__detail10_Select1stESt8equal_toIS5_ESt4hashIS5_ENSD_18_Mod_range_hashingENSD_20_Default_ranged_hashENSD_20_Prime_rehash_policyENSD_17_Hashtable_traitsILb1ELb0ELb0EEEED1Ev+0x25>
  25:	48 89 ef             	mov    %rbp,%rdi
  28:	e8 00 00 00 00       	callq  2d <_ZNSt10_HashtableINSt7__cxx1112basic_stringIcSt11char_traitsIcESaIcEEESt4pairIKS5_KN5Xbyak8JmpLabelEESaISB_ENSt8__detail10_Select1stESt8equal_toIS5_ESt4hashIS5_ENSD_18_Mod_range_hashingENSD_20_Default_ranged_hashENSD_20_Prime_rehash_policyENSD_17_Hashtable_traitsILb1ELb0ELb0EEEED1Ev+0x2d>
  2d:	4d 85 e4             	test   %r12,%r12
  30:	74 21                	je     53 <_ZNSt10_HashtableINSt7__cxx1112basic_stringIcSt11char_traitsIcESaIcEEESt4pairIKS5_KN5Xbyak8JmpLabelEESaISB_ENSt8__detail10_Select1stESt8equal_toIS5_ESt4hashIS5_ENSD_18_Mod_range_hashingENSD_20_Default_ranged_hashENSD_20_Prime_rehash_policyENSD_17_Hashtable_traitsILb1ELb0ELb0EEEED1Ev+0x53>
  32:	4c 89 e5             	mov    %r12,%rbp
  35:	48 8b 7d 08          	mov    0x8(%rbp),%rdi
  39:	48 8d 45 18          	lea    0x18(%rbp),%rax
  3d:	4c 8b 65 00          	mov    0x0(%rbp),%r12
  41:	48 39 c7             	cmp    %rax,%rdi
  44:	75 da                	jne    20 <_ZNSt10_HashtableINSt7__cxx1112basic_stringIcSt11char_traitsIcESaIcEEESt4pairIKS5_KN5Xbyak8JmpLabelEESaISB_ENSt8__detail10_Select1stESt8equal_toIS5_ESt4hashIS5_ENSD_18_Mod_range_hashingENSD_20_Default_ranged_hashENSD_20_Prime_rehash_policyENSD_17_Hashtable_traitsILb1ELb0ELb0EEEED1Ev+0x20>
  46:	48 89 ef             	mov    %rbp,%rdi
  49:	e8 00 00 00 00       	callq  4e <_ZNSt10_HashtableINSt7__cxx1112basic_stringIcSt11char_traitsIcESaIcEEESt4pairIKS5_KN5Xbyak8JmpLabelEESaISB_ENSt8__detail10_Select1stESt8equal_toIS5_ESt4hashIS5_ENSD_18_Mod_range_hashingENSD_20_Default_ranged_hashENSD_20_Prime_rehash_policyENSD_17_Hashtable_traitsILb1ELb0ELb0EEEED1Ev+0x4e>
  4e:	4d 85 e4             	test   %r12,%r12
  51:	75 df                	jne    32 <_ZNSt10_HashtableINSt7__cxx1112basic_stringIcSt11char_traitsIcESaIcEEESt4pairIKS5_KN5Xbyak8JmpLabelEESaISB_ENSt8__detail10_Select1stESt8equal_toIS5_ESt4hashIS5_ENSD_18_Mod_range_hashingENSD_20_Default_ranged_hashENSD_20_Prime_rehash_policyENSD_17_Hashtable_traitsILb1ELb0ELb0EEEED1Ev+0x32>
  53:	48 8b 43 08          	mov    0x8(%rbx),%rax
  57:	48 8b 3b             	mov    (%rbx),%rdi
  5a:	31 f6                	xor    %esi,%esi
  5c:	48 83 c3 30          	add    $0x30,%rbx
  60:	48 8d 14 c5 00 00 00 	lea    0x0(,%rax,8),%rdx
  67:	00 
  68:	e8 00 00 00 00       	callq  6d <_ZNSt10_HashtableINSt7__cxx1112basic_stringIcSt11char_traitsIcESaIcEEESt4pairIKS5_KN5Xbyak8JmpLabelEESaISB_ENSt8__detail10_Select1stESt8equal_toIS5_ESt4hashIS5_ENSD_18_Mod_range_hashingENSD_20_Default_ranged_hashENSD_20_Prime_rehash_policyENSD_17_Hashtable_traitsILb1ELb0ELb0EEEED1Ev+0x6d>
  6d:	48 8b 7b d0          	mov    -0x30(%rbx),%rdi
  71:	48 c7 43 e8 00 00 00 	movq   $0x0,-0x18(%rbx)
  78:	00 
  79:	48 c7 43 e0 00 00 00 	movq   $0x0,-0x20(%rbx)
  80:	00 
  81:	48 39 df             	cmp    %rbx,%rdi
  84:	74 0a                	je     90 <_ZNSt10_HashtableINSt7__cxx1112basic_stringIcSt11char_traitsIcESaIcEEESt4pairIKS5_KN5Xbyak8JmpLabelEESaISB_ENSt8__detail10_Select1stESt8equal_toIS5_ESt4hashIS5_ENSD_18_Mod_range_hashingENSD_20_Default_ranged_hashENSD_20_Prime_rehash_policyENSD_17_Hashtable_traitsILb1ELb0ELb0EEEED1Ev+0x90>
  86:	5b                   	pop    %rbx
  87:	5d                   	pop    %rbp
  88:	41 5c                	pop    %r12
  8a:	e9 00 00 00 00       	jmpq   8f <_ZNSt10_HashtableINSt7__cxx1112basic_stringIcSt11char_traitsIcESaIcEEESt4pairIKS5_KN5Xbyak8JmpLabelEESaISB_ENSt8__detail10_Select1stESt8equal_toIS5_ESt4hashIS5_ENSD_18_Mod_range_hashingENSD_20_Default_ranged_hashENSD_20_Prime_rehash_policyENSD_17_Hashtable_traitsILb1ELb0ELb0EEEED1Ev+0x8f>
  8f:	90                   	nop
  90:	5b                   	pop    %rbx
  91:	5d                   	pop    %rbp
  92:	41 5c                	pop    %r12
  94:	c3                   	retq   

Disassembly of section .text._ZN3mcl2fp10strToArrayImEEmPbPT_mPKcmi:

0000000000000000 <_ZN3mcl2fp10strToArrayImEEmPbPT_mPKcmi>:
   0:	f3 0f 1e fa          	endbr64 
   4:	4d 85 c0             	test   %r8,%r8
   7:	0f 84 6b 08 00 00    	je     878 <_ZN3mcl2fp10strToArrayImEEmPbPT_mPKcmi+0x878>
   d:	44 89 c8             	mov    %r9d,%eax
  10:	41 54                	push   %r12
  12:	49 89 fa             	mov    %rdi,%r10
  15:	48 89 f7             	mov    %rsi,%rdi
  18:	55                   	push   %rbp
  19:	83 e0 1f             	and    $0x1f,%eax
  1c:	48 89 d6             	mov    %rdx,%rsi
  1f:	48 89 ca             	mov    %rcx,%rdx
  22:	53                   	push   %rbx
  23:	80 39 2d             	cmpb   $0x2d,(%rcx)
  26:	74 30                	je     58 <_ZN3mcl2fp10strToArrayImEEmPbPT_mPKcmi+0x58>
  28:	41 c6 02 00          	movb   $0x0,(%r10)
  2c:	80 39 30             	cmpb   $0x30,(%rcx)
  2f:	0f 84 f3 07 00 00    	je     828 <_ZN3mcl2fp10strToArrayImEEmPbPT_mPKcmi+0x828>
  35:	45 31 db             	xor    %r11d,%r11d
  38:	31 c9                	xor    %ecx,%ecx
  3a:	85 c0                	test   %eax,%eax
  3c:	0f 85 ce 09 00 00    	jne    a10 <_ZN3mcl2fp10strToArrayImEEmPbPT_mPKcmi+0xa10>
  42:	4c 89 c1             	mov    %r8,%rcx
  45:	5b                   	pop    %rbx
  46:	5d                   	pop    %rbp
  47:	4c 29 d9             	sub    %r11,%rcx
  4a:	41 5c                	pop    %r12
  4c:	e9 00 00 00 00       	jmpq   51 <_ZN3mcl2fp10strToArrayImEEmPbPT_mPKcmi+0x51>
  51:	0f 1f 80 00 00 00 00 	nopl   0x0(%rax)
  58:	49 83 f8 01          	cmp    $0x1,%r8
  5c:	0f 84 06 08 00 00    	je     868 <_ZN3mcl2fp10strToArrayImEEmPbPT_mPKcmi+0x868>
  62:	41 c6 02 01          	movb   $0x1,(%r10)
  66:	80 79 01 30          	cmpb   $0x30,0x1(%rcx)
  6a:	4c 8d 51 01          	lea    0x1(%rcx),%r10
  6e:	0f 84 ec 09 00 00    	je     a60 <_ZN3mcl2fp10strToArrayImEEmPbPT_mPKcmi+0xa60>
  74:	85 c0                	test   %eax,%eax
  76:	0f 84 a8 0a 00 00    	je     b24 <_ZN3mcl2fp10strToArrayImEEmPbPT_mPKcmi+0xb24>
  7c:	b9 01 00 00 00       	mov    $0x1,%ecx
  81:	83 f8 02             	cmp    $0x2,%eax
  84:	0f 84 06 08 00 00    	je     890 <_ZN3mcl2fp10strToArrayImEEmPbPT_mPKcmi+0x890>
  8a:	41 83 e1 1e          	and    $0x1e,%r9d
  8e:	0f 84 d4 07 00 00    	je     868 <_ZN3mcl2fp10strToArrayImEEmPbPT_mPKcmi+0x868>
  94:	83 f8 0a             	cmp    $0xa,%eax
  97:	0f 84 7c 0a 00 00    	je     b19 <_ZN3mcl2fp10strToArrayImEEmPbPT_mPKcmi+0xb19>
  9d:	83 f8 10             	cmp    $0x10,%eax
  a0:	0f 85 c2 07 00 00    	jne    868 <_ZN3mcl2fp10strToArrayImEEmPbPT_mPKcmi+0x868>
  a6:	49 29 c8             	sub    %rcx,%r8
  a9:	0f 84 b9 07 00 00    	je     868 <_ZN3mcl2fp10strToArrayImEEmPbPT_mPKcmi+0x868>
  af:	4d 89 c3             	mov    %r8,%r11
  b2:	4c 89 c3             	mov    %r8,%rbx
  b5:	45 31 c9             	xor    %r9d,%r9d
  b8:	49 c1 eb 04          	shr    $0x4,%r11
  bc:	83 e3 0f             	and    $0xf,%ebx
  bf:	41 0f 95 c1          	setne  %r9b
  c3:	4d 01 d9             	add    %r11,%r9
  c6:	4c 39 ce             	cmp    %r9,%rsi
  c9:	0f 82 99 07 00 00    	jb     868 <_ZN3mcl2fp10strToArrayImEEmPbPT_mPKcmi+0x868>
  cf:	4d 85 db             	test   %r11,%r11
  d2:	0f 84 0c 04 00 00    	je     4e4 <_ZN3mcl2fp10strToArrayImEEmPbPT_mPKcmi+0x4e4>
  d8:	49 8d 43 ff          	lea    -0x1(%r11),%rax
  dc:	48 89 fe             	mov    %rdi,%rsi
  df:	49 8d 6c 1a f0       	lea    -0x10(%r10,%rbx,1),%rbp
  e4:	48 c1 e0 04          	shl    $0x4,%rax
  e8:	48 01 d8             	add    %rbx,%rax
  eb:	4c 01 d0             	add    %r10,%rax
  ee:	66 90                	xchg   %ax,%ax
  f0:	0f b6 08             	movzbl (%rax),%ecx
  f3:	8d 51 d0             	lea    -0x30(%rcx),%edx
  f6:	83 fa 09             	cmp    $0x9,%edx
  f9:	76 25                	jbe    120 <_ZN3mcl2fp10strToArrayImEEmPbPT_mPKcmi+0x120>
  fb:	8d 51 9f             	lea    -0x61(%rcx),%edx
  fe:	83 fa 05             	cmp    $0x5,%edx
 101:	0f 86 49 08 00 00    	jbe    950 <_ZN3mcl2fp10strToArrayImEEmPbPT_mPKcmi+0x950>
 107:	8d 51 bf             	lea    -0x41(%rcx),%edx
 10a:	83 fa 05             	cmp    $0x5,%edx
 10d:	0f 87 55 07 00 00    	ja     868 <_ZN3mcl2fp10strToArrayImEEmPbPT_mPKcmi+0x868>
 113:	8d 51 c9             	lea    -0x37(%rcx),%edx
 116:	66 2e 0f 1f 84 00 00 	nopw   %cs:0x0(%rax,%rax,1)
 11d:	00 00 00 
 120:	44 0f b6 60 01       	movzbl 0x1(%rax),%r12d
 125:	41 8d 4c 24 d0       	lea    -0x30(%r12),%ecx
 12a:	83 f9 09             	cmp    $0x9,%ecx
 12d:	76 21                	jbe    150 <_ZN3mcl2fp10strToArrayImEEmPbPT_mPKcmi+0x150>
 12f:	41 8d 4c 24 9f       	lea    -0x61(%r12),%ecx
 134:	83 f9 05             	cmp    $0x5,%ecx
 137:	0f 86 23 08 00 00    	jbe    960 <_ZN3mcl2fp10strToArrayImEEmPbPT_mPKcmi+0x960>
 13d:	41 8d 4c 24 bf       	lea    -0x41(%r12),%ecx
 142:	83 f9 05             	cmp    $0x5,%ecx
 145:	0f 87 1d 07 00 00    	ja     868 <_ZN3mcl2fp10strToArrayImEEmPbPT_mPKcmi+0x868>
 14b:	41 8d 4c 24 c9       	lea    -0x37(%r12),%ecx
 150:	44 0f b6 60 02       	movzbl 0x2(%rax),%r12d
 155:	48 c1 e2 04          	shl    $0x4,%rdx
 159:	48 01 ca             	add    %rcx,%rdx
 15c:	41 8d 4c 24 d0       	lea    -0x30(%r12),%ecx
 161:	83 f9 09             	cmp    $0x9,%ecx
 164:	76 2a                	jbe    190 <_ZN3mcl2fp10strToArrayImEEmPbPT_mPKcmi+0x190>
 166:	41 8d 4c 24 9f       	lea    -0x61(%r12),%ecx
 16b:	83 f9 05             	cmp    $0x5,%ecx
 16e:	0f 86 fc 07 00 00    	jbe    970 <_ZN3mcl2fp10strToArrayImEEmPbPT_mPKcmi+0x970>
 174:	41 8d 4c 24 bf       	lea    -0x41(%r12),%ecx
 179:	83 f9 05             	cmp    $0x5,%ecx
 17c:	0f 87 e6 06 00 00    	ja     868 <_ZN3mcl2fp10strToArrayImEEmPbPT_mPKcmi+0x868>
 182:	41 8d 4c 24 c9       	lea    -0x37(%r12),%ecx
 187:	66 0f 1f 84 00 00 00 	nopw   0x0(%rax,%rax,1)
 18e:	00 00 
 190:	44 0f b6 60 03       	movzbl 0x3(%rax),%r12d
 195:	48 c1 e2 04          	shl    $0x4,%rdx
 199:	48 01 ca             	add    %rcx,%rdx
 19c:	41 8d 4c 24 d0       	lea    -0x30(%r12),%ecx
 1a1:	83 f9 09             	cmp    $0x9,%ecx
 1a4:	76 2a                	jbe    1d0 <_ZN3mcl2fp10strToArrayImEEmPbPT_mPKcmi+0x1d0>
 1a6:	41 8d 4c 24 9f       	lea    -0x61(%r12),%ecx
 1ab:	83 f9 05             	cmp    $0x5,%ecx
 1ae:	0f 86 cc 07 00 00    	jbe    980 <_ZN3mcl2fp10strToArrayImEEmPbPT_mPKcmi+0x980>
 1b4:	41 8d 4c 24 bf       	lea    -0x41(%r12),%ecx
 1b9:	83 f9 05             	cmp    $0x5,%ecx
 1bc:	0f 87 a6 06 00 00    	ja     868 <_ZN3mcl2fp10strToArrayImEEmPbPT_mPKcmi+0x868>
 1c2:	41 8d 4c 24 c9       	lea    -0x37(%r12),%ecx
 1c7:	66 0f 1f 84 00 00 00 	nopw   0x0(%rax,%rax,1)
 1ce:	00 00 
 1d0:	44 0f b6 60 04       	movzbl 0x4(%rax),%r12d
 1d5:	48 c1 e2 04          	shl    $0x4,%rdx
 1d9:	48 01 ca             	add    %rcx,%rdx
 1dc:	41 8d 4c 24 d0       	lea    -0x30(%r12),%ecx
 1e1:	83 f9 09             	cmp    $0x9,%ecx
 1e4:	76 2a                	jbe    210 <_ZN3mcl2fp10strToArrayImEEmPbPT_mPKcmi+0x210>
 1e6:	41 8d 4c 24 9f       	lea    -0x61(%r12),%ecx
 1eb:	83 f9 05             	cmp    $0x5,%ecx
 1ee:	0f 86 9c 07 00 00    	jbe    990 <_ZN3mcl2fp10strToArrayImEEmPbPT_mPKcmi+0x990>
 1f4:	41 8d 4c 24 bf       	lea    -0x41(%r12),%ecx
 1f9:	83 f9 05             	cmp    $0x5,%ecx
 1fc:	0f 87 66 06 00 00    	ja     868 <_ZN3mcl2fp10strToArrayImEEmPbPT_mPKcmi+0x868>
 202:	41 8d 4c 24 c9       	lea    -0x37(%r12),%ecx
 207:	66 0f 1f 84 00 00 00 	nopw   0x0(%rax,%rax,1)
 20e:	00 00 
 210:	44 0f b6 60 05       	movzbl 0x5(%rax),%r12d
 215:	48 c1 e2 04          	shl    $0x4,%rdx
 219:	48 01 d1             	add    %rdx,%rcx
 21c:	41 8d 54 24 d0       	lea    -0x30(%r12),%edx
 221:	83 fa 09             	cmp    $0x9,%edx
 224:	76 2a                	jbe    250 <_ZN3mcl2fp10strToArrayImEEmPbPT_mPKcmi+0x250>
 226:	41 8d 54 24 9f       	lea    -0x61(%r12),%edx
 22b:	83 fa 05             	cmp    $0x5,%edx
 22e:	0f 86 6c 07 00 00    	jbe    9a0 <_ZN3mcl2fp10strToArrayImEEmPbPT_mPKcmi+0x9a0>
 234:	41 8d 54 24 bf       	lea    -0x41(%r12),%edx
 239:	83 fa 05             	cmp    $0x5,%edx
 23c:	0f 87 26 06 00 00    	ja     868 <_ZN3mcl2fp10strToArrayImEEmPbPT_mPKcmi+0x868>
 242:	41 8d 54 24 c9       	lea    -0x37(%r12),%edx
 247:	66 0f 1f 84 00 00 00 	nopw   0x0(%rax,%rax,1)
 24e:	00 00 
 250:	44 0f b6 60 06       	movzbl 0x6(%rax),%r12d
 255:	48 c1 e1 04          	shl    $0x4,%rcx
 259:	48 01 d1             	add    %rdx,%rcx
 25c:	41 8d 54 24 d0       	lea    -0x30(%r12),%edx
 261:	83 fa 09             	cmp    $0x9,%edx
 264:	76 2a                	jbe    290 <_ZN3mcl2fp10strToArrayImEEmPbPT_mPKcmi+0x290>
 266:	41 8d 54 24 9f       	lea    -0x61(%r12),%edx
 26b:	83 fa 05             	cmp    $0x5,%edx
 26e:	0f 86 3c 07 00 00    	jbe    9b0 <_ZN3mcl2fp10strToArrayImEEmPbPT_mPKcmi+0x9b0>
 274:	41 8d 54 24 bf       	lea    -0x41(%r12),%edx
 279:	83 fa 05             	cmp    $0x5,%edx
 27c:	0f 87 e6 05 00 00    	ja     868 <_ZN3mcl2fp10strToArrayImEEmPbPT_mPKcmi+0x868>
 282:	41 8d 54 24 c9       	lea    -0x37(%r12),%edx
 287:	66 0f 1f 84 00 00 00 	nopw   0x0(%rax,%rax,1)
 28e:	00 00 
 290:	44 0f b6 60 07       	movzbl 0x7(%rax),%r12d
 295:	48 c1 e1 04          	shl    $0x4,%rcx
 299:	48 01 d1             	add    %rdx,%rcx
 29c:	41 8d 54 24 d0       	lea    -0x30(%r12),%edx
 2a1:	83 fa 09             	cmp    $0x9,%edx
 2a4:	76 2a                	jbe    2d0 <_ZN3mcl2fp10strToArrayImEEmPbPT_mPKcmi+0x2d0>
 2a6:	41 8d 54 24 9f       	lea    -0x61(%r12),%edx
 2ab:	83 fa 05             	cmp    $0x5,%edx
 2ae:	0f 86 0c 07 00 00    	jbe    9c0 <_ZN3mcl2fp10strToArrayImEEmPbPT_mPKcmi+0x9c0>
 2b4:	41 8d 54 24 bf       	lea    -0x41(%r12),%edx
 2b9:	83 fa 05             	cmp    $0x5,%edx
 2bc:	0f 87 a6 05 00 00    	ja     868 <_ZN3mcl2fp10strToArrayImEEmPbPT_mPKcmi+0x868>
 2c2:	41 8d 54 24 c9       	lea    -0x37(%r12),%edx
 2c7:	66 0f 1f 84 00 00 00 	nopw   0x0(%rax,%rax,1)
 2ce:	00 00 
 2d0:	44 0f b6 60 08       	movzbl 0x8(%rax),%r12d
 2d5:	48 c1 e1 04          	shl    $0x4,%rcx
 2d9:	48 01 ca             	add    %rcx,%rdx
 2dc:	41 8d 4c 24 d0       	lea    -0x30(%r12),%ecx
 2e1:	83 f9 09             	cmp    $0x9,%ecx
 2e4:	76 2a                	jbe    310 <_ZN3mcl2fp10strToArrayImEEmPbPT_mPKcmi+0x310>
 2e6:	41 8d 4c 24 9f       	lea    -0x61(%r12),%ecx
 2eb:	83 f9 05             	cmp    $0x5,%ecx
 2ee:	0f 86 dc 06 00 00    	jbe    9d0 <_ZN3mcl2fp10strToArrayImEEmPbPT_mPKcmi+0x9d0>
 2f4:	41 8d 4c 24 bf       	lea    -0x41(%r12),%ecx
 2f9:	83 f9 05             	cmp    $0x5,%ecx
 2fc:	0f 87 66 05 00 00    	ja     868 <_ZN3mcl2fp10strToArrayImEEmPbPT_mPKcmi+0x868>
 302:	41 8d 4c 24 c9       	lea    -0x37(%r12),%ecx
 307:	66 0f 1f 84 00 00 00 	nopw   0x0(%rax,%rax,1)
 30e:	00 00 
 310:	44 0f b6 60 09       	movzbl 0x9(%rax),%r12d
 315:	48 c1 e2 04          	shl    $0x4,%rdx
 319:	48 01 ca             	add    %rcx,%rdx
 31c:	41 8d 4c 24 d0       	lea    -0x30(%r12),%ecx
 321:	83 f9 09             	cmp    $0x9,%ecx
 324:	76 2a                	jbe    350 <_ZN3mcl2fp10strToArrayImEEmPbPT_mPKcmi+0x350>
 326:	41 8d 4c 24 9f       	lea    -0x61(%r12),%ecx
 32b:	83 f9 05             	cmp    $0x5,%ecx
 32e:	0f 86 ac 06 00 00    	jbe    9e0 <_ZN3mcl2fp10strToArrayImEEmPbPT_mPKcmi+0x9e0>
 334:	41 8d 4c 24 bf       	lea    -0x41(%r12),%ecx
 339:	83 f9 05             	cmp    $0x5,%ecx
 33c:	0f 87 26 05 00 00    	ja     868 <_ZN3mcl2fp10strToArrayImEEmPbPT_mPKcmi+0x868>
 342:	41 8d 4c 24 c9       	lea    -0x37(%r12),%ecx
 347:	66 0f 1f 84 00 00 00 	nopw   0x0(%rax,%rax,1)
 34e:	00 00 
 350:	44 0f b6 60 0a       	movzbl 0xa(%rax),%r12d
 355:	48 c1 e2 04          	shl    $0x4,%rdx
 359:	48 01 ca             	add    %rcx,%rdx
 35c:	41 8d 4c 24 d0       	lea    -0x30(%r12),%ecx
 361:	83 f9 09             	cmp    $0x9,%ecx
 364:	76 2a                	jbe    390 <_ZN3mcl2fp10strToArrayImEEmPbPT_mPKcmi+0x390>
 366:	41 8d 4c 24 9f       	lea    -0x61(%r12),%ecx
 36b:	83 f9 05             	cmp    $0x5,%ecx
 36e:	0f 86 7c 06 00 00    	jbe    9f0 <_ZN3mcl2fp10strToArrayImEEmPbPT_mPKcmi+0x9f0>
 374:	41 8d 4c 24 bf       	lea    -0x41(%r12),%ecx
 379:	83 f9 05             	cmp    $0x5,%ecx
 37c:	0f 87 e6 04 00 00    	ja     868 <_ZN3mcl2fp10strToArrayImEEmPbPT_mPKcmi+0x868>
 382:	41 8d 4c 24 c9       	lea    -0x37(%r12),%ecx
 387:	66 0f 1f 84 00 00 00 	nopw   0x0(%rax,%rax,1)
 38e:	00 00 
 390:	44 0f b6 60 0b       	movzbl 0xb(%rax),%r12d
 395:	48 c1 e2 04          	shl    $0x4,%rdx
 399:	48 01 d1             	add    %rdx,%rcx
 39c:	41 8d 54 24 d0       	lea    -0x30(%r12),%edx
 3a1:	83 fa 09             	cmp    $0x9,%edx
 3a4:	76 2a                	jbe    3d0 <_ZN3mcl2fp10strToArrayImEEmPbPT_mPKcmi+0x3d0>
 3a6:	41 8d 54 24 9f       	lea    -0x61(%r12),%edx
 3ab:	83 fa 05             	cmp    $0x5,%edx
 3ae:	0f 86 4c 06 00 00    	jbe    a00 <_ZN3mcl2fp10strToArrayImEEmPbPT_mPKcmi+0xa00>
 3b4:	41 8d 54 24 bf       	lea    -0x41(%r12),%edx
 3b9:	83 fa 05             	cmp    $0x5,%edx
 3bc:	0f 87 a6 04 00 00    	ja     868 <_ZN3mcl2fp10strToArrayImEEmPbPT_mPKcmi+0x868>
 3c2:	41 8d 54 24 c9       	lea    -0x37(%r12),%edx
 3c7:	66 0f 1f 84 00 00 00 	nopw   0x0(%rax,%rax,1)
 3ce:	00 00 
 3d0:	44 0f b6 60 0c       	movzbl 0xc(%rax),%r12d
 3d5:	48 c1 e1 04          	shl    $0x4,%rcx
 3d9:	48 01 d1             	add    %rdx,%rcx
 3dc:	41 8d 54 24 d0       	lea    -0x30(%r12),%edx
 3e1:	83 fa 09             	cmp    $0x9,%edx
 3e4:	76 2a                	jbe    410 <_ZN3mcl2fp10strToArrayImEEmPbPT_mPKcmi+0x410>
 3e6:	41 8d 54 24 9f       	lea    -0x61(%r12),%edx
 3eb:	83 fa 05             	cmp    $0x5,%edx
 3ee:	0f 86 2c 06 00 00    	jbe    a20 <_ZN3mcl2fp10strToArrayImEEmPbPT_mPKcmi+0xa20>
 3f4:	41 8d 54 24 bf       	lea    -0x41(%r12),%edx
 3f9:	83 fa 05             	cmp    $0x5,%edx
 3fc:	0f 87 66 04 00 00    	ja     868 <_ZN3mcl2fp10strToArrayImEEmPbPT_mPKcmi+0x868>
 402:	41 8d 54 24 c9       	lea    -0x37(%r12),%edx
 407:	66 0f 1f 84 00 00 00 	nopw   0x0(%rax,%rax,1)
 40e:	00 00 
 410:	44 0f b6 60 0d       	movzbl 0xd(%rax),%r12d
 415:	48 c1 e1 04          	shl    $0x4,%rcx
 419:	48 01 d1             	add    %rdx,%rcx
 41c:	41 8d 54 24 d0       	lea    -0x30(%r12),%edx
 421:	83 fa 09             	cmp    $0x9,%edx
 424:	76 2a                	jbe    450 <_ZN3mcl2fp10strToArrayImEEmPbPT_mPKcmi+0x450>
 426:	41 8d 54 24 9f       	lea    -0x61(%r12),%edx
 42b:	83 fa 05             	cmp    $0x5,%edx
 42e:	0f 86 fc 05 00 00    	jbe    a30 <_ZN3mcl2fp10strToArrayImEEmPbPT_mPKcmi+0xa30>
 434:	41 8d 54 24 bf       	lea    -0x41(%r12),%edx
 439:	83 fa 05             	cmp    $0x5,%edx
 43c:	0f 87 26 04 00 00    	ja     868 <_ZN3mcl2fp10strToArrayImEEmPbPT_mPKcmi+0x868>
 442:	41 8d 54 24 c9       	lea    -0x37(%r12),%edx
 447:	66 0f 1f 84 00 00 00 	nopw   0x0(%rax,%rax,1)
 44e:	00 00 
 450:	48 c1 e1 04          	shl    $0x4,%rcx
 454:	48 01 d1             	add    %rdx,%rcx
 457:	0f b6 50 0e          	movzbl 0xe(%rax),%edx
 45b:	44 8d 62 d0          	lea    -0x30(%rdx),%r12d
 45f:	41 83 fc 09          	cmp    $0x9,%r12d
 463:	76 23                	jbe    488 <_ZN3mcl2fp10strToArrayImEEmPbPT_mPKcmi+0x488>
 465:	44 8d 62 9f          	lea    -0x61(%rdx),%r12d
 469:	41 83 fc 05          	cmp    $0x5,%r12d
 46d:	0f 86 cd 05 00 00    	jbe    a40 <_ZN3mcl2fp10strToArrayImEEmPbPT_mPKcmi+0xa40>
 473:	44 8d 62 bf          	lea    -0x41(%rdx),%r12d
 477:	41 83 fc 05          	cmp    $0x5,%r12d
 47b:	0f 87 e7 03 00 00    	ja     868 <_ZN3mcl2fp10strToArrayImEEmPbPT_mPKcmi+0x868>
 481:	44 8d 62 c9          	lea    -0x37(%rdx),%r12d
 485:	0f 1f 00             	nopl   (%rax)
 488:	48 c1 e1 04          	shl    $0x4,%rcx
 48c:	48 89 ca             	mov    %rcx,%rdx
 48f:	44 89 e1             	mov    %r12d,%ecx
 492:	44 0f b6 60 0f       	movzbl 0xf(%rax),%r12d
 497:	48 01 d1             	add    %rdx,%rcx
 49a:	41 8d 54 24 d0       	lea    -0x30(%r12),%edx
 49f:	83 fa 09             	cmp    $0x9,%edx
 4a2:	76 24                	jbe    4c8 <_ZN3mcl2fp10strToArrayImEEmPbPT_mPKcmi+0x4c8>
 4a4:	41 8d 54 24 9f       	lea    -0x61(%r12),%edx
 4a9:	83 fa 05             	cmp    $0x5,%edx
 4ac:	0f 86 9e 05 00 00    	jbe    a50 <_ZN3mcl2fp10strToArrayImEEmPbPT_mPKcmi+0xa50>
 4b2:	41 8d 54 24 bf       	lea    -0x41(%r12),%edx
 4b7:	83 fa 05             	cmp    $0x5,%edx
 4ba:	0f 87 a8 03 00 00    	ja     868 <_ZN3mcl2fp10strToArrayImEEmPbPT_mPKcmi+0x868>
 4c0:	41 8d 54 24 c9       	lea    -0x37(%r12),%edx
 4c5:	0f 1f 00             	nopl   (%rax)
 4c8:	48 c1 e1 04          	shl    $0x4,%rcx
 4cc:	48 83 e8 10          	sub    $0x10,%rax
 4d0:	48 83 c6 08          	add    $0x8,%rsi
 4d4:	48 01 ca             	add    %rcx,%rdx
 4d7:	48 89 56 f8          	mov    %rdx,-0x8(%rsi)
 4db:	48 39 e8             	cmp    %rbp,%rax
 4de:	0f 85 0c fc ff ff    	jne    f0 <_ZN3mcl2fp10strToArrayImEEmPbPT_mPKcmi+0xf0>
 4e4:	48 85 db             	test   %rbx,%rbx
 4e7:	0f 84 7e 03 00 00    	je     86b <_ZN3mcl2fp10strToArrayImEEmPbPT_mPKcmi+0x86b>
 4ed:	41 0f b6 12          	movzbl (%r10),%edx
 4f1:	8d 42 d0             	lea    -0x30(%rdx),%eax
 4f4:	83 f8 09             	cmp    $0x9,%eax
 4f7:	76 1f                	jbe    518 <_ZN3mcl2fp10strToArrayImEEmPbPT_mPKcmi+0x518>
 4f9:	8d 42 9f             	lea    -0x61(%rdx),%eax
 4fc:	83 f8 05             	cmp    $0x5,%eax
 4ff:	0f 86 87 05 00 00    	jbe    a8c <_ZN3mcl2fp10strToArrayImEEmPbPT_mPKcmi+0xa8c>
 505:	8d 42 bf             	lea    -0x41(%rdx),%eax
 508:	83 f8 05             	cmp    $0x5,%eax
 50b:	0f 87 57 03 00 00    	ja     868 <_ZN3mcl2fp10strToArrayImEEmPbPT_mPKcmi+0x868>
 511:	8d 42 c9             	lea    -0x37(%rdx),%eax
 514:	0f 1f 40 00          	nopl   0x0(%rax)
 518:	41 83 e0 0e          	and    $0xe,%r8d
 51c:	0f 84 fc 02 00 00    	je     81e <_ZN3mcl2fp10strToArrayImEEmPbPT_mPKcmi+0x81e>
 522:	41 0f b6 4a 01       	movzbl 0x1(%r10),%ecx
 527:	8d 51 d0             	lea    -0x30(%rcx),%edx
 52a:	83 fa 09             	cmp    $0x9,%edx
 52d:	76 1b                	jbe    54a <_ZN3mcl2fp10strToArrayImEEmPbPT_mPKcmi+0x54a>
 52f:	8d 51 9f             	lea    -0x61(%rcx),%edx
 532:	83 fa 05             	cmp    $0x5,%edx
 535:	0f 86 62 05 00 00    	jbe    a9d <_ZN3mcl2fp10strToArrayImEEmPbPT_mPKcmi+0xa9d>
 53b:	8d 51 bf             	lea    -0x41(%rcx),%edx
 53e:	83 fa 05             	cmp    $0x5,%edx
 541:	0f 87 21 03 00 00    	ja     868 <_ZN3mcl2fp10strToArrayImEEmPbPT_mPKcmi+0x868>
 547:	8d 51 c9             	lea    -0x37(%rcx),%edx
 54a:	48 c1 e0 04          	shl    $0x4,%rax
 54e:	48 01 d0             	add    %rdx,%rax
 551:	48 83 fb 02          	cmp    $0x2,%rbx
 555:	0f 84 c3 02 00 00    	je     81e <_ZN3mcl2fp10strToArrayImEEmPbPT_mPKcmi+0x81e>
 55b:	41 0f b6 4a 02       	movzbl 0x2(%r10),%ecx
 560:	8d 51 d0             	lea    -0x30(%rcx),%edx
 563:	83 fa 09             	cmp    $0x9,%edx
 566:	76 1b                	jbe    583 <_ZN3mcl2fp10strToArrayImEEmPbPT_mPKcmi+0x583>
 568:	8d 51 9f             	lea    -0x61(%rcx),%edx
 56b:	83 fa 05             	cmp    $0x5,%edx
 56e:	0f 86 31 05 00 00    	jbe    aa5 <_ZN3mcl2fp10strToArrayImEEmPbPT_mPKcmi+0xaa5>
 574:	8d 51 bf             	lea    -0x41(%rcx),%edx
 577:	83 fa 05             	cmp    $0x5,%edx
 57a:	0f 87 e8 02 00 00    	ja     868 <_ZN3mcl2fp10strToArrayImEEmPbPT_mPKcmi+0x868>
 580:	8d 51 c9             	lea    -0x37(%rcx),%edx
 583:	48 c1 e0 04          	shl    $0x4,%rax
 587:	48 01 d0             	add    %rdx,%rax
 58a:	48 83 fb 03          	cmp    $0x3,%rbx
 58e:	0f 84 8a 02 00 00    	je     81e <_ZN3mcl2fp10strToArrayImEEmPbPT_mPKcmi+0x81e>
 594:	41 0f b6 4a 03       	movzbl 0x3(%r10),%ecx
 599:	8d 51 d0             	lea    -0x30(%rcx),%edx
 59c:	83 fa 09             	cmp    $0x9,%edx
 59f:	76 1b                	jbe    5bc <_ZN3mcl2fp10strToArrayImEEmPbPT_mPKcmi+0x5bc>
 5a1:	8d 51 9f             	lea    -0x61(%rcx),%edx
 5a4:	83 fa 05             	cmp    $0x5,%edx
 5a7:	0f 86 00 05 00 00    	jbe    aad <_ZN3mcl2fp10strToArrayImEEmPbPT_mPKcmi+0xaad>
 5ad:	8d 51 bf             	lea    -0x41(%rcx),%edx
 5b0:	83 fa 05             	cmp    $0x5,%edx
 5b3:	0f 87 af 02 00 00    	ja     868 <_ZN3mcl2fp10strToArrayImEEmPbPT_mPKcmi+0x868>
 5b9:	8d 51 c9             	lea    -0x37(%rcx),%edx
 5bc:	48 c1 e0 04          	shl    $0x4,%rax
 5c0:	48 01 d0             	add    %rdx,%rax
 5c3:	48 83 fb 04          	cmp    $0x4,%rbx
 5c7:	0f 84 51 02 00 00    	je     81e <_ZN3mcl2fp10strToArrayImEEmPbPT_mPKcmi+0x81e>
 5cd:	41 0f b6 4a 04       	movzbl 0x4(%r10),%ecx
 5d2:	8d 51 d0             	lea    -0x30(%rcx),%edx
 5d5:	83 fa 09             	cmp    $0x9,%edx
 5d8:	76 1b                	jbe    5f5 <_ZN3mcl2fp10strToArrayImEEmPbPT_mPKcmi+0x5f5>
 5da:	8d 51 9f             	lea    -0x61(%rcx),%edx
 5dd:	83 fa 05             	cmp    $0x5,%edx
 5e0:	0f 86 cf 04 00 00    	jbe    ab5 <_ZN3mcl2fp10strToArrayImEEmPbPT_mPKcmi+0xab5>
 5e6:	8d 51 bf             	lea    -0x41(%rcx),%edx
 5e9:	83 fa 05             	cmp    $0x5,%edx
 5ec:	0f 87 76 02 00 00    	ja     868 <_ZN3mcl2fp10strToArrayImEEmPbPT_mPKcmi+0x868>
 5f2:	8d 51 c9             	lea    -0x37(%rcx),%edx
 5f5:	48 c1 e0 04          	shl    $0x4,%rax
 5f9:	48 01 d0             	add    %rdx,%rax
 5fc:	48 83 fb 05          	cmp    $0x5,%rbx
 600:	0f 84 18 02 00 00    	je     81e <_ZN3mcl2fp10strToArrayImEEmPbPT_mPKcmi+0x81e>
 606:	41 0f b6 4a 05       	movzbl 0x5(%r10),%ecx
 60b:	8d 51 d0             	lea    -0x30(%rcx),%edx
 60e:	83 fa 09             	cmp    $0x9,%edx
 611:	76 1b                	jbe    62e <_ZN3mcl2fp10strToArrayImEEmPbPT_mPKcmi+0x62e>
 613:	8d 51 9f             	lea    -0x61(%rcx),%edx
 616:	83 fa 05             	cmp    $0x5,%edx
 619:	0f 86 9e 04 00 00    	jbe    abd <_ZN3mcl2fp10strToArrayImEEmPbPT_mPKcmi+0xabd>
 61f:	8d 51 bf             	lea    -0x41(%rcx),%edx
 622:	83 fa 05             	cmp    $0x5,%edx
 625:	0f 87 3d 02 00 00    	ja     868 <_ZN3mcl2fp10strToArrayImEEmPbPT_mPKcmi+0x868>
 62b:	8d 51 c9             	lea    -0x37(%rcx),%edx
 62e:	48 c1 e0 04          	shl    $0x4,%rax
 632:	48 01 d0             	add    %rdx,%rax
 635:	48 83 fb 06          	cmp    $0x6,%rbx
 639:	0f 84 df 01 00 00    	je     81e <_ZN3mcl2fp10strToArrayImEEmPbPT_mPKcmi+0x81e>
 63f:	41 0f b6 4a 06       	movzbl 0x6(%r10),%ecx
 644:	8d 51 d0             	lea    -0x30(%rcx),%edx
 647:	83 fa 09             	cmp    $0x9,%edx
 64a:	76 1b                	jbe    667 <_ZN3mcl2fp10strToArrayImEEmPbPT_mPKcmi+0x667>
 64c:	8d 51 9f             	lea    -0x61(%rcx),%edx
 64f:	83 fa 05             	cmp    $0x5,%edx
 652:	0f 86 6d 04 00 00    	jbe    ac5 <_ZN3mcl2fp10strToArrayImEEmPbPT_mPKcmi+0xac5>
 658:	8d 51 bf             	lea    -0x41(%rcx),%edx
 65b:	83 fa 05             	cmp    $0x5,%edx
 65e:	0f 87 04 02 00 00    	ja     868 <_ZN3mcl2fp10strToArrayImEEmPbPT_mPKcmi+0x868>
 664:	8d 51 c9             	lea    -0x37(%rcx),%edx
 667:	48 c1 e0 04          	shl    $0x4,%rax
 66b:	48 01 d0             	add    %rdx,%rax
 66e:	48 83 fb 07          	cmp    $0x7,%rbx
 672:	0f 84 a6 01 00 00    	je     81e <_ZN3mcl2fp10strToArrayImEEmPbPT_mPKcmi+0x81e>
 678:	41 0f b6 4a 07       	movzbl 0x7(%r10),%ecx
 67d:	8d 51 d0             	lea    -0x30(%rcx),%edx
 680:	83 fa 09             	cmp    $0x9,%edx
 683:	76 1b                	jbe    6a0 <_ZN3mcl2fp10strToArrayImEEmPbPT_mPKcmi+0x6a0>
 685:	8d 51 9f             	lea    -0x61(%rcx),%edx
 688:	83 fa 05             	cmp    $0x5,%edx
 68b:	0f 86 3c 04 00 00    	jbe    acd <_ZN3mcl2fp10strToArrayImEEmPbPT_mPKcmi+0xacd>
 691:	8d 51 bf             	lea    -0x41(%rcx),%edx
 694:	83 fa 05             	cmp    $0x5,%edx
 697:	0f 87 cb 01 00 00    	ja     868 <_ZN3mcl2fp10strToArrayImEEmPbPT_mPKcmi+0x868>
 69d:	8d 51 c9             	lea    -0x37(%rcx),%edx
 6a0:	48 c1 e0 04          	shl    $0x4,%rax
 6a4:	48 01 d0             	add    %rdx,%rax
 6a7:	48 83 fb 08          	cmp    $0x8,%rbx
 6ab:	0f 84 6d 01 00 00    	je     81e <_ZN3mcl2fp10strToArrayImEEmPbPT_mPKcmi+0x81e>
 6b1:	41 0f b6 4a 08       	movzbl 0x8(%r10),%ecx
 6b6:	8d 51 d0             	lea    -0x30(%rcx),%edx
 6b9:	83 fa 09             	cmp    $0x9,%edx
 6bc:	76 1b                	jbe    6d9 <_ZN3mcl2fp10strToArrayImEEmPbPT_mPKcmi+0x6d9>
 6be:	8d 51 9f             	lea    -0x61(%rcx),%edx
 6c1:	83 fa 05             	cmp    $0x5,%edx
 6c4:	0f 86 0b 04 00 00    	jbe    ad5 <_ZN3mcl2fp10strToArrayImEEmPbPT_mPKcmi+0xad5>
 6ca:	8d 51 bf             	lea    -0x41(%rcx),%edx
 6cd:	83 fa 05             	cmp    $0x5,%edx
 6d0:	0f 87 92 01 00 00    	ja     868 <_ZN3mcl2fp10strToArrayImEEmPbPT_mPKcmi+0x868>
 6d6:	8d 51 c9             	lea    -0x37(%rcx),%edx
 6d9:	48 c1 e0 04          	shl    $0x4,%rax
 6dd:	48 01 d0             	add    %rdx,%rax
 6e0:	48 83 fb 09          	cmp    $0x9,%rbx
 6e4:	0f 84 34 01 00 00    	je     81e <_ZN3mcl2fp10strToArrayImEEmPbPT_mPKcmi+0x81e>
 6ea:	41 0f b6 4a 09       	movzbl 0x9(%r10),%ecx
 6ef:	8d 51 d0             	lea    -0x30(%rcx),%edx
 6f2:	83 fa 09             	cmp    $0x9,%edx
 6f5:	76 1b                	jbe    712 <_ZN3mcl2fp10strToArrayImEEmPbPT_mPKcmi+0x712>
 6f7:	8d 51 9f             	lea    -0x61(%rcx),%edx
 6fa:	83 fa 05             	cmp    $0x5,%edx
 6fd:	0f 86 da 03 00 00    	jbe    add <_ZN3mcl2fp10strToArrayImEEmPbPT_mPKcmi+0xadd>
 703:	8d 51 bf             	lea    -0x41(%rcx),%edx
 706:	83 fa 05             	cmp    $0x5,%edx
 709:	0f 87 59 01 00 00    	ja     868 <_ZN3mcl2fp10strToArrayImEEmPbPT_mPKcmi+0x868>
 70f:	8d 51 c9             	lea    -0x37(%rcx),%edx
 712:	48 c1 e0 04          	shl    $0x4,%rax
 716:	48 01 d0             	add    %rdx,%rax
 719:	48 83 fb 0a          	cmp    $0xa,%rbx
 71d:	0f 84 fb 00 00 00    	je     81e <_ZN3mcl2fp10strToArrayImEEmPbPT_mPKcmi+0x81e>
 723:	41 0f b6 4a 0a       	movzbl 0xa(%r10),%ecx
 728:	8d 51 d0             	lea    -0x30(%rcx),%edx
 72b:	83 fa 09             	cmp    $0x9,%edx
 72e:	76 1b                	jbe    74b <_ZN3mcl2fp10strToArrayImEEmPbPT_mPKcmi+0x74b>
 730:	8d 51 9f             	lea    -0x61(%rcx),%edx
 733:	83 fa 05             	cmp    $0x5,%edx
 736:	0f 86 a9 03 00 00    	jbe    ae5 <_ZN3mcl2fp10strToArrayImEEmPbPT_mPKcmi+0xae5>
 73c:	8d 51 bf             	lea    -0x41(%rcx),%edx
 73f:	83 fa 05             	cmp    $0x5,%edx
 742:	0f 87 20 01 00 00    	ja     868 <_ZN3mcl2fp10strToArrayImEEmPbPT_mPKcmi+0x868>
 748:	8d 51 c9             	lea    -0x37(%rcx),%edx
 74b:	48 c1 e0 04          	shl    $0x4,%rax
 74f:	48 01 d0             	add    %rdx,%rax
 752:	48 83 fb 0b          	cmp    $0xb,%rbx
 756:	0f 84 c2 00 00 00    	je     81e <_ZN3mcl2fp10strToArrayImEEmPbPT_mPKcmi+0x81e>
 75c:	41 0f b6 4a 0b       	movzbl 0xb(%r10),%ecx
 761:	8d 51 d0             	lea    -0x30(%rcx),%edx
 764:	83 fa 09             	cmp    $0x9,%edx
 767:	76 1b                	jbe    784 <_ZN3mcl2fp10strToArrayImEEmPbPT_mPKcmi+0x784>
 769:	8d 51 9f             	lea    -0x61(%rcx),%edx
 76c:	83 fa 05             	cmp    $0x5,%edx
 76f:	0f 86 78 03 00 00    	jbe    aed <_ZN3mcl2fp10strToArrayImEEmPbPT_mPKcmi+0xaed>
 775:	8d 51 bf             	lea    -0x41(%rcx),%edx
 778:	83 fa 05             	cmp    $0x5,%edx
 77b:	0f 87 e7 00 00 00    	ja     868 <_ZN3mcl2fp10strToArrayImEEmPbPT_mPKcmi+0x868>
 781:	8d 51 c9             	lea    -0x37(%rcx),%edx
 784:	48 c1 e0 04          	shl    $0x4,%rax
 788:	48 01 d0             	add    %rdx,%rax
 78b:	48 83 fb 0c          	cmp    $0xc,%rbx
 78f:	0f 84 89 00 00 00    	je     81e <_ZN3mcl2fp10strToArrayImEEmPbPT_mPKcmi+0x81e>
 795:	41 0f b6 4a 0c       	movzbl 0xc(%r10),%ecx
 79a:	8d 51 d0             	lea    -0x30(%rcx),%edx
 79d:	83 fa 09             	cmp    $0x9,%edx
 7a0:	76 1b                	jbe    7bd <_ZN3mcl2fp10strToArrayImEEmPbPT_mPKcmi+0x7bd>
 7a2:	8d 51 9f             	lea    -0x61(%rcx),%edx
 7a5:	83 fa 05             	cmp    $0x5,%edx
 7a8:	0f 86 47 03 00 00    	jbe    af5 <_ZN3mcl2fp10strToArrayImEEmPbPT_mPKcmi+0xaf5>
 7ae:	8d 51 bf             	lea    -0x41(%rcx),%edx
 7b1:	83 fa 05             	cmp    $0x5,%edx
 7b4:	0f 87 ae 00 00 00    	ja     868 <_ZN3mcl2fp10strToArrayImEEmPbPT_mPKcmi+0x868>
 7ba:	8d 51 c9             	lea    -0x37(%rcx),%edx
 7bd:	48 c1 e0 04          	shl    $0x4,%rax
 7c1:	48 01 d0             	add    %rdx,%rax
 7c4:	48 83 fb 0d          	cmp    $0xd,%rbx
 7c8:	74 54                	je     81e <_ZN3mcl2fp10strToArrayImEEmPbPT_mPKcmi+0x81e>
 7ca:	41 0f b6 4a 0d       	movzbl 0xd(%r10),%ecx
 7cf:	8d 51 d0             	lea    -0x30(%rcx),%edx
 7d2:	83 fa 09             	cmp    $0x9,%edx
 7d5:	76 17                	jbe    7ee <_ZN3mcl2fp10strToArrayImEEmPbPT_mPKcmi+0x7ee>
 7d7:	8d 51 9f             	lea    -0x61(%rcx),%edx
 7da:	83 fa 05             	cmp    $0x5,%edx
 7dd:	0f 86 1a 03 00 00    	jbe    afd <_ZN3mcl2fp10strToArrayImEEmPbPT_mPKcmi+0xafd>
 7e3:	8d 51 bf             	lea    -0x41(%rcx),%edx
 7e6:	83 fa 05             	cmp    $0x5,%edx
 7e9:	77 7d                	ja     868 <_ZN3mcl2fp10strToArrayImEEmPbPT_mPKcmi+0x868>
 7eb:	8d 51 c9             	lea    -0x37(%rcx),%edx
 7ee:	48 c1 e0 04          	shl    $0x4,%rax
 7f2:	48 01 d0             	add    %rdx,%rax
 7f5:	48 83 fb 0e          	cmp    $0xe,%rbx
 7f9:	74 23                	je     81e <_ZN3mcl2fp10strToArrayImEEmPbPT_mPKcmi+0x81e>
 7fb:	41 0f b6 4a 0e       	movzbl 0xe(%r10),%ecx
 800:	8d 51 d0             	lea    -0x30(%rcx),%edx
 803:	83 fa 09             	cmp    $0x9,%edx
 806:	76 0f                	jbe    817 <_ZN3mcl2fp10strToArrayImEEmPbPT_mPKcmi+0x817>
 808:	8d 51 9f             	lea    -0x61(%rcx),%edx
 80b:	83 fa 05             	cmp    $0x5,%edx
 80e:	0f 87 f1 02 00 00    	ja     b05 <_ZN3mcl2fp10strToArrayImEEmPbPT_mPKcmi+0xb05>
 814:	8d 51 a9             	lea    -0x57(%rcx),%edx
 817:	48 c1 e0 04          	shl    $0x4,%rax
 81b:	48 01 d0             	add    %rdx,%rax
 81e:	4a 89 04 df          	mov    %rax,(%rdi,%r11,8)
 822:	eb 47                	jmp    86b <_ZN3mcl2fp10strToArrayImEEmPbPT_mPKcmi+0x86b>
 824:	0f 1f 40 00          	nopl   0x0(%rax)
 828:	49 83 f8 01          	cmp    $0x1,%r8
 82c:	0f 86 03 f8 ff ff    	jbe    35 <_ZN3mcl2fp10strToArrayImEEmPbPT_mPKcmi+0x35>
 832:	49 89 ca             	mov    %rcx,%r10
 835:	45 31 db             	xor    %r11d,%r11d
 838:	b9 02 00 00 00       	mov    $0x2,%ecx
 83d:	41 0f b6 5a 01       	movzbl 0x1(%r10),%ebx
 842:	80 fb 78             	cmp    $0x78,%bl
 845:	0f 84 25 02 00 00    	je     a70 <_ZN3mcl2fp10strToArrayImEEmPbPT_mPKcmi+0xa70>
 84b:	80 fb 62             	cmp    $0x62,%bl
 84e:	74 30                	je     880 <_ZN3mcl2fp10strToArrayImEEmPbPT_mPKcmi+0x880>
 850:	4c 89 d2             	mov    %r10,%rdx
 853:	85 c0                	test   %eax,%eax
 855:	0f 84 e7 f7 ff ff    	je     42 <_ZN3mcl2fp10strToArrayImEEmPbPT_mPKcmi+0x42>
 85b:	4d 39 d8             	cmp    %r11,%r8
 85e:	0f 85 a6 01 00 00    	jne    a0a <_ZN3mcl2fp10strToArrayImEEmPbPT_mPKcmi+0xa0a>
 864:	0f 1f 40 00          	nopl   0x0(%rax)
 868:	45 31 c9             	xor    %r9d,%r9d
 86b:	5b                   	pop    %rbx
 86c:	4c 89 c8             	mov    %r9,%rax
 86f:	5d                   	pop    %rbp
 870:	41 5c                	pop    %r12
 872:	c3                   	retq   
 873:	0f 1f 44 00 00       	nopl   0x0(%rax,%rax,1)
 878:	45 31 c9             	xor    %r9d,%r9d
 87b:	4c 89 c8             	mov    %r9,%rax
 87e:	c3                   	retq   
 87f:	90                   	nop
 880:	41 f6 c1 1d          	test   $0x1d,%r9b
 884:	75 d5                	jne    85b <_ZN3mcl2fp10strToArrayImEEmPbPT_mPKcmi+0x85b>
 886:	4c 8d 14 0a          	lea    (%rdx,%rcx,1),%r10
 88a:	49 39 c8             	cmp    %rcx,%r8
 88d:	74 d9                	je     868 <_ZN3mcl2fp10strToArrayImEEmPbPT_mPKcmi+0x868>
 88f:	90                   	nop
 890:	49 29 c8             	sub    %rcx,%r8
 893:	74 d3                	je     868 <_ZN3mcl2fp10strToArrayImEEmPbPT_mPKcmi+0x868>
 895:	4c 89 c5             	mov    %r8,%rbp
 898:	45 31 c9             	xor    %r9d,%r9d
 89b:	48 c1 ed 06          	shr    $0x6,%rbp
 89f:	41 83 e0 3f          	and    $0x3f,%r8d
 8a3:	41 0f 95 c1          	setne  %r9b
 8a7:	49 01 e9             	add    %rbp,%r9
 8aa:	4c 39 ce             	cmp    %r9,%rsi
 8ad:	72 b9                	jb     868 <_ZN3mcl2fp10strToArrayImEEmPbPT_mPKcmi+0x868>
 8af:	48 85 ed             	test   %rbp,%rbp
 8b2:	74 52                	je     906 <_ZN3mcl2fp10strToArrayImEEmPbPT_mPKcmi+0x906>
 8b4:	48 89 ee             	mov    %rbp,%rsi
 8b7:	4f 8d 24 02          	lea    (%r10,%r8,1),%r12
 8bb:	48 89 fb             	mov    %rdi,%rbx
 8be:	48 c1 e6 06          	shl    $0x6,%rsi
 8c2:	4c 01 e6             	add    %r12,%rsi
 8c5:	4c 8d 5e c0          	lea    -0x40(%rsi),%r11
 8c9:	31 d2                	xor    %edx,%edx
 8cb:	4c 89 d8             	mov    %r11,%rax
 8ce:	eb 13                	jmp    8e3 <_ZN3mcl2fp10strToArrayImEEmPbPT_mPKcmi+0x8e3>
 8d0:	80 f9 31             	cmp    $0x31,%cl
 8d3:	75 93                	jne    868 <_ZN3mcl2fp10strToArrayImEEmPbPT_mPKcmi+0x868>
 8d5:	48 83 c0 01          	add    $0x1,%rax
 8d9:	48 8d 54 12 01       	lea    0x1(%rdx,%rdx,1),%rdx
 8de:	48 39 f0             	cmp    %rsi,%rax
 8e1:	74 14                	je     8f7 <_ZN3mcl2fp10strToArrayImEEmPbPT_mPKcmi+0x8f7>
 8e3:	0f b6 08             	movzbl (%rax),%ecx
 8e6:	80 f9 30             	cmp    $0x30,%cl
 8e9:	75 e5                	jne    8d0 <_ZN3mcl2fp10strToArrayImEEmPbPT_mPKcmi+0x8d0>
 8eb:	48 83 c0 01          	add    $0x1,%rax
 8ef:	48 01 d2             	add    %rdx,%rdx
 8f2:	48 39 f0             	cmp    %rsi,%rax
 8f5:	75 ec                	jne    8e3 <_ZN3mcl2fp10strToArrayImEEmPbPT_mPKcmi+0x8e3>
 8f7:	48 89 13             	mov    %rdx,(%rbx)
 8fa:	4c 89 de             	mov    %r11,%rsi
 8fd:	48 83 c3 08          	add    $0x8,%rbx
 901:	4d 39 dc             	cmp    %r11,%r12
 904:	75 bf                	jne    8c5 <_ZN3mcl2fp10strToArrayImEEmPbPT_mPKcmi+0x8c5>
 906:	4d 85 c0             	test   %r8,%r8
 909:	0f 84 5c ff ff ff    	je     86b <_ZN3mcl2fp10strToArrayImEEmPbPT_mPKcmi+0x86b>
 90f:	4d 01 d0             	add    %r10,%r8
 912:	31 d2                	xor    %edx,%edx
 914:	eb 24                	jmp    93a <_ZN3mcl2fp10strToArrayImEEmPbPT_mPKcmi+0x93a>
 916:	66 2e 0f 1f 84 00 00 	nopw   %cs:0x0(%rax,%rax,1)
 91d:	00 00 00 
 920:	3c 31                	cmp    $0x31,%al
 922:	0f 85 40 ff ff ff    	jne    868 <_ZN3mcl2fp10strToArrayImEEmPbPT_mPKcmi+0x868>
 928:	48 8d 54 12 01       	lea    0x1(%rdx,%rdx,1),%rdx
 92d:	49 83 c2 01          	add    $0x1,%r10
 931:	4d 39 c2             	cmp    %r8,%r10
 934:	0f 84 5a 01 00 00    	je     a94 <_ZN3mcl2fp10strToArrayImEEmPbPT_mPKcmi+0xa94>
 93a:	41 0f b6 02          	movzbl (%r10),%eax
 93e:	3c 30                	cmp    $0x30,%al
 940:	75 de                	jne    920 <_ZN3mcl2fp10strToArrayImEEmPbPT_mPKcmi+0x920>
 942:	48 01 d2             	add    %rdx,%rdx
 945:	eb e6                	jmp    92d <_ZN3mcl2fp10strToArrayImEEmPbPT_mPKcmi+0x92d>
 947:	66 0f 1f 84 00 00 00 	nopw   0x0(%rax,%rax,1)
 94e:	00 00 
 950:	8d 51 a9             	lea    -0x57(%rcx),%edx
 953:	e9 c8 f7 ff ff       	jmpq   120 <_ZN3mcl2fp10strToArrayImEEmPbPT_mPKcmi+0x120>
 958:	0f 1f 84 00 00 00 00 	nopl   0x0(%rax,%rax,1)
 95f:	00 
 960:	41 8d 4c 24 a9       	lea    -0x57(%r12),%ecx
 965:	e9 e6 f7 ff ff       	jmpq   150 <_ZN3mcl2fp10strToArrayImEEmPbPT_mPKcmi+0x150>
 96a:	66 0f 1f 44 00 00    	nopw   0x0(%rax,%rax,1)
 970:	41 8d 4c 24 a9       	lea    -0x57(%r12),%ecx
 975:	e9 16 f8 ff ff       	jmpq   190 <_ZN3mcl2fp10strToArrayImEEmPbPT_mPKcmi+0x190>
 97a:	66 0f 1f 44 00 00    	nopw   0x0(%rax,%rax,1)
 980:	41 8d 4c 24 a9       	lea    -0x57(%r12),%ecx
 985:	e9 46 f8 ff ff       	jmpq   1d0 <_ZN3mcl2fp10strToArrayImEEmPbPT_mPKcmi+0x1d0>
 98a:	66 0f 1f 44 00 00    	nopw   0x0(%rax,%rax,1)
 990:	41 8d 4c 24 a9       	lea    -0x57(%r12),%ecx
 995:	e9 76 f8 ff ff       	jmpq   210 <_ZN3mcl2fp10strToArrayImEEmPbPT_mPKcmi+0x210>
 99a:	66 0f 1f 44 00 00    	nopw   0x0(%rax,%rax,1)
 9a0:	41 8d 54 24 a9       	lea    -0x57(%r12),%edx
 9a5:	e9 a6 f8 ff ff       	jmpq   250 <_ZN3mcl2fp10strToArrayImEEmPbPT_mPKcmi+0x250>
 9aa:	66 0f 1f 44 00 00    	nopw   0x0(%rax,%rax,1)
 9b0:	41 8d 54 24 a9       	lea    -0x57(%r12),%edx
 9b5:	e9 d6 f8 ff ff       	jmpq   290 <_ZN3mcl2fp10strToArrayImEEmPbPT_mPKcmi+0x290>
 9ba:	66 0f 1f 44 00 00    	nopw   0x0(%rax,%rax,1)
 9c0:	41 8d 54 24 a9       	lea    -0x57(%r12),%edx
 9c5:	e9 06 f9 ff ff       	jmpq   2d0 <_ZN3mcl2fp10strToArrayImEEmPbPT_mPKcmi+0x2d0>
 9ca:	66 0f 1f 44 00 00    	nopw   0x0(%rax,%rax,1)
 9d0:	41 8d 4c 24 a9       	lea    -0x57(%r12),%ecx
 9d5:	e9 36 f9 ff ff       	jmpq   310 <_ZN3mcl2fp10strToArrayImEEmPbPT_mPKcmi+0x310>
 9da:	66 0f 1f 44 00 00    	nopw   0x0(%rax,%rax,1)
 9e0:	41 8d 4c 24 a9       	lea    -0x57(%r12),%ecx
 9e5:	e9 66 f9 ff ff       	jmpq   350 <_ZN3mcl2fp10strToArrayImEEmPbPT_mPKcmi+0x350>
 9ea:	66 0f 1f 44 00 00    	nopw   0x0(%rax,%rax,1)
 9f0:	41 8d 4c 24 a9       	lea    -0x57(%r12),%ecx
 9f5:	e9 96 f9 ff ff       	jmpq   390 <_ZN3mcl2fp10strToArrayImEEmPbPT_mPKcmi+0x390>
 9fa:	66 0f 1f 44 00 00    	nopw   0x0(%rax,%rax,1)
 a00:	41 8d 54 24 a9       	lea    -0x57(%r12),%edx
 a05:	e9 c6 f9 ff ff       	jmpq   3d0 <_ZN3mcl2fp10strToArrayImEEmPbPT_mPKcmi+0x3d0>
 a0a:	4c 89 d9             	mov    %r11,%rcx
 a0d:	4c 89 d2             	mov    %r10,%rdx
 a10:	49 89 d2             	mov    %rdx,%r10
 a13:	e9 69 f6 ff ff       	jmpq   81 <_ZN3mcl2fp10strToArrayImEEmPbPT_mPKcmi+0x81>
 a18:	0f 1f 84 00 00 00 00 	nopl   0x0(%rax,%rax,1)
 a1f:	00 
 a20:	41 8d 54 24 a9       	lea    -0x57(%r12),%edx
 a25:	e9 e6 f9 ff ff       	jmpq   410 <_ZN3mcl2fp10strToArrayImEEmPbPT_mPKcmi+0x410>
 a2a:	66 0f 1f 44 00 00    	nopw   0x0(%rax,%rax,1)
 a30:	41 8d 54 24 a9       	lea    -0x57(%r12),%edx
 a35:	e9 16 fa ff ff       	jmpq   450 <_ZN3mcl2fp10strToArrayImEEmPbPT_mPKcmi+0x450>
 a3a:	66 0f 1f 44 00 00    	nopw   0x0(%rax,%rax,1)
 a40:	44 8d 62 a9          	lea    -0x57(%rdx),%r12d
 a44:	e9 3f fa ff ff       	jmpq   488 <_ZN3mcl2fp10strToArrayImEEmPbPT_mPKcmi+0x488>
 a49:	0f 1f 80 00 00 00 00 	nopl   0x0(%rax)
 a50:	41 8d 54 24 a9       	lea    -0x57(%r12),%edx
 a55:	e9 6e fa ff ff       	jmpq   4c8 <_ZN3mcl2fp10strToArrayImEEmPbPT_mPKcmi+0x4c8>
 a5a:	66 0f 1f 44 00 00    	nopw   0x0(%rax,%rax,1)
 a60:	b9 03 00 00 00       	mov    $0x3,%ecx
 a65:	41 bb 01 00 00 00    	mov    $0x1,%r11d
 a6b:	e9 cd fd ff ff       	jmpq   83d <_ZN3mcl2fp10strToArrayImEEmPbPT_mPKcmi+0x83d>
 a70:	41 83 e1 0f          	and    $0xf,%r9d
 a74:	0f 85 ee fd ff ff    	jne    868 <_ZN3mcl2fp10strToArrayImEEmPbPT_mPKcmi+0x868>
 a7a:	4c 8d 14 0a          	lea    (%rdx,%rcx,1),%r10
 a7e:	49 39 c8             	cmp    %rcx,%r8
 a81:	0f 85 1f f6 ff ff    	jne    a6 <_ZN3mcl2fp10strToArrayImEEmPbPT_mPKcmi+0xa6>
 a87:	e9 dc fd ff ff       	jmpq   868 <_ZN3mcl2fp10strToArrayImEEmPbPT_mPKcmi+0x868>
 a8c:	8d 42 a9             	lea    -0x57(%rdx),%eax
 a8f:	e9 84 fa ff ff       	jmpq   518 <_ZN3mcl2fp10strToArrayImEEmPbPT_mPKcmi+0x518>
 a94:	48 89 14 ef          	mov    %rdx,(%rdi,%rbp,8)
 a98:	e9 ce fd ff ff       	jmpq   86b <_ZN3mcl2fp10strToArrayImEEmPbPT_mPKcmi+0x86b>
 a9d:	8d 51 a9             	lea    -0x57(%rcx),%edx
 aa0:	e9 a5 fa ff ff       	jmpq   54a <_ZN3mcl2fp10strToArrayImEEmPbPT_mPKcmi+0x54a>
 aa5:	8d 51 a9             	lea    -0x57(%rcx),%edx
 aa8:	e9 d6 fa ff ff       	jmpq   583 <_ZN3mcl2fp10strToArrayImEEmPbPT_mPKcmi+0x583>
 aad:	8d 51 a9             	lea    -0x57(%rcx),%edx
 ab0:	e9 07 fb ff ff       	jmpq   5bc <_ZN3mcl2fp10strToArrayImEEmPbPT_mPKcmi+0x5bc>
 ab5:	8d 51 a9             	lea    -0x57(%rcx),%edx
 ab8:	e9 38 fb ff ff       	jmpq   5f5 <_ZN3mcl2fp10strToArrayImEEmPbPT_mPKcmi+0x5f5>
 abd:	8d 51 a9             	lea    -0x57(%rcx),%edx
 ac0:	e9 69 fb ff ff       	jmpq   62e <_ZN3mcl2fp10strToArrayImEEmPbPT_mPKcmi+0x62e>
 ac5:	8d 51 a9             	lea    -0x57(%rcx),%edx
 ac8:	e9 9a fb ff ff       	jmpq   667 <_ZN3mcl2fp10strToArrayImEEmPbPT_mPKcmi+0x667>
 acd:	8d 51 a9             	lea    -0x57(%rcx),%edx
 ad0:	e9 cb fb ff ff       	jmpq   6a0 <_ZN3mcl2fp10strToArrayImEEmPbPT_mPKcmi+0x6a0>
 ad5:	8d 51 a9             	lea    -0x57(%rcx),%edx
 ad8:	e9 fc fb ff ff       	jmpq   6d9 <_ZN3mcl2fp10strToArrayImEEmPbPT_mPKcmi+0x6d9>
 add:	8d 51 a9             	lea    -0x57(%rcx),%edx
 ae0:	e9 2d fc ff ff       	jmpq   712 <_ZN3mcl2fp10strToArrayImEEmPbPT_mPKcmi+0x712>
 ae5:	8d 51 a9             	lea    -0x57(%rcx),%edx
 ae8:	e9 5e fc ff ff       	jmpq   74b <_ZN3mcl2fp10strToArrayImEEmPbPT_mPKcmi+0x74b>
 aed:	8d 51 a9             	lea    -0x57(%rcx),%edx
 af0:	e9 8f fc ff ff       	jmpq   784 <_ZN3mcl2fp10strToArrayImEEmPbPT_mPKcmi+0x784>
 af5:	8d 51 a9             	lea    -0x57(%rcx),%edx
 af8:	e9 c0 fc ff ff       	jmpq   7bd <_ZN3mcl2fp10strToArrayImEEmPbPT_mPKcmi+0x7bd>
 afd:	8d 51 a9             	lea    -0x57(%rcx),%edx
 b00:	e9 e9 fc ff ff       	jmpq   7ee <_ZN3mcl2fp10strToArrayImEEmPbPT_mPKcmi+0x7ee>
 b05:	8d 51 bf             	lea    -0x41(%rcx),%edx
 b08:	83 fa 05             	cmp    $0x5,%edx
 b0b:	0f 87 57 fd ff ff    	ja     868 <_ZN3mcl2fp10strToArrayImEEmPbPT_mPKcmi+0x868>
 b11:	8d 51 c9             	lea    -0x37(%rcx),%edx
 b14:	e9 fe fc ff ff       	jmpq   817 <_ZN3mcl2fp10strToArrayImEEmPbPT_mPKcmi+0x817>
 b19:	4c 89 d2             	mov    %r10,%rdx
 b1c:	49 89 cb             	mov    %rcx,%r11
 b1f:	e9 1e f5 ff ff       	jmpq   42 <_ZN3mcl2fp10strToArrayImEEmPbPT_mPKcmi+0x42>
 b24:	4c 89 d2             	mov    %r10,%rdx
 b27:	41 bb 01 00 00 00    	mov    $0x1,%r11d
 b2d:	e9 10 f5 ff ff       	jmpq   42 <_ZN3mcl2fp10strToArrayImEEmPbPT_mPKcmi+0x42>

Disassembly of section .text._ZNSt7__cxx1110_List_baseIN5Xbyak12LabelManager11SlabelStateESaIS3_EE8_M_clearEv:

0000000000000000 <_ZNSt7__cxx1110_List_baseIN5Xbyak12LabelManager11SlabelStateESaIS3_EE8_M_clearEv>:
   0:	f3 0f 1e fa          	endbr64 
   4:	41 56                	push   %r14
   6:	41 55                	push   %r13
   8:	41 54                	push   %r12
   a:	55                   	push   %rbp
   b:	53                   	push   %rbx
   c:	48 8b 2f             	mov    (%rdi),%rbp
   f:	48 39 fd             	cmp    %rdi,%rbp
  12:	0f 84 2d 01 00 00    	je     145 <_ZNSt7__cxx1110_List_baseIN5Xbyak12LabelManager11SlabelStateESaIS3_EE8_M_clearEv+0x145>
  18:	49 89 fe             	mov    %rdi,%r14
  1b:	0f 1f 44 00 00       	nopl   0x0(%rax,%rax,1)
  20:	4c 8b 65 58          	mov    0x58(%rbp),%r12
  24:	4c 8b 6d 00          	mov    0x0(%rbp),%r13
  28:	4d 85 e4             	test   %r12,%r12
  2b:	75 18                	jne    45 <_ZNSt7__cxx1110_List_baseIN5Xbyak12LabelManager11SlabelStateESaIS3_EE8_M_clearEv+0x45>
  2d:	eb 36                	jmp    65 <_ZNSt7__cxx1110_List_baseIN5Xbyak12LabelManager11SlabelStateESaIS3_EE8_M_clearEv+0x65>
  2f:	90                   	nop
  30:	e8 00 00 00 00       	callq  35 <_ZNSt7__cxx1110_List_baseIN5Xbyak12LabelManager11SlabelStateESaIS3_EE8_M_clearEv+0x35>
  35:	4c 89 e7             	mov    %r12,%rdi
  38:	e8 00 00 00 00       	callq  3d <_ZNSt7__cxx1110_List_baseIN5Xbyak12LabelManager11SlabelStateESaIS3_EE8_M_clearEv+0x3d>
  3d:	48 85 db             	test   %rbx,%rbx
  40:	74 23                	je     65 <_ZNSt7__cxx1110_List_baseIN5Xbyak12LabelManager11SlabelStateESaIS3_EE8_M_clearEv+0x65>
  42:	49 89 dc             	mov    %rbx,%r12
  45:	49 8b 7c 24 08       	mov    0x8(%r12),%rdi
  4a:	49 8d 44 24 18       	lea    0x18(%r12),%rax
  4f:	49 8b 1c 24          	mov    (%r12),%rbx
  53:	48 39 c7             	cmp    %rax,%rdi
  56:	75 d8                	jne    30 <_ZNSt7__cxx1110_List_baseIN5Xbyak12LabelManager11SlabelStateESaIS3_EE8_M_clearEv+0x30>
  58:	4c 89 e7             	mov    %r12,%rdi
  5b:	e8 00 00 00 00       	callq  60 <_ZNSt7__cxx1110_List_baseIN5Xbyak12LabelManager11SlabelStateESaIS3_EE8_M_clearEv+0x60>
  60:	48 85 db             	test   %rbx,%rbx
  63:	75 dd                	jne    42 <_ZNSt7__cxx1110_List_baseIN5Xbyak12LabelManager11SlabelStateESaIS3_EE8_M_clearEv+0x42>
  65:	48 8b 45 50          	mov    0x50(%rbp),%rax
  69:	48 8b 7d 48          	mov    0x48(%rbp),%rdi
  6d:	31 f6                	xor    %esi,%esi
  6f:	48 8d 14 c5 00 00 00 	lea    0x0(,%rax,8),%rdx
  76:	00 
  77:	e8 00 00 00 00       	callq  7c <_ZNSt7__cxx1110_List_baseIN5Xbyak12LabelManager11SlabelStateESaIS3_EE8_M_clearEv+0x7c>
  7c:	48 8b 7d 48          	mov    0x48(%rbp),%rdi
  80:	48 8d 45 78          	lea    0x78(%rbp),%rax
  84:	48 c7 45 60 00 00 00 	movq   $0x0,0x60(%rbp)
  8b:	00 
  8c:	48 c7 45 58 00 00 00 	movq   $0x0,0x58(%rbp)
  93:	00 
  94:	48 39 c7             	cmp    %rax,%rdi
  97:	74 05                	je     9e <_ZNSt7__cxx1110_List_baseIN5Xbyak12LabelManager11SlabelStateESaIS3_EE8_M_clearEv+0x9e>
  99:	e8 00 00 00 00       	callq  9e <_ZNSt7__cxx1110_List_baseIN5Xbyak12LabelManager11SlabelStateESaIS3_EE8_M_clearEv+0x9e>
  9e:	4c 8b 65 20          	mov    0x20(%rbp),%r12
  a2:	4d 85 e4             	test   %r12,%r12
  a5:	75 1e                	jne    c5 <_ZNSt7__cxx1110_List_baseIN5Xbyak12LabelManager11SlabelStateESaIS3_EE8_M_clearEv+0xc5>
  a7:	eb 3c                	jmp    e5 <_ZNSt7__cxx1110_List_baseIN5Xbyak12LabelManager11SlabelStateESaIS3_EE8_M_clearEv+0xe5>
  a9:	0f 1f 80 00 00 00 00 	nopl   0x0(%rax)
  b0:	e8 00 00 00 00       	callq  b5 <_ZNSt7__cxx1110_List_baseIN5Xbyak12LabelManager11SlabelStateESaIS3_EE8_M_clearEv+0xb5>
  b5:	4c 89 e7             	mov    %r12,%rdi
  b8:	e8 00 00 00 00       	callq  bd <_ZNSt7__cxx1110_List_baseIN5Xbyak12LabelManager11SlabelStateESaIS3_EE8_M_clearEv+0xbd>
  bd:	48 85 db             	test   %rbx,%rbx
  c0:	74 23                	je     e5 <_ZNSt7__cxx1110_List_baseIN5Xbyak12LabelManager11SlabelStateESaIS3_EE8_M_clearEv+0xe5>
  c2:	49 89 dc             	mov    %rbx,%r12
  c5:	49 8b 7c 24 08       	mov    0x8(%r12),%rdi
  ca:	49 8d 44 24 18       	lea    0x18(%r12),%rax
  cf:	49 8b 1c 24          	mov    (%r12),%rbx
  d3:	48 39 c7             	cmp    %rax,%rdi
  d6:	75 d8                	jne    b0 <_ZNSt7__cxx1110_List_baseIN5Xbyak12LabelManager11SlabelStateESaIS3_EE8_M_clearEv+0xb0>
  d8:	4c 89 e7             	mov    %r12,%rdi
  db:	e8 00 00 00 00       	callq  e0 <_ZNSt7__cxx1110_List_baseIN5Xbyak12LabelManager11SlabelStateESaIS3_EE8_M_clearEv+0xe0>
  e0:	48 85 db             	test   %rbx,%rbx
  e3:	75 dd                	jne    c2 <_ZNSt7__cxx1110_List_baseIN5Xbyak12LabelManager11SlabelStateESaIS3_EE8_M_clearEv+0xc2>
  e5:	48 8b 45 18          	mov    0x18(%rbp),%rax
  e9:	48 8b 7d 10          	mov    0x10(%rbp),%rdi
  ed:	31 f6                	xor    %esi,%esi
  ef:	48 8d 14 c5 00 00 00 	lea    0x0(,%rax,8),%rdx
  f6:	00 
  f7:	e8 00 00 00 00       	callq  fc <_ZNSt7__cxx1110_List_baseIN5Xbyak12LabelManager11SlabelStateESaIS3_EE8_M_clearEv+0xfc>
  fc:	48 8b 7d 10          	mov    0x10(%rbp),%rdi
 100:	48 8d 45 40          	lea    0x40(%rbp),%rax
 104:	48 c7 45 28 00 00 00 	movq   $0x0,0x28(%rbp)
 10b:	00 
 10c:	48 c7 45 20 00 00 00 	movq   $0x0,0x20(%rbp)
 113:	00 
 114:	48 39 c7             	cmp    %rax,%rdi
 117:	74 1f                	je     138 <_ZNSt7__cxx1110_List_baseIN5Xbyak12LabelManager11SlabelStateESaIS3_EE8_M_clearEv+0x138>
 119:	e8 00 00 00 00       	callq  11e <_ZNSt7__cxx1110_List_baseIN5Xbyak12LabelManager11SlabelStateESaIS3_EE8_M_clearEv+0x11e>
 11e:	48 89 ef             	mov    %rbp,%rdi
 121:	e8 00 00 00 00       	callq  126 <_ZNSt7__cxx1110_List_baseIN5Xbyak12LabelManager11SlabelStateESaIS3_EE8_M_clearEv+0x126>
 126:	4d 39 f5             	cmp    %r14,%r13
 129:	74 1a                	je     145 <_ZNSt7__cxx1110_List_baseIN5Xbyak12LabelManager11SlabelStateESaIS3_EE8_M_clearEv+0x145>
 12b:	4c 89 ed             	mov    %r13,%rbp
 12e:	e9 ed fe ff ff       	jmpq   20 <_ZNSt7__cxx1110_List_baseIN5Xbyak12LabelManager11SlabelStateESaIS3_EE8_M_clearEv+0x20>
 133:	0f 1f 44 00 00       	nopl   0x0(%rax,%rax,1)
 138:	48 89 ef             	mov    %rbp,%rdi
 13b:	e8 00 00 00 00       	callq  140 <_ZNSt7__cxx1110_List_baseIN5Xbyak12LabelManager11SlabelStateESaIS3_EE8_M_clearEv+0x140>
 140:	4d 39 f5             	cmp    %r14,%r13
 143:	75 e6                	jne    12b <_ZNSt7__cxx1110_List_baseIN5Xbyak12LabelManager11SlabelStateESaIS3_EE8_M_clearEv+0x12b>
 145:	5b                   	pop    %rbx
 146:	5d                   	pop    %rbp
 147:	41 5c                	pop    %r12
 149:	41 5d                	pop    %r13
 14b:	41 5e                	pop    %r14
 14d:	c3                   	retq   

Disassembly of section .text._ZN4CodeD0Ev:

0000000000000000 <_ZN4CodeD0Ev>:
   0:	f3 0f 1e fa          	endbr64 
   4:	48 8b 05 00 00 00 00 	mov    0x0(%rip),%rax        # b <_ZN4CodeD0Ev+0xb>
   b:	41 54                	push   %r12
   d:	55                   	push   %rbp
   e:	48 89 fd             	mov    %rdi,%rbp
  11:	53                   	push   %rbx
  12:	48 8b 9f 38 01 00 00 	mov    0x138(%rdi),%rbx
  19:	48 83 c0 10          	add    $0x10,%rax
  1d:	48 89 07             	mov    %rax,(%rdi)
  20:	48 85 db             	test   %rbx,%rbx
  23:	74 3b                	je     60 <_ZN4CodeD0Ev+0x60>
  25:	48 89 d8             	mov    %rbx,%rax
  28:	0f 1f 84 00 00 00 00 	nopl   0x0(%rax,%rax,1)
  2f:	00 
  30:	48 8b 50 08          	mov    0x8(%rax),%rdx
  34:	48 8b 00             	mov    (%rax),%rax
  37:	48 c7 02 00 00 00 00 	movq   $0x0,(%rdx)
  3e:	c7 42 08 00 00 00 00 	movl   $0x0,0x8(%rdx)
  45:	48 85 c0             	test   %rax,%rax
  48:	75 e6                	jne    30 <_ZN4CodeD0Ev+0x30>
  4a:	66 0f 1f 44 00 00    	nopw   0x0(%rax,%rax,1)
  50:	48 89 df             	mov    %rbx,%rdi
  53:	48 8b 1b             	mov    (%rbx),%rbx
  56:	e8 00 00 00 00       	callq  5b <_ZN4CodeD0Ev+0x5b>
  5b:	48 85 db             	test   %rbx,%rbx
  5e:	75 f0                	jne    50 <_ZN4CodeD0Ev+0x50>
  60:	48 8b 85 30 01 00 00 	mov    0x130(%rbp),%rax
  67:	48 8b bd 28 01 00 00 	mov    0x128(%rbp),%rdi
  6e:	31 f6                	xor    %esi,%esi
  70:	48 8d 14 c5 00 00 00 	lea    0x0(,%rax,8),%rdx
  77:	00 
  78:	e8 00 00 00 00       	callq  7d <_ZN4CodeD0Ev+0x7d>
  7d:	48 8b 85 30 01 00 00 	mov    0x130(%rbp),%rax
  84:	48 8b bd 28 01 00 00 	mov    0x128(%rbp),%rdi
  8b:	31 f6                	xor    %esi,%esi
  8d:	48 8d 14 c5 00 00 00 	lea    0x0(,%rax,8),%rdx
  94:	00 
  95:	e8 00 00 00 00       	callq  9a <_ZN4CodeD0Ev+0x9a>
  9a:	48 8b bd 28 01 00 00 	mov    0x128(%rbp),%rdi
  a1:	48 8d 85 58 01 00 00 	lea    0x158(%rbp),%rax
  a8:	48 c7 85 40 01 00 00 	movq   $0x0,0x140(%rbp)
  af:	00 00 00 00 
  b3:	48 c7 85 38 01 00 00 	movq   $0x0,0x138(%rbp)
  ba:	00 00 00 00 
  be:	48 39 c7             	cmp    %rax,%rdi
  c1:	74 05                	je     c8 <_ZN4CodeD0Ev+0xc8>
  c3:	e8 00 00 00 00       	callq  c8 <_ZN4CodeD0Ev+0xc8>
  c8:	48 8b 9d 00 01 00 00 	mov    0x100(%rbp),%rbx
  cf:	48 85 db             	test   %rbx,%rbx
  d2:	74 14                	je     e8 <_ZN4CodeD0Ev+0xe8>
  d4:	0f 1f 40 00          	nopl   0x0(%rax)
  d8:	48 89 df             	mov    %rbx,%rdi
  db:	48 8b 1b             	mov    (%rbx),%rbx
  de:	e8 00 00 00 00       	callq  e3 <_ZN4CodeD0Ev+0xe3>
  e3:	48 85 db             	test   %rbx,%rbx
  e6:	75 f0                	jne    d8 <_ZN4CodeD0Ev+0xd8>
  e8:	48 8b 85 f8 00 00 00 	mov    0xf8(%rbp),%rax
  ef:	48 8b bd f0 00 00 00 	mov    0xf0(%rbp),%rdi
  f6:	31 f6                	xor    %esi,%esi
  f8:	48 8d 14 c5 00 00 00 	lea    0x0(,%rax,8),%rdx
  ff:	00 
 100:	e8 00 00 00 00       	callq  105 <_ZN4CodeD0Ev+0x105>
 105:	48 8b bd f0 00 00 00 	mov    0xf0(%rbp),%rdi
 10c:	48 8d 85 20 01 00 00 	lea    0x120(%rbp),%rax
 113:	48 c7 85 08 01 00 00 	movq   $0x0,0x108(%rbp)
 11a:	00 00 00 00 
 11e:	48 c7 85 00 01 00 00 	movq   $0x0,0x100(%rbp)
 125:	00 00 00 00 
 129:	48 39 c7             	cmp    %rax,%rdi
 12c:	74 05                	je     133 <_ZN4CodeD0Ev+0x133>
 12e:	e8 00 00 00 00       	callq  133 <_ZN4CodeD0Ev+0x133>
 133:	48 8b 9d c8 00 00 00 	mov    0xc8(%rbp),%rbx
 13a:	48 85 db             	test   %rbx,%rbx
 13d:	74 11                	je     150 <_ZN4CodeD0Ev+0x150>
 13f:	90                   	nop
 140:	48 89 df             	mov    %rbx,%rdi
 143:	48 8b 1b             	mov    (%rbx),%rbx
 146:	e8 00 00 00 00       	callq  14b <_ZN4CodeD0Ev+0x14b>
 14b:	48 85 db             	test   %rbx,%rbx
 14e:	75 f0                	jne    140 <_ZN4CodeD0Ev+0x140>
 150:	48 8b 85 c0 00 00 00 	mov    0xc0(%rbp),%rax
 157:	48 8b bd b8 00 00 00 	mov    0xb8(%rbp),%rdi
 15e:	31 f6                	xor    %esi,%esi
 160:	48 8d 14 c5 00 00 00 	lea    0x0(,%rax,8),%rdx
 167:	00 
 168:	e8 00 00 00 00       	callq  16d <_ZN4CodeD0Ev+0x16d>
 16d:	48 8b bd b8 00 00 00 	mov    0xb8(%rbp),%rdi
 174:	48 8d 85 e8 00 00 00 	lea    0xe8(%rbp),%rax
 17b:	48 c7 85 d0 00 00 00 	movq   $0x0,0xd0(%rbp)
 182:	00 00 00 00 
 186:	48 c7 85 c8 00 00 00 	movq   $0x0,0xc8(%rbp)
 18d:	00 00 00 00 
 191:	48 39 c7             	cmp    %rax,%rdi
 194:	74 05                	je     19b <_ZN4CodeD0Ev+0x19b>
 196:	e8 00 00 00 00       	callq  19b <_ZN4CodeD0Ev+0x19b>
 19b:	48 8d bd 98 00 00 00 	lea    0x98(%rbp),%rdi
 1a2:	e8 00 00 00 00       	callq  1a7 <_ZN4CodeD0Ev+0x1a7>
 1a7:	48 8b 05 00 00 00 00 	mov    0x0(%rip),%rax        # 1ae <_ZN4CodeD0Ev+0x1ae>
 1ae:	48 83 c0 10          	add    $0x10,%rax
 1b2:	48 89 45 00          	mov    %rax,0x0(%rbp)
 1b6:	8b 45 20             	mov    0x20(%rbp),%eax
 1b9:	83 e8 02             	sub    $0x2,%eax
 1bc:	83 f8 01             	cmp    $0x1,%eax
 1bf:	0f 86 a3 00 00 00    	jbe    268 <_ZN4CodeD0Ev+0x268>
 1c5:	48 8b 05 00 00 00 00 	mov    0x0(%rip),%rax        # 1cc <_ZN4CodeD0Ev+0x1cc>
 1cc:	48 8b 5d 40          	mov    0x40(%rbp),%rbx
 1d0:	48 83 c0 10          	add    $0x10,%rax
 1d4:	48 89 45 28          	mov    %rax,0x28(%rbp)
 1d8:	48 85 db             	test   %rbx,%rbx
 1db:	74 13                	je     1f0 <_ZN4CodeD0Ev+0x1f0>
 1dd:	0f 1f 00             	nopl   (%rax)
 1e0:	48 89 df             	mov    %rbx,%rdi
 1e3:	48 8b 1b             	mov    (%rbx),%rbx
 1e6:	e8 00 00 00 00       	callq  1eb <_ZN4CodeD0Ev+0x1eb>
 1eb:	48 85 db             	test   %rbx,%rbx
 1ee:	75 f0                	jne    1e0 <_ZN4CodeD0Ev+0x1e0>
 1f0:	48 8b 45 38          	mov    0x38(%rbp),%rax
 1f4:	48 8b 7d 30          	mov    0x30(%rbp),%rdi
 1f8:	31 f6                	xor    %esi,%esi
 1fa:	48 8d 14 c5 00 00 00 	lea    0x0(,%rax,8),%rdx
 201:	00 
 202:	e8 00 00 00 00       	callq  207 <_ZN4CodeD0Ev+0x207>
 207:	48 8b 7d 30          	mov    0x30(%rbp),%rdi
 20b:	48 8d 45 60          	lea    0x60(%rbp),%rax
 20f:	48 c7 45 48 00 00 00 	movq   $0x0,0x48(%rbp)
 216:	00 
 217:	48 c7 45 40 00 00 00 	movq   $0x0,0x40(%rbp)
 21e:	00 
 21f:	48 39 c7             	cmp    %rax,%rdi
 222:	74 05                	je     229 <_ZN4CodeD0Ev+0x229>
 224:	e8 00 00 00 00       	callq  229 <_ZN4CodeD0Ev+0x229>
 229:	48 8b 5d 08          	mov    0x8(%rbp),%rbx
 22d:	4c 8d 65 08          	lea    0x8(%rbp),%r12
 231:	4c 39 e3             	cmp    %r12,%rbx
 234:	74 1a                	je     250 <_ZN4CodeD0Ev+0x250>
 236:	66 2e 0f 1f 84 00 00 	nopw   %cs:0x0(%rax,%rax,1)
 23d:	00 00 00 
 240:	48 89 df             	mov    %rbx,%rdi
 243:	48 8b 1b             	mov    (%rbx),%rbx
 246:	e8 00 00 00 00       	callq  24b <_ZN4CodeD0Ev+0x24b>
 24b:	4c 39 e3             	cmp    %r12,%rbx
 24e:	75 f0                	jne    240 <_ZN4CodeD0Ev+0x240>
 250:	5b                   	pop    %rbx
 251:	48 89 ef             	mov    %rbp,%rdi
 254:	be 20 0c 00 00       	mov    $0xc20,%esi
 259:	5d                   	pop    %rbp
 25a:	41 5c                	pop    %r12
 25c:	e9 00 00 00 00       	jmpq   261 <_ZN4CodeD0Ev+0x261>
 261:	0f 1f 80 00 00 00 00 	nopl   0x0(%rax)
 268:	48 8b 7d 68          	mov    0x68(%rbp),%rdi
 26c:	48 8b 07             	mov    (%rdi),%rax
 26f:	48 8b 40 20          	mov    0x20(%rax),%rax
 273:	48 3b 05 00 00 00 00 	cmp    0x0(%rip),%rax        # 27a <_ZN4CodeD0Ev+0x27a>
 27a:	75 44                	jne    2c0 <_ZN4CodeD0Ev+0x2c0>
 27c:	bf 1e 00 00 00       	mov    $0x1e,%edi
 281:	4c 8b 65 78          	mov    0x78(%rbp),%r12
 285:	48 8b 5d 70          	mov    0x70(%rbp),%rbx
 289:	e8 00 00 00 00       	callq  28e <_ZN4CodeD0Ev+0x28e>
 28e:	ba 03 00 00 00       	mov    $0x3,%edx
 293:	48 f7 d8             	neg    %rax
 296:	4a 8d 34 23          	lea    (%rbx,%r12,1),%rsi
 29a:	48 89 c7             	mov    %rax,%rdi
 29d:	4c 21 e7             	and    %r12,%rdi
 2a0:	48 29 fe             	sub    %rdi,%rsi
 2a3:	e8 00 00 00 00       	callq  2a8 <_ZN4CodeD0Ev+0x2a8>
 2a8:	48 8b 7d 68          	mov    0x68(%rbp),%rdi
 2ac:	48 8b 75 78          	mov    0x78(%rbp),%rsi
 2b0:	48 8b 07             	mov    (%rdi),%rax
 2b3:	ff 50 08             	callq  *0x8(%rax)
 2b6:	e9 0a ff ff ff       	jmpq   1c5 <_ZN4CodeD0Ev+0x1c5>
 2bb:	0f 1f 44 00 00       	nopl   0x0(%rax,%rax,1)
 2c0:	ff d0                	callq  *%rax
 2c2:	84 c0                	test   %al,%al
 2c4:	74 e2                	je     2a8 <_ZN4CodeD0Ev+0x2a8>
 2c6:	eb b4                	jmp    27c <_ZN4CodeD0Ev+0x27c>

Disassembly of section .text._ZN5Xbyak12LabelManager5resetEv:

0000000000000000 <_ZN5Xbyak12LabelManager5resetEv>:
   0:	f3 0f 1e fa          	endbr64 
   4:	41 57                	push   %r15
   6:	41 56                	push   %r14
   8:	4c 8d 77 08          	lea    0x8(%rdi),%r14
   c:	41 55                	push   %r13
   e:	41 54                	push   %r12
  10:	55                   	push   %rbp
  11:	53                   	push   %rbx
  12:	48 89 fb             	mov    %rdi,%rbx
  15:	48 83 ec 78          	sub    $0x78,%rsp
  19:	48 c7 07 00 00 00 00 	movq   $0x0,(%rdi)
  20:	c7 47 20 01 00 00 00 	movl   $0x1,0x20(%rdi)
  27:	4c 89 f7             	mov    %r14,%rdi
  2a:	4c 8d 64 24 30       	lea    0x30(%rsp),%r12
  2f:	4c 8d 6c 24 68       	lea    0x68(%rsp),%r13
  34:	e8 00 00 00 00       	callq  39 <_ZN5Xbyak12LabelManager5resetEv+0x39>
  39:	66 49 0f 6e c6       	movq   %r14,%xmm0
  3e:	bf 80 00 00 00       	mov    $0x80,%edi
  43:	48 c7 43 18 00 00 00 	movq   $0x0,0x18(%rbx)
  4a:	00 
  4b:	66 0f 6c c0          	punpcklqdq %xmm0,%xmm0
  4f:	4c 89 24 24          	mov    %r12,(%rsp)
  53:	0f 11 43 08          	movups %xmm0,0x8(%rbx)
  57:	48 c7 44 24 08 01 00 	movq   $0x1,0x8(%rsp)
  5e:	00 00 
  60:	48 c7 44 24 10 00 00 	movq   $0x0,0x10(%rsp)
  67:	00 00 
  69:	48 c7 44 24 18 00 00 	movq   $0x0,0x18(%rsp)
  70:	00 00 
  72:	c7 44 24 20 00 00 80 	movl   $0x3f800000,0x20(%rsp)
  79:	3f 
  7a:	48 c7 44 24 28 00 00 	movq   $0x0,0x28(%rsp)
  81:	00 00 
  83:	48 c7 44 24 30 00 00 	movq   $0x0,0x30(%rsp)
  8a:	00 00 
  8c:	4c 89 6c 24 38       	mov    %r13,0x38(%rsp)
  91:	48 c7 44 24 40 01 00 	movq   $0x1,0x40(%rsp)
  98:	00 00 
  9a:	48 c7 44 24 48 00 00 	movq   $0x0,0x48(%rsp)
  a1:	00 00 
  a3:	48 c7 44 24 50 00 00 	movq   $0x0,0x50(%rsp)
  aa:	00 00 
  ac:	c7 44 24 58 00 00 80 	movl   $0x3f800000,0x58(%rsp)
  b3:	3f 
  b4:	48 c7 44 24 60 00 00 	movq   $0x0,0x60(%rsp)
  bb:	00 00 
  bd:	48 c7 44 24 68 00 00 	movq   $0x0,0x68(%rsp)
  c4:	00 00 
  c6:	e8 00 00 00 00       	callq  cb <_ZN5Xbyak12LabelManager5resetEv+0xcb>
  cb:	48 8b 0c 24          	mov    (%rsp),%rcx
  cf:	48 8b 74 24 08       	mov    0x8(%rsp),%rsi
  d4:	48 89 c7             	mov    %rax,%rdi
  d7:	48 8b 54 24 18       	mov    0x18(%rsp),%rdx
  dc:	66 0f 6f 4c 24 20    	movdqa 0x20(%rsp),%xmm1
  e2:	48 89 48 10          	mov    %rcx,0x10(%rax)
  e6:	48 89 70 18          	mov    %rsi,0x18(%rax)
  ea:	48 8b 44 24 10       	mov    0x10(%rsp),%rax
  ef:	48 89 57 28          	mov    %rdx,0x28(%rdi)
  f3:	48 89 47 20          	mov    %rax,0x20(%rdi)
  f7:	48 c7 47 40 00 00 00 	movq   $0x0,0x40(%rdi)
  fe:	00 
  ff:	0f 11 4f 30          	movups %xmm1,0x30(%rdi)
 103:	4c 39 e1             	cmp    %r12,%rcx
 106:	0f 84 8c 05 00 00    	je     698 <_ZN5Xbyak12LabelManager5resetEv+0x698>
 10c:	48 85 c0             	test   %rax,%rax
 10f:	74 11                	je     122 <_ZN5Xbyak12LabelManager5resetEv+0x122>
 111:	48 8b 40 30          	mov    0x30(%rax),%rax
 115:	31 d2                	xor    %edx,%edx
 117:	48 f7 f6             	div    %rsi
 11a:	48 8d 47 20          	lea    0x20(%rdi),%rax
 11e:	48 89 04 d1          	mov    %rax,(%rcx,%rdx,8)
 122:	48 8b 4c 24 38       	mov    0x38(%rsp),%rcx
 127:	48 8b 74 24 40       	mov    0x40(%rsp),%rsi
 12c:	4c 89 24 24          	mov    %r12,(%rsp)
 130:	48 8b 44 24 48       	mov    0x48(%rsp),%rax
 135:	48 8b 54 24 50       	mov    0x50(%rsp),%rdx
 13a:	48 c7 44 24 28 00 00 	movq   $0x0,0x28(%rsp)
 141:	00 00 
 143:	f3 0f 6f 54 24 58    	movdqu 0x58(%rsp),%xmm2
 149:	48 89 4f 48          	mov    %rcx,0x48(%rdi)
 14d:	48 c7 44 24 08 01 00 	movq   $0x1,0x8(%rsp)
 154:	00 00 
 156:	48 c7 44 24 30 00 00 	movq   $0x0,0x30(%rsp)
 15d:	00 00 
 15f:	48 c7 44 24 10 00 00 	movq   $0x0,0x10(%rsp)
 166:	00 00 
 168:	48 c7 44 24 18 00 00 	movq   $0x0,0x18(%rsp)
 16f:	00 00 
 171:	48 89 77 50          	mov    %rsi,0x50(%rdi)
 175:	48 89 47 58          	mov    %rax,0x58(%rdi)
 179:	48 89 57 60          	mov    %rdx,0x60(%rdi)
 17d:	48 c7 47 78 00 00 00 	movq   $0x0,0x78(%rdi)
 184:	00 
 185:	0f 11 57 68          	movups %xmm2,0x68(%rdi)
 189:	4c 39 e9             	cmp    %r13,%rcx
 18c:	0f 84 1e 05 00 00    	je     6b0 <_ZN5Xbyak12LabelManager5resetEv+0x6b0>
 192:	48 85 c0             	test   %rax,%rax
 195:	74 11                	je     1a8 <_ZN5Xbyak12LabelManager5resetEv+0x1a8>
 197:	48 8b 40 40          	mov    0x40(%rax),%rax
 19b:	31 d2                	xor    %edx,%edx
 19d:	48 f7 f6             	div    %rsi
 1a0:	48 8d 47 58          	lea    0x58(%rdi),%rax
 1a4:	48 89 04 d1          	mov    %rax,(%rcx,%rdx,8)
 1a8:	4c 89 f6             	mov    %r14,%rsi
 1ab:	4c 89 6c 24 38       	mov    %r13,0x38(%rsp)
 1b0:	48 c7 44 24 60 00 00 	movq   $0x0,0x60(%rsp)
 1b7:	00 00 
 1b9:	48 c7 44 24 40 01 00 	movq   $0x1,0x40(%rsp)
 1c0:	00 00 
 1c2:	48 c7 44 24 68 00 00 	movq   $0x0,0x68(%rsp)
 1c9:	00 00 
 1cb:	48 c7 44 24 48 00 00 	movq   $0x0,0x48(%rsp)
 1d2:	00 00 
 1d4:	48 c7 44 24 50 00 00 	movq   $0x0,0x50(%rsp)
 1db:	00 00 
 1dd:	e8 00 00 00 00       	callq  1e2 <_ZN5Xbyak12LabelManager5resetEv+0x1e2>
 1e2:	48 8b 6c 24 48       	mov    0x48(%rsp),%rbp
 1e7:	48 83 43 18 01       	addq   $0x1,0x18(%rbx)
 1ec:	48 85 ed             	test   %rbp,%rbp
 1ef:	75 1c                	jne    20d <_ZN5Xbyak12LabelManager5resetEv+0x20d>
 1f1:	eb 38                	jmp    22b <_ZN5Xbyak12LabelManager5resetEv+0x22b>
 1f3:	0f 1f 44 00 00       	nopl   0x0(%rax,%rax,1)
 1f8:	e8 00 00 00 00       	callq  1fd <_ZN5Xbyak12LabelManager5resetEv+0x1fd>
 1fd:	48 89 ef             	mov    %rbp,%rdi
 200:	e8 00 00 00 00       	callq  205 <_ZN5Xbyak12LabelManager5resetEv+0x205>
 205:	4d 85 ff             	test   %r15,%r15
 208:	74 21                	je     22b <_ZN5Xbyak12LabelManager5resetEv+0x22b>
 20a:	4c 89 fd             	mov    %r15,%rbp
 20d:	48 8b 7d 08          	mov    0x8(%rbp),%rdi
 211:	48 8d 45 18          	lea    0x18(%rbp),%rax
 215:	4c 8b 7d 00          	mov    0x0(%rbp),%r15
 219:	48 39 c7             	cmp    %rax,%rdi
 21c:	75 da                	jne    1f8 <_ZN5Xbyak12LabelManager5resetEv+0x1f8>
 21e:	48 89 ef             	mov    %rbp,%rdi
 221:	e8 00 00 00 00       	callq  226 <_ZN5Xbyak12LabelManager5resetEv+0x226>
 226:	4d 85 ff             	test   %r15,%r15
 229:	75 df                	jne    20a <_ZN5Xbyak12LabelManager5resetEv+0x20a>
 22b:	48 8b 44 24 40       	mov    0x40(%rsp),%rax
 230:	48 8b 7c 24 38       	mov    0x38(%rsp),%rdi
 235:	31 f6                	xor    %esi,%esi
 237:	48 8d 14 c5 00 00 00 	lea    0x0(,%rax,8),%rdx
 23e:	00 
 23f:	e8 00 00 00 00       	callq  244 <_ZN5Xbyak12LabelManager5resetEv+0x244>
 244:	48 8b 7c 24 38       	mov    0x38(%rsp),%rdi
 249:	48 c7 44 24 50 00 00 	movq   $0x0,0x50(%rsp)
 250:	00 00 
 252:	48 c7 44 24 48 00 00 	movq   $0x0,0x48(%rsp)
 259:	00 00 
 25b:	4c 39 ef             	cmp    %r13,%rdi
 25e:	74 05                	je     265 <_ZN5Xbyak12LabelManager5resetEv+0x265>
 260:	e8 00 00 00 00       	callq  265 <_ZN5Xbyak12LabelManager5resetEv+0x265>
 265:	48 8b 6c 24 10       	mov    0x10(%rsp),%rbp
 26a:	48 85 ed             	test   %rbp,%rbp
 26d:	75 1e                	jne    28d <_ZN5Xbyak12LabelManager5resetEv+0x28d>
 26f:	eb 3a                	jmp    2ab <_ZN5Xbyak12LabelManager5resetEv+0x2ab>
 271:	0f 1f 80 00 00 00 00 	nopl   0x0(%rax)
 278:	e8 00 00 00 00       	callq  27d <_ZN5Xbyak12LabelManager5resetEv+0x27d>
 27d:	48 89 ef             	mov    %rbp,%rdi
 280:	e8 00 00 00 00       	callq  285 <_ZN5Xbyak12LabelManager5resetEv+0x285>
 285:	4d 85 ff             	test   %r15,%r15
 288:	74 21                	je     2ab <_ZN5Xbyak12LabelManager5resetEv+0x2ab>
 28a:	4c 89 fd             	mov    %r15,%rbp
 28d:	48 8b 7d 08          	mov    0x8(%rbp),%rdi
 291:	48 8d 45 18          	lea    0x18(%rbp),%rax
 295:	4c 8b 7d 00          	mov    0x0(%rbp),%r15
 299:	48 39 c7             	cmp    %rax,%rdi
 29c:	75 da                	jne    278 <_ZN5Xbyak12LabelManager5resetEv+0x278>
 29e:	48 89 ef             	mov    %rbp,%rdi
 2a1:	e8 00 00 00 00       	callq  2a6 <_ZN5Xbyak12LabelManager5resetEv+0x2a6>
 2a6:	4d 85 ff             	test   %r15,%r15
 2a9:	75 df                	jne    28a <_ZN5Xbyak12LabelManager5resetEv+0x28a>
 2ab:	48 8b 44 24 08       	mov    0x8(%rsp),%rax
 2b0:	48 8b 3c 24          	mov    (%rsp),%rdi
 2b4:	31 f6                	xor    %esi,%esi
 2b6:	48 8d 14 c5 00 00 00 	lea    0x0(,%rax,8),%rdx
 2bd:	00 
 2be:	e8 00 00 00 00       	callq  2c3 <_ZN5Xbyak12LabelManager5resetEv+0x2c3>
 2c3:	48 8b 3c 24          	mov    (%rsp),%rdi
 2c7:	48 c7 44 24 18 00 00 	movq   $0x0,0x18(%rsp)
 2ce:	00 00 
 2d0:	48 c7 44 24 10 00 00 	movq   $0x0,0x10(%rsp)
 2d7:	00 00 
 2d9:	4c 39 e7             	cmp    %r12,%rdi
 2dc:	74 05                	je     2e3 <_ZN5Xbyak12LabelManager5resetEv+0x2e3>
 2de:	e8 00 00 00 00       	callq  2e3 <_ZN5Xbyak12LabelManager5resetEv+0x2e3>
 2e3:	bf 80 00 00 00       	mov    $0x80,%edi
 2e8:	4c 89 24 24          	mov    %r12,(%rsp)
 2ec:	48 c7 44 24 08 01 00 	movq   $0x1,0x8(%rsp)
 2f3:	00 00 
 2f5:	48 c7 44 24 10 00 00 	movq   $0x0,0x10(%rsp)
 2fc:	00 00 
 2fe:	48 c7 44 24 18 00 00 	movq   $0x0,0x18(%rsp)
 305:	00 00 
 307:	c7 44 24 20 00 00 80 	movl   $0x3f800000,0x20(%rsp)
 30e:	3f 
 30f:	48 c7 44 24 28 00 00 	movq   $0x0,0x28(%rsp)
 316:	00 00 
 318:	48 c7 44 24 30 00 00 	movq   $0x0,0x30(%rsp)
 31f:	00 00 
 321:	4c 89 6c 24 38       	mov    %r13,0x38(%rsp)
 326:	48 c7 44 24 40 01 00 	movq   $0x1,0x40(%rsp)
 32d:	00 00 
 32f:	48 c7 44 24 48 00 00 	movq   $0x0,0x48(%rsp)
 336:	00 00 
 338:	48 c7 44 24 50 00 00 	movq   $0x0,0x50(%rsp)
 33f:	00 00 
 341:	c7 44 24 58 00 00 80 	movl   $0x3f800000,0x58(%rsp)
 348:	3f 
 349:	48 c7 44 24 60 00 00 	movq   $0x0,0x60(%rsp)
 350:	00 00 
 352:	48 c7 44 24 68 00 00 	movq   $0x0,0x68(%rsp)
 359:	00 00 
 35b:	e8 00 00 00 00       	callq  360 <_ZN5Xbyak12LabelManager5resetEv+0x360>
 360:	48 8b 0c 24          	mov    (%rsp),%rcx
 364:	48 8b 74 24 08       	mov    0x8(%rsp),%rsi
 369:	48 89 c7             	mov    %rax,%rdi
 36c:	48 8b 54 24 18       	mov    0x18(%rsp),%rdx
 371:	66 0f 6f 5c 24 20    	movdqa 0x20(%rsp),%xmm3
 377:	48 89 48 10          	mov    %rcx,0x10(%rax)
 37b:	48 89 70 18          	mov    %rsi,0x18(%rax)
 37f:	48 8b 44 24 10       	mov    0x10(%rsp),%rax
 384:	48 89 57 28          	mov    %rdx,0x28(%rdi)
 388:	48 89 47 20          	mov    %rax,0x20(%rdi)
 38c:	48 c7 47 40 00 00 00 	movq   $0x0,0x40(%rdi)
 393:	00 
 394:	0f 11 5f 30          	movups %xmm3,0x30(%rdi)
 398:	4c 39 e1             	cmp    %r12,%rcx
 39b:	0f 84 2f 03 00 00    	je     6d0 <_ZN5Xbyak12LabelManager5resetEv+0x6d0>
 3a1:	48 85 c0             	test   %rax,%rax
 3a4:	74 11                	je     3b7 <_ZN5Xbyak12LabelManager5resetEv+0x3b7>
 3a6:	48 8b 40 30          	mov    0x30(%rax),%rax
 3aa:	31 d2                	xor    %edx,%edx
 3ac:	48 f7 f6             	div    %rsi
 3af:	48 8d 47 20          	lea    0x20(%rdi),%rax
 3b3:	48 89 04 d1          	mov    %rax,(%rcx,%rdx,8)
 3b7:	48 8b 4c 24 38       	mov    0x38(%rsp),%rcx
 3bc:	48 8b 74 24 40       	mov    0x40(%rsp),%rsi
 3c1:	4c 89 24 24          	mov    %r12,(%rsp)
 3c5:	48 8b 44 24 48       	mov    0x48(%rsp),%rax
 3ca:	48 8b 54 24 50       	mov    0x50(%rsp),%rdx
 3cf:	48 c7 44 24 28 00 00 	movq   $0x0,0x28(%rsp)
 3d6:	00 00 
 3d8:	f3 0f 6f 64 24 58    	movdqu 0x58(%rsp),%xmm4
 3de:	48 89 4f 48          	mov    %rcx,0x48(%rdi)
 3e2:	48 c7 44 24 08 01 00 	movq   $0x1,0x8(%rsp)
 3e9:	00 00 
 3eb:	48 c7 44 24 30 00 00 	movq   $0x0,0x30(%rsp)
 3f2:	00 00 
 3f4:	48 c7 44 24 10 00 00 	movq   $0x0,0x10(%rsp)
 3fb:	00 00 
 3fd:	48 c7 44 24 18 00 00 	movq   $0x0,0x18(%rsp)
 404:	00 00 
 406:	48 89 77 50          	mov    %rsi,0x50(%rdi)
 40a:	48 89 47 58          	mov    %rax,0x58(%rdi)
 40e:	48 89 57 60          	mov    %rdx,0x60(%rdi)
 412:	48 c7 47 78 00 00 00 	movq   $0x0,0x78(%rdi)
 419:	00 
 41a:	0f 11 67 68          	movups %xmm4,0x68(%rdi)
 41e:	4c 39 e9             	cmp    %r13,%rcx
 421:	0f 84 c9 02 00 00    	je     6f0 <_ZN5Xbyak12LabelManager5resetEv+0x6f0>
 427:	48 85 c0             	test   %rax,%rax
 42a:	74 11                	je     43d <_ZN5Xbyak12LabelManager5resetEv+0x43d>
 42c:	48 8b 40 40          	mov    0x40(%rax),%rax
 430:	31 d2                	xor    %edx,%edx
 432:	48 f7 f6             	div    %rsi
 435:	48 8d 47 58          	lea    0x58(%rdi),%rax
 439:	48 89 04 d1          	mov    %rax,(%rcx,%rdx,8)
 43d:	4c 89 f6             	mov    %r14,%rsi
 440:	4c 89 6c 24 38       	mov    %r13,0x38(%rsp)
 445:	48 c7 44 24 60 00 00 	movq   $0x0,0x60(%rsp)
 44c:	00 00 
 44e:	48 c7 44 24 40 01 00 	movq   $0x1,0x40(%rsp)
 455:	00 00 
 457:	48 c7 44 24 68 00 00 	movq   $0x0,0x68(%rsp)
 45e:	00 00 
 460:	48 c7 44 24 48 00 00 	movq   $0x0,0x48(%rsp)
 467:	00 00 
 469:	48 c7 44 24 50 00 00 	movq   $0x0,0x50(%rsp)
 470:	00 00 
 472:	e8 00 00 00 00       	callq  477 <_ZN5Xbyak12LabelManager5resetEv+0x477>
 477:	48 8b 6c 24 48       	mov    0x48(%rsp),%rbp
 47c:	48 83 43 18 01       	addq   $0x1,0x18(%rbx)
 481:	48 85 ed             	test   %rbp,%rbp
 484:	75 1f                	jne    4a5 <_ZN5Xbyak12LabelManager5resetEv+0x4a5>
 486:	eb 3b                	jmp    4c3 <_ZN5Xbyak12LabelManager5resetEv+0x4c3>
 488:	0f 1f 84 00 00 00 00 	nopl   0x0(%rax,%rax,1)
 48f:	00 
 490:	e8 00 00 00 00       	callq  495 <_ZN5Xbyak12LabelManager5resetEv+0x495>
 495:	48 89 ef             	mov    %rbp,%rdi
 498:	e8 00 00 00 00       	callq  49d <_ZN5Xbyak12LabelManager5resetEv+0x49d>
 49d:	4d 85 f6             	test   %r14,%r14
 4a0:	74 21                	je     4c3 <_ZN5Xbyak12LabelManager5resetEv+0x4c3>
 4a2:	4c 89 f5             	mov    %r14,%rbp
 4a5:	48 8b 7d 08          	mov    0x8(%rbp),%rdi
 4a9:	48 8d 45 18          	lea    0x18(%rbp),%rax
 4ad:	4c 8b 75 00          	mov    0x0(%rbp),%r14
 4b1:	48 39 c7             	cmp    %rax,%rdi
 4b4:	75 da                	jne    490 <_ZN5Xbyak12LabelManager5resetEv+0x490>
 4b6:	48 89 ef             	mov    %rbp,%rdi
 4b9:	e8 00 00 00 00       	callq  4be <_ZN5Xbyak12LabelManager5resetEv+0x4be>
 4be:	4d 85 f6             	test   %r14,%r14
 4c1:	75 df                	jne    4a2 <_ZN5Xbyak12LabelManager5resetEv+0x4a2>
 4c3:	48 8b 44 24 40       	mov    0x40(%rsp),%rax
 4c8:	48 8b 7c 24 38       	mov    0x38(%rsp),%rdi
 4cd:	31 f6                	xor    %esi,%esi
 4cf:	48 8d 14 c5 00 00 00 	lea    0x0(,%rax,8),%rdx
 4d6:	00 
 4d7:	e8 00 00 00 00       	callq  4dc <_ZN5Xbyak12LabelManager5resetEv+0x4dc>
 4dc:	48 8b 7c 24 38       	mov    0x38(%rsp),%rdi
 4e1:	48 c7 44 24 50 00 00 	movq   $0x0,0x50(%rsp)
 4e8:	00 00 
 4ea:	48 c7 44 24 48 00 00 	movq   $0x0,0x48(%rsp)
 4f1:	00 00 
 4f3:	4c 39 ef             	cmp    %r13,%rdi
 4f6:	74 05                	je     4fd <_ZN5Xbyak12LabelManager5resetEv+0x4fd>
 4f8:	e8 00 00 00 00       	callq  4fd <_ZN5Xbyak12LabelManager5resetEv+0x4fd>
 4fd:	48 8b 6c 24 10       	mov    0x10(%rsp),%rbp
 502:	48 85 ed             	test   %rbp,%rbp
 505:	75 1e                	jne    525 <_ZN5Xbyak12LabelManager5resetEv+0x525>
 507:	eb 3a                	jmp    543 <_ZN5Xbyak12LabelManager5resetEv+0x543>
 509:	0f 1f 80 00 00 00 00 	nopl   0x0(%rax)
 510:	e8 00 00 00 00       	callq  515 <_ZN5Xbyak12LabelManager5resetEv+0x515>
 515:	48 89 ef             	mov    %rbp,%rdi
 518:	e8 00 00 00 00       	callq  51d <_ZN5Xbyak12LabelManager5resetEv+0x51d>
 51d:	4d 85 ed             	test   %r13,%r13
 520:	74 21                	je     543 <_ZN5Xbyak12LabelManager5resetEv+0x543>
 522:	4c 89 ed             	mov    %r13,%rbp
 525:	48 8b 7d 08          	mov    0x8(%rbp),%rdi
 529:	48 8d 45 18          	lea    0x18(%rbp),%rax
 52d:	4c 8b 6d 00          	mov    0x0(%rbp),%r13
 531:	48 39 c7             	cmp    %rax,%rdi
 534:	75 da                	jne    510 <_ZN5Xbyak12LabelManager5resetEv+0x510>
 536:	48 89 ef             	mov    %rbp,%rdi
 539:	e8 00 00 00 00       	callq  53e <_ZN5Xbyak12LabelManager5resetEv+0x53e>
 53e:	4d 85 ed             	test   %r13,%r13
 541:	75 df                	jne    522 <_ZN5Xbyak12LabelManager5resetEv+0x522>
 543:	48 8b 44 24 08       	mov    0x8(%rsp),%rax
 548:	48 8b 3c 24          	mov    (%rsp),%rdi
 54c:	31 f6                	xor    %esi,%esi
 54e:	48 8d 14 c5 00 00 00 	lea    0x0(,%rax,8),%rdx
 555:	00 
 556:	e8 00 00 00 00       	callq  55b <_ZN5Xbyak12LabelManager5resetEv+0x55b>
 55b:	48 8b 3c 24          	mov    (%rsp),%rdi
 55f:	48 c7 44 24 18 00 00 	movq   $0x0,0x18(%rsp)
 566:	00 00 
 568:	48 c7 44 24 10 00 00 	movq   $0x0,0x10(%rsp)
 56f:	00 00 
 571:	4c 39 e7             	cmp    %r12,%rdi
 574:	74 05                	je     57b <_ZN5Xbyak12LabelManager5resetEv+0x57b>
 576:	e8 00 00 00 00       	callq  57b <_ZN5Xbyak12LabelManager5resetEv+0x57b>
 57b:	48 8b 6b 38          	mov    0x38(%rbx),%rbp
 57f:	48 85 ed             	test   %rbp,%rbp
 582:	74 15                	je     599 <_ZN5Xbyak12LabelManager5resetEv+0x599>
 584:	0f 1f 40 00          	nopl   0x0(%rax)
 588:	48 89 ef             	mov    %rbp,%rdi
 58b:	48 8b 6d 00          	mov    0x0(%rbp),%rbp
 58f:	e8 00 00 00 00       	callq  594 <_ZN5Xbyak12LabelManager5resetEv+0x594>
 594:	48 85 ed             	test   %rbp,%rbp
 597:	75 ef                	jne    588 <_ZN5Xbyak12LabelManager5resetEv+0x588>
 599:	48 8b 43 30          	mov    0x30(%rbx),%rax
 59d:	48 8b 7b 28          	mov    0x28(%rbx),%rdi
 5a1:	31 f6                	xor    %esi,%esi
 5a3:	48 8d 14 c5 00 00 00 	lea    0x0(,%rax,8),%rdx
 5aa:	00 
 5ab:	e8 00 00 00 00       	callq  5b0 <_ZN5Xbyak12LabelManager5resetEv+0x5b0>
 5b0:	48 8b 6b 70          	mov    0x70(%rbx),%rbp
 5b4:	48 c7 43 40 00 00 00 	movq   $0x0,0x40(%rbx)
 5bb:	00 
 5bc:	48 c7 43 38 00 00 00 	movq   $0x0,0x38(%rbx)
 5c3:	00 
 5c4:	48 85 ed             	test   %rbp,%rbp
 5c7:	74 18                	je     5e1 <_ZN5Xbyak12LabelManager5resetEv+0x5e1>
 5c9:	0f 1f 80 00 00 00 00 	nopl   0x0(%rax)
 5d0:	48 89 ef             	mov    %rbp,%rdi
 5d3:	48 8b 6d 00          	mov    0x0(%rbp),%rbp
 5d7:	e8 00 00 00 00       	callq  5dc <_ZN5Xbyak12LabelManager5resetEv+0x5dc>
 5dc:	48 85 ed             	test   %rbp,%rbp
 5df:	75 ef                	jne    5d0 <_ZN5Xbyak12LabelManager5resetEv+0x5d0>
 5e1:	48 8b 43 68          	mov    0x68(%rbx),%rax
 5e5:	48 8b 7b 60          	mov    0x60(%rbx),%rdi
 5e9:	31 f6                	xor    %esi,%esi
 5eb:	48 8d 14 c5 00 00 00 	lea    0x0(,%rax,8),%rdx
 5f2:	00 
 5f3:	e8 00 00 00 00       	callq  5f8 <_ZN5Xbyak12LabelManager5resetEv+0x5f8>
 5f8:	48 8b ab a8 00 00 00 	mov    0xa8(%rbx),%rbp
 5ff:	48 c7 43 78 00 00 00 	movq   $0x0,0x78(%rbx)
 606:	00 
 607:	48 c7 43 70 00 00 00 	movq   $0x0,0x70(%rbx)
 60e:	00 
 60f:	48 89 e8             	mov    %rbp,%rax
 612:	48 85 ed             	test   %rbp,%rbp
 615:	74 3a                	je     651 <_ZN5Xbyak12LabelManager5resetEv+0x651>
 617:	66 0f 1f 84 00 00 00 	nopw   0x0(%rax,%rax,1)
 61e:	00 00 
 620:	48 8b 50 08          	mov    0x8(%rax),%rdx
 624:	48 8b 00             	mov    (%rax),%rax
 627:	48 c7 02 00 00 00 00 	movq   $0x0,(%rdx)
 62e:	c7 42 08 00 00 00 00 	movl   $0x0,0x8(%rdx)
 635:	48 85 c0             	test   %rax,%rax
 638:	75 e6                	jne    620 <_ZN5Xbyak12LabelManager5resetEv+0x620>
 63a:	66 0f 1f 44 00 00    	nopw   0x0(%rax,%rax,1)
 640:	48 89 ef             	mov    %rbp,%rdi
 643:	48 8b 6d 00          	mov    0x0(%rbp),%rbp
 647:	e8 00 00 00 00       	callq  64c <_ZN5Xbyak12LabelManager5resetEv+0x64c>
 64c:	48 85 ed             	test   %rbp,%rbp
 64f:	75 ef                	jne    640 <_ZN5Xbyak12LabelManager5resetEv+0x640>
 651:	48 8b 83 a0 00 00 00 	mov    0xa0(%rbx),%rax
 658:	48 8b bb 98 00 00 00 	mov    0x98(%rbx),%rdi
 65f:	31 f6                	xor    %esi,%esi
 661:	48 8d 14 c5 00 00 00 	lea    0x0(,%rax,8),%rdx
 668:	00 
 669:	e8 00 00 00 00       	callq  66e <_ZN5Xbyak12LabelManager5resetEv+0x66e>
 66e:	48 c7 83 b0 00 00 00 	movq   $0x0,0xb0(%rbx)
 675:	00 00 00 00 
 679:	48 c7 83 a8 00 00 00 	movq   $0x0,0xa8(%rbx)
 680:	00 00 00 00 
 684:	48 83 c4 78          	add    $0x78,%rsp
 688:	5b                   	pop    %rbx
 689:	5d                   	pop    %rbp
 68a:	41 5c                	pop    %r12
 68c:	41 5d                	pop    %r13
 68e:	41 5e                	pop    %r14
 690:	41 5f                	pop    %r15
 692:	c3                   	retq   
 693:	0f 1f 44 00 00       	nopl   0x0(%rax,%rax,1)
 698:	48 8b 54 24 30       	mov    0x30(%rsp),%rdx
 69d:	48 8d 4f 40          	lea    0x40(%rdi),%rcx
 6a1:	48 89 4f 10          	mov    %rcx,0x10(%rdi)
 6a5:	48 89 57 40          	mov    %rdx,0x40(%rdi)
 6a9:	e9 5e fa ff ff       	jmpq   10c <_ZN5Xbyak12LabelManager5resetEv+0x10c>
 6ae:	66 90                	xchg   %ax,%ax
 6b0:	48 8b 54 24 68       	mov    0x68(%rsp),%rdx
 6b5:	48 8d 4f 78          	lea    0x78(%rdi),%rcx
 6b9:	48 89 4f 48          	mov    %rcx,0x48(%rdi)
 6bd:	48 89 57 78          	mov    %rdx,0x78(%rdi)
 6c1:	e9 cc fa ff ff       	jmpq   192 <_ZN5Xbyak12LabelManager5resetEv+0x192>
 6c6:	66 2e 0f 1f 84 00 00 	nopw   %cs:0x0(%rax,%rax,1)
 6cd:	00 00 00 
 6d0:	48 8b 54 24 30       	mov    0x30(%rsp),%rdx
 6d5:	48 8d 4f 40          	lea    0x40(%rdi),%rcx
 6d9:	48 89 4f 10          	mov    %rcx,0x10(%rdi)
 6dd:	48 89 57 40          	mov    %rdx,0x40(%rdi)
 6e1:	e9 bb fc ff ff       	jmpq   3a1 <_ZN5Xbyak12LabelManager5resetEv+0x3a1>
 6e6:	66 2e 0f 1f 84 00 00 	nopw   %cs:0x0(%rax,%rax,1)
 6ed:	00 00 00 
 6f0:	48 8b 54 24 68       	mov    0x68(%rsp),%rdx
 6f5:	48 8d 4f 78          	lea    0x78(%rdi),%rcx
 6f9:	48 89 4f 48          	mov    %rcx,0x48(%rdi)
 6fd:	48 89 57 78          	mov    %rdx,0x78(%rdi)
 701:	e9 21 fd ff ff       	jmpq   427 <_ZN5Xbyak12LabelManager5resetEv+0x427>
 706:	f3 0f 1e fa          	endbr64 
 70a:	48 89 c5             	mov    %rax,%rbp
 70d:	eb 06                	jmp    715 <_ZN5Xbyak12LabelManager5resetEv+0x715>
 70f:	f3 0f 1e fa          	endbr64 
 713:	eb f5                	jmp    70a <_ZN5Xbyak12LabelManager5resetEv+0x70a>
 715:	48 8d 7c 24 38       	lea    0x38(%rsp),%rdi
 71a:	49 89 e4             	mov    %rsp,%r12
 71d:	e8 00 00 00 00       	callq  722 <_ZN5Xbyak12LabelManager5resetEv+0x722>
 722:	4c 89 e7             	mov    %r12,%rdi
 725:	e8 00 00 00 00       	callq  72a <_ZN5Xbyak12LabelManager5resetEv+0x72a>
 72a:	48 89 ef             	mov    %rbp,%rdi
 72d:	e8 00 00 00 00       	callq  732 <_GLOBAL__sub_I_mcl.cpp.cold+0x402>

Disassembly of section .text._ZN5Xbyak13CodeGeneratorD2Ev:

0000000000000000 <_ZN5Xbyak13CodeGeneratorD1Ev>:
   0:	f3 0f 1e fa          	endbr64 
   4:	48 8b 05 00 00 00 00 	mov    0x0(%rip),%rax        # b <_ZN5Xbyak13CodeGeneratorD1Ev+0xb>
   b:	41 54                	push   %r12
   d:	55                   	push   %rbp
   e:	53                   	push   %rbx
   f:	48 8b af 38 01 00 00 	mov    0x138(%rdi),%rbp
  16:	48 83 c0 10          	add    $0x10,%rax
  1a:	48 89 fb             	mov    %rdi,%rbx
  1d:	48 89 07             	mov    %rax,(%rdi)
  20:	48 85 ed             	test   %rbp,%rbp
  23:	74 3c                	je     61 <_ZN5Xbyak13CodeGeneratorD1Ev+0x61>
  25:	48 89 e8             	mov    %rbp,%rax
  28:	0f 1f 84 00 00 00 00 	nopl   0x0(%rax,%rax,1)
  2f:	00 
  30:	48 8b 50 08          	mov    0x8(%rax),%rdx
  34:	48 8b 00             	mov    (%rax),%rax
  37:	48 c7 02 00 00 00 00 	movq   $0x0,(%rdx)
  3e:	c7 42 08 00 00 00 00 	movl   $0x0,0x8(%rdx)
  45:	48 85 c0             	test   %rax,%rax
  48:	75 e6                	jne    30 <_ZN5Xbyak13CodeGeneratorD1Ev+0x30>
  4a:	66 0f 1f 44 00 00    	nopw   0x0(%rax,%rax,1)
  50:	48 89 ef             	mov    %rbp,%rdi
  53:	48 8b 6d 00          	mov    0x0(%rbp),%rbp
  57:	e8 00 00 00 00       	callq  5c <_ZN5Xbyak13CodeGeneratorD1Ev+0x5c>
  5c:	48 85 ed             	test   %rbp,%rbp
  5f:	75 ef                	jne    50 <_ZN5Xbyak13CodeGeneratorD1Ev+0x50>
  61:	48 8b 83 30 01 00 00 	mov    0x130(%rbx),%rax
  68:	48 8b bb 28 01 00 00 	mov    0x128(%rbx),%rdi
  6f:	31 f6                	xor    %esi,%esi
  71:	48 8d 14 c5 00 00 00 	lea    0x0(,%rax,8),%rdx
  78:	00 
  79:	e8 00 00 00 00       	callq  7e <_ZN5Xbyak13CodeGeneratorD1Ev+0x7e>
  7e:	48 8b 83 30 01 00 00 	mov    0x130(%rbx),%rax
  85:	48 8b bb 28 01 00 00 	mov    0x128(%rbx),%rdi
  8c:	31 f6                	xor    %esi,%esi
  8e:	48 8d 14 c5 00 00 00 	lea    0x0(,%rax,8),%rdx
  95:	00 
  96:	e8 00 00 00 00       	callq  9b <_ZN5Xbyak13CodeGeneratorD1Ev+0x9b>
  9b:	48 8b bb 28 01 00 00 	mov    0x128(%rbx),%rdi
  a2:	48 8d 83 58 01 00 00 	lea    0x158(%rbx),%rax
  a9:	48 c7 83 40 01 00 00 	movq   $0x0,0x140(%rbx)
  b0:	00 00 00 00 
  b4:	48 c7 83 38 01 00 00 	movq   $0x0,0x138(%rbx)
  bb:	00 00 00 00 
  bf:	48 39 c7             	cmp    %rax,%rdi
  c2:	74 05                	je     c9 <_ZN5Xbyak13CodeGeneratorD1Ev+0xc9>
  c4:	e8 00 00 00 00       	callq  c9 <_ZN5Xbyak13CodeGeneratorD1Ev+0xc9>
  c9:	48 8b ab 00 01 00 00 	mov    0x100(%rbx),%rbp
  d0:	48 85 ed             	test   %rbp,%rbp
  d3:	74 14                	je     e9 <_ZN5Xbyak13CodeGeneratorD1Ev+0xe9>
  d5:	0f 1f 00             	nopl   (%rax)
  d8:	48 89 ef             	mov    %rbp,%rdi
  db:	48 8b 6d 00          	mov    0x0(%rbp),%rbp
  df:	e8 00 00 00 00       	callq  e4 <_ZN5Xbyak13CodeGeneratorD1Ev+0xe4>
  e4:	48 85 ed             	test   %rbp,%rbp
  e7:	75 ef                	jne    d8 <_ZN5Xbyak13CodeGeneratorD1Ev+0xd8>
  e9:	48 8b 83 f8 00 00 00 	mov    0xf8(%rbx),%rax
  f0:	48 8b bb f0 00 00 00 	mov    0xf0(%rbx),%rdi
  f7:	31 f6                	xor    %esi,%esi
  f9:	48 8d 14 c5 00 00 00 	lea    0x0(,%rax,8),%rdx
 100:	00 
 101:	e8 00 00 00 00       	callq  106 <_ZN5Xbyak13CodeGeneratorD1Ev+0x106>
 106:	48 8b bb f0 00 00 00 	mov    0xf0(%rbx),%rdi
 10d:	48 8d 83 20 01 00 00 	lea    0x120(%rbx),%rax
 114:	48 c7 83 08 01 00 00 	movq   $0x0,0x108(%rbx)
 11b:	00 00 00 00 
 11f:	48 c7 83 00 01 00 00 	movq   $0x0,0x100(%rbx)
 126:	00 00 00 00 
 12a:	48 39 c7             	cmp    %rax,%rdi
 12d:	74 05                	je     134 <_ZN5Xbyak13CodeGeneratorD1Ev+0x134>
 12f:	e8 00 00 00 00       	callq  134 <_ZN5Xbyak13CodeGeneratorD1Ev+0x134>
 134:	48 8b ab c8 00 00 00 	mov    0xc8(%rbx),%rbp
 13b:	48 85 ed             	test   %rbp,%rbp
 13e:	74 11                	je     151 <_ZN5Xbyak13CodeGeneratorD1Ev+0x151>
 140:	48 89 ef             	mov    %rbp,%rdi
 143:	48 8b 6d 00          	mov    0x0(%rbp),%rbp
 147:	e8 00 00 00 00       	callq  14c <_ZN5Xbyak13CodeGeneratorD1Ev+0x14c>
 14c:	48 85 ed             	test   %rbp,%rbp
 14f:	75 ef                	jne    140 <_ZN5Xbyak13CodeGeneratorD1Ev+0x140>
 151:	48 8b 83 c0 00 00 00 	mov    0xc0(%rbx),%rax
 158:	48 8b bb b8 00 00 00 	mov    0xb8(%rbx),%rdi
 15f:	31 f6                	xor    %esi,%esi
 161:	48 8d 14 c5 00 00 00 	lea    0x0(,%rax,8),%rdx
 168:	00 
 169:	e8 00 00 00 00       	callq  16e <_ZN5Xbyak13CodeGeneratorD1Ev+0x16e>
 16e:	48 8b bb b8 00 00 00 	mov    0xb8(%rbx),%rdi
 175:	48 8d 83 e8 00 00 00 	lea    0xe8(%rbx),%rax
 17c:	48 c7 83 d0 00 00 00 	movq   $0x0,0xd0(%rbx)
 183:	00 00 00 00 
 187:	48 c7 83 c8 00 00 00 	movq   $0x0,0xc8(%rbx)
 18e:	00 00 00 00 
 192:	48 39 c7             	cmp    %rax,%rdi
 195:	74 05                	je     19c <_ZN5Xbyak13CodeGeneratorD1Ev+0x19c>
 197:	e8 00 00 00 00       	callq  19c <_ZN5Xbyak13CodeGeneratorD1Ev+0x19c>
 19c:	48 8d bb 98 00 00 00 	lea    0x98(%rbx),%rdi
 1a3:	e8 00 00 00 00       	callq  1a8 <_ZN5Xbyak13CodeGeneratorD1Ev+0x1a8>
 1a8:	48 8b 05 00 00 00 00 	mov    0x0(%rip),%rax        # 1af <_ZN5Xbyak13CodeGeneratorD1Ev+0x1af>
 1af:	48 83 c0 10          	add    $0x10,%rax
 1b3:	48 89 03             	mov    %rax,(%rbx)
 1b6:	8b 43 20             	mov    0x20(%rbx),%eax
 1b9:	83 e8 02             	sub    $0x2,%eax
 1bc:	83 f8 01             	cmp    $0x1,%eax
 1bf:	0f 86 9b 00 00 00    	jbe    260 <_ZN5Xbyak13CodeGeneratorD1Ev+0x260>
 1c5:	48 8b 05 00 00 00 00 	mov    0x0(%rip),%rax        # 1cc <_ZN5Xbyak13CodeGeneratorD1Ev+0x1cc>
 1cc:	48 8b 6b 40          	mov    0x40(%rbx),%rbp
 1d0:	48 83 c0 10          	add    $0x10,%rax
 1d4:	48 89 43 28          	mov    %rax,0x28(%rbx)
 1d8:	48 85 ed             	test   %rbp,%rbp
 1db:	74 14                	je     1f1 <_ZN5Xbyak13CodeGeneratorD1Ev+0x1f1>
 1dd:	0f 1f 00             	nopl   (%rax)
 1e0:	48 89 ef             	mov    %rbp,%rdi
 1e3:	48 8b 6d 00          	mov    0x0(%rbp),%rbp
 1e7:	e8 00 00 00 00       	callq  1ec <_ZN5Xbyak13CodeGeneratorD1Ev+0x1ec>
 1ec:	48 85 ed             	test   %rbp,%rbp
 1ef:	75 ef                	jne    1e0 <_ZN5Xbyak13CodeGeneratorD1Ev+0x1e0>
 1f1:	48 8b 43 38          	mov    0x38(%rbx),%rax
 1f5:	48 8b 7b 30          	mov    0x30(%rbx),%rdi
 1f9:	31 f6                	xor    %esi,%esi
 1fb:	48 8d 14 c5 00 00 00 	lea    0x0(,%rax,8),%rdx
 202:	00 
 203:	e8 00 00 00 00       	callq  208 <_ZN5Xbyak13CodeGeneratorD1Ev+0x208>
 208:	48 8b 7b 30          	mov    0x30(%rbx),%rdi
 20c:	48 8d 43 60          	lea    0x60(%rbx),%rax
 210:	48 c7 43 48 00 00 00 	movq   $0x0,0x48(%rbx)
 217:	00 
 218:	48 c7 43 40 00 00 00 	movq   $0x0,0x40(%rbx)
 21f:	00 
 220:	48 39 c7             	cmp    %rax,%rdi
 223:	74 05                	je     22a <_ZN5Xbyak13CodeGeneratorD1Ev+0x22a>
 225:	e8 00 00 00 00       	callq  22a <_ZN5Xbyak13CodeGeneratorD1Ev+0x22a>
 22a:	48 8b 6b 08          	mov    0x8(%rbx),%rbp
 22e:	48 83 c3 08          	add    $0x8,%rbx
 232:	48 39 dd             	cmp    %rbx,%rbp
 235:	74 1a                	je     251 <_ZN5Xbyak13CodeGeneratorD1Ev+0x251>
 237:	66 0f 1f 84 00 00 00 	nopw   0x0(%rax,%rax,1)
 23e:	00 00 
 240:	48 89 ef             	mov    %rbp,%rdi
 243:	48 8b 6d 00          	mov    0x0(%rbp),%rbp
 247:	e8 00 00 00 00       	callq  24c <_ZN5Xbyak13CodeGeneratorD1Ev+0x24c>
 24c:	48 39 dd             	cmp    %rbx,%rbp
 24f:	75 ef                	jne    240 <_ZN5Xbyak13CodeGeneratorD1Ev+0x240>
 251:	5b                   	pop    %rbx
 252:	5d                   	pop    %rbp
 253:	41 5c                	pop    %r12
 255:	c3                   	retq   
 256:	66 2e 0f 1f 84 00 00 	nopw   %cs:0x0(%rax,%rax,1)
 25d:	00 00 00 
 260:	48 8b 7b 68          	mov    0x68(%rbx),%rdi
 264:	48 8b 07             	mov    (%rdi),%rax
 267:	48 8b 40 20          	mov    0x20(%rax),%rax
 26b:	48 3b 05 00 00 00 00 	cmp    0x0(%rip),%rax        # 272 <_ZN5Xbyak13CodeGeneratorD1Ev+0x272>
 272:	75 44                	jne    2b8 <_ZN5Xbyak13CodeGeneratorD1Ev+0x2b8>
 274:	bf 1e 00 00 00       	mov    $0x1e,%edi
 279:	4c 8b 63 78          	mov    0x78(%rbx),%r12
 27d:	48 8b 6b 70          	mov    0x70(%rbx),%rbp
 281:	e8 00 00 00 00       	callq  286 <_ZN5Xbyak13CodeGeneratorD1Ev+0x286>
 286:	ba 03 00 00 00       	mov    $0x3,%edx
 28b:	48 f7 d8             	neg    %rax
 28e:	4a 8d 74 25 00       	lea    0x0(%rbp,%r12,1),%rsi
 293:	48 89 c7             	mov    %rax,%rdi
 296:	4c 21 e7             	and    %r12,%rdi
 299:	48 29 fe             	sub    %rdi,%rsi
 29c:	e8 00 00 00 00       	callq  2a1 <_ZN5Xbyak13CodeGeneratorD1Ev+0x2a1>
 2a1:	48 8b 7b 68          	mov    0x68(%rbx),%rdi
 2a5:	48 8b 73 78          	mov    0x78(%rbx),%rsi
 2a9:	48 8b 07             	mov    (%rdi),%rax
 2ac:	ff 50 08             	callq  *0x8(%rax)
 2af:	e9 11 ff ff ff       	jmpq   1c5 <_ZN5Xbyak13CodeGeneratorD1Ev+0x1c5>
 2b4:	0f 1f 40 00          	nopl   0x0(%rax)
 2b8:	ff d0                	callq  *%rax
 2ba:	84 c0                	test   %al,%al
 2bc:	74 e3                	je     2a1 <_ZN5Xbyak13CodeGeneratorD1Ev+0x2a1>
 2be:	eb b4                	jmp    274 <_ZN5Xbyak13CodeGeneratorD1Ev+0x274>

Disassembly of section .text._ZN4CodeD2Ev:

0000000000000000 <_ZN4CodeD1Ev>:
   0:	f3 0f 1e fa          	endbr64 
   4:	48 8b 05 00 00 00 00 	mov    0x0(%rip),%rax        # b <_ZN4CodeD1Ev+0xb>
   b:	41 54                	push   %r12
   d:	55                   	push   %rbp
   e:	53                   	push   %rbx
   f:	48 8b af 38 01 00 00 	mov    0x138(%rdi),%rbp
  16:	48 83 c0 10          	add    $0x10,%rax
  1a:	48 89 fb             	mov    %rdi,%rbx
  1d:	48 89 07             	mov    %rax,(%rdi)
  20:	48 85 ed             	test   %rbp,%rbp
  23:	74 3c                	je     61 <_ZN4CodeD1Ev+0x61>
  25:	48 89 e8             	mov    %rbp,%rax
  28:	0f 1f 84 00 00 00 00 	nopl   0x0(%rax,%rax,1)
  2f:	00 
  30:	48 8b 50 08          	mov    0x8(%rax),%rdx
  34:	48 8b 00             	mov    (%rax),%rax
  37:	48 c7 02 00 00 00 00 	movq   $0x0,(%rdx)
  3e:	c7 42 08 00 00 00 00 	movl   $0x0,0x8(%rdx)
  45:	48 85 c0             	test   %rax,%rax
  48:	75 e6                	jne    30 <_ZN4CodeD1Ev+0x30>
  4a:	66 0f 1f 44 00 00    	nopw   0x0(%rax,%rax,1)
  50:	48 89 ef             	mov    %rbp,%rdi
  53:	48 8b 6d 00          	mov    0x0(%rbp),%rbp
  57:	e8 00 00 00 00       	callq  5c <_ZN4CodeD1Ev+0x5c>
  5c:	48 85 ed             	test   %rbp,%rbp
  5f:	75 ef                	jne    50 <_ZN4CodeD1Ev+0x50>
  61:	48 8b 83 30 01 00 00 	mov    0x130(%rbx),%rax
  68:	48 8b bb 28 01 00 00 	mov    0x128(%rbx),%rdi
  6f:	31 f6                	xor    %esi,%esi
  71:	48 8d 14 c5 00 00 00 	lea    0x0(,%rax,8),%rdx
  78:	00 
  79:	e8 00 00 00 00       	callq  7e <_ZN4CodeD1Ev+0x7e>
  7e:	48 8b 83 30 01 00 00 	mov    0x130(%rbx),%rax
  85:	48 8b bb 28 01 00 00 	mov    0x128(%rbx),%rdi
  8c:	31 f6                	xor    %esi,%esi
  8e:	48 8d 14 c5 00 00 00 	lea    0x0(,%rax,8),%rdx
  95:	00 
  96:	e8 00 00 00 00       	callq  9b <_ZN4CodeD1Ev+0x9b>
  9b:	48 8b bb 28 01 00 00 	mov    0x128(%rbx),%rdi
  a2:	48 8d 83 58 01 00 00 	lea    0x158(%rbx),%rax
  a9:	48 c7 83 40 01 00 00 	movq   $0x0,0x140(%rbx)
  b0:	00 00 00 00 
  b4:	48 c7 83 38 01 00 00 	movq   $0x0,0x138(%rbx)
  bb:	00 00 00 00 
  bf:	48 39 c7             	cmp    %rax,%rdi
  c2:	74 05                	je     c9 <_ZN4CodeD1Ev+0xc9>
  c4:	e8 00 00 00 00       	callq  c9 <_ZN4CodeD1Ev+0xc9>
  c9:	48 8b ab 00 01 00 00 	mov    0x100(%rbx),%rbp
  d0:	48 85 ed             	test   %rbp,%rbp
  d3:	74 14                	je     e9 <_ZN4CodeD1Ev+0xe9>
  d5:	0f 1f 00             	nopl   (%rax)
  d8:	48 89 ef             	mov    %rbp,%rdi
  db:	48 8b 6d 00          	mov    0x0(%rbp),%rbp
  df:	e8 00 00 00 00       	callq  e4 <_ZN4CodeD1Ev+0xe4>
  e4:	48 85 ed             	test   %rbp,%rbp
  e7:	75 ef                	jne    d8 <_ZN4CodeD1Ev+0xd8>
  e9:	48 8b 83 f8 00 00 00 	mov    0xf8(%rbx),%rax
  f0:	48 8b bb f0 00 00 00 	mov    0xf0(%rbx),%rdi
  f7:	31 f6                	xor    %esi,%esi
  f9:	48 8d 14 c5 00 00 00 	lea    0x0(,%rax,8),%rdx
 100:	00 
 101:	e8 00 00 00 00       	callq  106 <_ZN4CodeD1Ev+0x106>
 106:	48 8b bb f0 00 00 00 	mov    0xf0(%rbx),%rdi
 10d:	48 8d 83 20 01 00 00 	lea    0x120(%rbx),%rax
 114:	48 c7 83 08 01 00 00 	movq   $0x0,0x108(%rbx)
 11b:	00 00 00 00 
 11f:	48 c7 83 00 01 00 00 	movq   $0x0,0x100(%rbx)
 126:	00 00 00 00 
 12a:	48 39 c7             	cmp    %rax,%rdi
 12d:	74 05                	je     134 <_ZN4CodeD1Ev+0x134>
 12f:	e8 00 00 00 00       	callq  134 <_ZN4CodeD1Ev+0x134>
 134:	48 8b ab c8 00 00 00 	mov    0xc8(%rbx),%rbp
 13b:	48 85 ed             	test   %rbp,%rbp
 13e:	74 11                	je     151 <_ZN4CodeD1Ev+0x151>
 140:	48 89 ef             	mov    %rbp,%rdi
 143:	48 8b 6d 00          	mov    0x0(%rbp),%rbp
 147:	e8 00 00 00 00       	callq  14c <_ZN4CodeD1Ev+0x14c>
 14c:	48 85 ed             	test   %rbp,%rbp
 14f:	75 ef                	jne    140 <_ZN4CodeD1Ev+0x140>
 151:	48 8b 83 c0 00 00 00 	mov    0xc0(%rbx),%rax
 158:	48 8b bb b8 00 00 00 	mov    0xb8(%rbx),%rdi
 15f:	31 f6                	xor    %esi,%esi
 161:	48 8d 14 c5 00 00 00 	lea    0x0(,%rax,8),%rdx
 168:	00 
 169:	e8 00 00 00 00       	callq  16e <_ZN4CodeD1Ev+0x16e>
 16e:	48 8b bb b8 00 00 00 	mov    0xb8(%rbx),%rdi
 175:	48 8d 83 e8 00 00 00 	lea    0xe8(%rbx),%rax
 17c:	48 c7 83 d0 00 00 00 	movq   $0x0,0xd0(%rbx)
 183:	00 00 00 00 
 187:	48 c7 83 c8 00 00 00 	movq   $0x0,0xc8(%rbx)
 18e:	00 00 00 00 
 192:	48 39 c7             	cmp    %rax,%rdi
 195:	74 05                	je     19c <_ZN4CodeD1Ev+0x19c>
 197:	e8 00 00 00 00       	callq  19c <_ZN4CodeD1Ev+0x19c>
 19c:	48 8d bb 98 00 00 00 	lea    0x98(%rbx),%rdi
 1a3:	e8 00 00 00 00       	callq  1a8 <_ZN4CodeD1Ev+0x1a8>
 1a8:	48 8b 05 00 00 00 00 	mov    0x0(%rip),%rax        # 1af <_ZN4CodeD1Ev+0x1af>
 1af:	48 83 c0 10          	add    $0x10,%rax
 1b3:	48 89 03             	mov    %rax,(%rbx)
 1b6:	8b 43 20             	mov    0x20(%rbx),%eax
 1b9:	83 e8 02             	sub    $0x2,%eax
 1bc:	83 f8 01             	cmp    $0x1,%eax
 1bf:	0f 86 9b 00 00 00    	jbe    260 <_ZN4CodeD1Ev+0x260>
 1c5:	48 8b 05 00 00 00 00 	mov    0x0(%rip),%rax        # 1cc <_ZN4CodeD1Ev+0x1cc>
 1cc:	48 8b 6b 40          	mov    0x40(%rbx),%rbp
 1d0:	48 83 c0 10          	add    $0x10,%rax
 1d4:	48 89 43 28          	mov    %rax,0x28(%rbx)
 1d8:	48 85 ed             	test   %rbp,%rbp
 1db:	74 14                	je     1f1 <_ZN4CodeD1Ev+0x1f1>
 1dd:	0f 1f 00             	nopl   (%rax)
 1e0:	48 89 ef             	mov    %rbp,%rdi
 1e3:	48 8b 6d 00          	mov    0x0(%rbp),%rbp
 1e7:	e8 00 00 00 00       	callq  1ec <_ZN4CodeD1Ev+0x1ec>
 1ec:	48 85 ed             	test   %rbp,%rbp
 1ef:	75 ef                	jne    1e0 <_ZN4CodeD1Ev+0x1e0>
 1f1:	48 8b 43 38          	mov    0x38(%rbx),%rax
 1f5:	48 8b 7b 30          	mov    0x30(%rbx),%rdi
 1f9:	31 f6                	xor    %esi,%esi
 1fb:	48 8d 14 c5 00 00 00 	lea    0x0(,%rax,8),%rdx
 202:	00 
 203:	e8 00 00 00 00       	callq  208 <_ZN4CodeD1Ev+0x208>
 208:	48 8b 7b 30          	mov    0x30(%rbx),%rdi
 20c:	48 8d 43 60          	lea    0x60(%rbx),%rax
 210:	48 c7 43 48 00 00 00 	movq   $0x0,0x48(%rbx)
 217:	00 
 218:	48 c7 43 40 00 00 00 	movq   $0x0,0x40(%rbx)
 21f:	00 
 220:	48 39 c7             	cmp    %rax,%rdi
 223:	74 05                	je     22a <_ZN4CodeD1Ev+0x22a>
 225:	e8 00 00 00 00       	callq  22a <_ZN4CodeD1Ev+0x22a>
 22a:	48 8b 6b 08          	mov    0x8(%rbx),%rbp
 22e:	48 83 c3 08          	add    $0x8,%rbx
 232:	48 39 dd             	cmp    %rbx,%rbp
 235:	74 1a                	je     251 <_ZN4CodeD1Ev+0x251>
 237:	66 0f 1f 84 00 00 00 	nopw   0x0(%rax,%rax,1)
 23e:	00 00 
