0000000000010120 <_ZN4Code10mulPackAddERKN5Xbyak6RegExpERKNS0_3XmmEiS3_RKNS0_5Reg64ERKNS0_4util4PackE>:
   10120:	f3 0f 1e fa          	endbr64 
   10124:	41 57                	push   %r15
   10126:	41 56                	push   %r14
   10128:	41 55                	push   %r13
   1012a:	49 89 d5             	mov    %rdx,%r13
   1012d:	41 54                	push   %r12
   1012f:	4d 89 cc             	mov    %r9,%r12
   10132:	55                   	push   %rbp
   10133:	48 89 fd             	mov    %rdi,%rbp
   10136:	53                   	push   %rbx
   10137:	4c 89 c3             	mov    %r8,%rbx
   1013a:	48 81 ec 88 01 00 00 	sub    $0x188,%rsp
   10141:	48 89 74 24 38       	mov    %rsi,0x38(%rsp)
   10146:	89 4c 24 08          	mov    %ecx,0x8(%rsp)
   1014a:	66 f7 02 00 04       	testw  $0x400,(%rdx)
   1014f:	74 0a                	je     1015b <_ZN4Code10mulPackAddERKN5Xbyak6RegExpERKNS0_3XmmEiS3_RKNS0_5Reg64ERKNS0_4util4PackE+0x3b>
   10151:	be 66 00 00 00       	mov    $0x66,%esi
   10156:	e8 95 7d ff ff       	callq  7ef0 <_ZN5Xbyak9CodeArray2dbEi>
   1015b:	4c 8d b5 08 05 00 00 	lea    0x508(%rbp),%r14
   10162:	4c 89 ea             	mov    %r13,%rdx
   10165:	48 89 ef             	mov    %rbp,%rdi
   10168:	4c 89 f6             	mov    %r14,%rsi
   1016b:	e8 50 7e ff ff       	callq  7fc0 <_ZN5Xbyak13CodeGenerator3rexERKNS_7OperandES3_>
   10170:	48 8b 95 80 00 00 00 	mov    0x80(%rbp),%rdx
   10177:	4c 8b 45 70          	mov    0x70(%rbp),%r8
   1017b:	4c 39 c2             	cmp    %r8,%rdx
   1017e:	0f 82 2c 03 00 00    	jb     104b0 <_ZN4Code10mulPackAddERKN5Xbyak6RegExpERKNS0_3XmmEiS3_RKNS0_5Reg64ERKNS0_4util4PackE+0x390>
   10184:	83 7d 20 03          	cmpl   $0x3,0x20(%rbp)
   10188:	0f 85 d0 27 00 00    	jne    1295e <_ZN4Code10mulPackAddERKN5Xbyak6RegExpERKNS0_3XmmEiS3_RKNS0_5Reg64ERKNS0_4util4PackE+0x283e>
   1018e:	48 8b 7d 68          	mov    0x68(%rbp),%rdi
   10192:	4d 01 c0             	add    %r8,%r8
   10195:	b8 00 10 00 00       	mov    $0x1000,%eax
   1019a:	49 81 f8 00 10 00 00 	cmp    $0x1000,%r8
   101a1:	4c 0f 42 c0          	cmovb  %rax,%r8
   101a5:	48 8b 07             	mov    (%rdi),%rax
   101a8:	4c 89 44 24 10       	mov    %r8,0x10(%rsp)
   101ad:	4c 89 c6             	mov    %r8,%rsi
   101b0:	ff 10                	callq  *(%rax)
   101b2:	4c 8b 44 24 10       	mov    0x10(%rsp),%r8
   101b7:	48 85 c0             	test   %rax,%rax
   101ba:	49 89 c7             	mov    %rax,%r15
   101bd:	0f 84 14 28 00 00    	je     129d7 <_ZN4Code10mulPackAddERKN5Xbyak6RegExpERKNS0_3XmmEiS3_RKNS0_5Reg64ERKNS0_4util4PackE+0x28b7>
   101c3:	31 d2                	xor    %edx,%edx
   101c5:	48 83 bd 80 00 00 00 	cmpq   $0x0,0x80(%rbp)
   101cc:	00 
   101cd:	74 1a                	je     101e9 <_ZN4Code10mulPackAddERKN5Xbyak6RegExpERKNS0_3XmmEiS3_RKNS0_5Reg64ERKNS0_4util4PackE+0xc9>
   101cf:	90                   	nop
   101d0:	48 8b 45 78          	mov    0x78(%rbp),%rax
   101d4:	0f b6 04 10          	movzbl (%rax,%rdx,1),%eax
   101d8:	41 88 04 17          	mov    %al,(%r15,%rdx,1)
   101dc:	48 83 c2 01          	add    $0x1,%rdx
   101e0:	48 39 95 80 00 00 00 	cmp    %rdx,0x80(%rbp)
   101e7:	77 e7                	ja     101d0 <_ZN4Code10mulPackAddERKN5Xbyak6RegExpERKNS0_3XmmEiS3_RKNS0_5Reg64ERKNS0_4util4PackE+0xb0>
   101e9:	48 8b 7d 68          	mov    0x68(%rbp),%rdi
   101ed:	48 8b 75 78          	mov    0x78(%rbp),%rsi
   101f1:	4c 89 44 24 10       	mov    %r8,0x10(%rsp)
   101f6:	48 8b 17             	mov    (%rdi),%rdx
   101f9:	ff 52 08             	callq  *0x8(%rdx)
   101fc:	4c 8b 44 24 10       	mov    0x10(%rsp),%r8
   10201:	4c 89 7d 78          	mov    %r15,0x78(%rbp)
   10205:	48 8b 95 80 00 00 00 	mov    0x80(%rbp),%rdx
   1020c:	4c 89 45 70          	mov    %r8,0x70(%rbp)
   10210:	48 8d 4a 01          	lea    0x1(%rdx),%rcx
   10214:	be 7e 00 00 00       	mov    $0x7e,%esi
   10219:	48 89 ef             	mov    %rbp,%rdi
   1021c:	48 89 8d 80 00 00 00 	mov    %rcx,0x80(%rbp)
   10223:	41 c6 04 17 0f       	movb   $0xf,(%r15,%rdx,1)
   10228:	e8 c3 7c ff ff       	callq  7ef0 <_ZN5Xbyak9CodeArray2dbEi>
   1022d:	45 0f b6 6d 00       	movzbl 0x0(%r13),%r13d
   10232:	0f b6 85 08 05 00 00 	movzbl 0x508(%rbp),%eax
   10239:	48 8b 95 80 00 00 00 	mov    0x80(%rbp),%rdx
   10240:	4c 8b 45 70          	mov    0x70(%rbp),%r8
   10244:	41 c1 e5 03          	shl    $0x3,%r13d
   10248:	83 e0 07             	and    $0x7,%eax
   1024b:	41 83 e5 38          	and    $0x38,%r13d
   1024f:	41 09 c5             	or     %eax,%r13d
   10252:	41 83 cd c0          	or     $0xffffffc0,%r13d
   10256:	4c 39 c2             	cmp    %r8,%rdx
   10259:	0f 82 41 02 00 00    	jb     104a0 <_ZN4Code10mulPackAddERKN5Xbyak6RegExpERKNS0_3XmmEiS3_RKNS0_5Reg64ERKNS0_4util4PackE+0x380>
   1025f:	83 7d 20 03          	cmpl   $0x3,0x20(%rbp)
   10263:	0f 85 f5 26 00 00    	jne    1295e <_ZN4Code10mulPackAddERKN5Xbyak6RegExpERKNS0_3XmmEiS3_RKNS0_5Reg64ERKNS0_4util4PackE+0x283e>
   10269:	4f 8d 3c 00          	lea    (%r8,%r8,1),%r15
   1026d:	48 8b 7d 68          	mov    0x68(%rbp),%rdi
   10271:	b8 00 10 00 00       	mov    $0x1000,%eax
   10276:	49 81 ff 00 10 00 00 	cmp    $0x1000,%r15
   1027d:	4c 0f 42 f8          	cmovb  %rax,%r15
   10281:	48 8b 07             	mov    (%rdi),%rax
   10284:	4c 89 fe             	mov    %r15,%rsi
   10287:	ff 10                	callq  *(%rax)
   10289:	48 85 c0             	test   %rax,%rax
   1028c:	0f 84 45 27 00 00    	je     129d7 <_ZN4Code10mulPackAddERKN5Xbyak6RegExpERKNS0_3XmmEiS3_RKNS0_5Reg64ERKNS0_4util4PackE+0x28b7>
   10292:	31 d2                	xor    %edx,%edx
   10294:	48 83 bd 80 00 00 00 	cmpq   $0x0,0x80(%rbp)
   1029b:	00 
   1029c:	74 1a                	je     102b8 <_ZN4Code10mulPackAddERKN5Xbyak6RegExpERKNS0_3XmmEiS3_RKNS0_5Reg64ERKNS0_4util4PackE+0x198>
   1029e:	66 90                	xchg   %ax,%ax
   102a0:	48 8b 4d 78          	mov    0x78(%rbp),%rcx
   102a4:	0f b6 0c 11          	movzbl (%rcx,%rdx,1),%ecx
   102a8:	88 0c 10             	mov    %cl,(%rax,%rdx,1)
   102ab:	48 83 c2 01          	add    $0x1,%rdx
   102af:	48 39 95 80 00 00 00 	cmp    %rdx,0x80(%rbp)
   102b6:	77 e8                	ja     102a0 <_ZN4Code10mulPackAddERKN5Xbyak6RegExpERKNS0_3XmmEiS3_RKNS0_5Reg64ERKNS0_4util4PackE+0x180>
   102b8:	48 8b 7d 68          	mov    0x68(%rbp),%rdi
   102bc:	48 8b 75 78          	mov    0x78(%rbp),%rsi
   102c0:	48 89 44 24 10       	mov    %rax,0x10(%rsp)
   102c5:	48 8b 17             	mov    (%rdi),%rdx
   102c8:	ff 52 08             	callq  *0x8(%rdx)
   102cb:	48 8b 44 24 10       	mov    0x10(%rsp),%rax
   102d0:	4c 89 7d 70          	mov    %r15,0x70(%rbp)
   102d4:	48 8b 95 80 00 00 00 	mov    0x80(%rbp),%rdx
   102db:	48 89 45 78          	mov    %rax,0x78(%rbp)
   102df:	48 8d 4a 01          	lea    0x1(%rdx),%rcx
   102e3:	48 8d 7c 24 40       	lea    0x40(%rsp),%rdi
   102e8:	4c 89 f6             	mov    %r14,%rsi
   102eb:	48 89 8d 80 00 00 00 	mov    %rcx,0x80(%rbp)
   102f2:	44 88 2c 10          	mov    %r13b,(%rax,%rdx,1)
   102f6:	48 63 44 24 08       	movslq 0x8(%rsp),%rax
   102fb:	ba 01 00 00 00       	mov    $0x1,%edx
   10300:	48 89 44 24 30       	mov    %rax,0x30(%rsp)
   10305:	e8 e6 7a ff ff       	callq  7df0 <_ZN5Xbyak6RegExpC1ERKNS_3RegEi>
   1030a:	0f b6 54 24 4c       	movzbl 0x4c(%rsp),%edx
   1030f:	0f b6 74 24 4b       	movzbl 0x4b(%rsp),%esi
   10314:	66 0f 6f 74 24 40    	movdqa 0x40(%rsp),%xmm6
   1031a:	66 0f 6f 7c 24 50    	movdqa 0x50(%rsp),%xmm7
   10320:	0f b6 44 24 48       	movzbl 0x48(%rsp),%eax
   10325:	0f b7 7c 24 48       	movzwl 0x48(%rsp),%edi
   1032a:	41 89 d3             	mov    %edx,%r11d
   1032d:	40 c0 ee 06          	shr    $0x6,%sil
   10331:	c0 ea 03             	shr    $0x3,%dl
   10334:	44 8b 54 24 50       	mov    0x50(%rsp),%r10d
   10339:	4c 8b 44 24 58       	mov    0x58(%rsp),%r8
   1033e:	83 e6 01             	and    $0x1,%esi
   10341:	44 0f b7 6c 24 4a    	movzwl 0x4a(%rsp),%r13d
   10347:	83 e0 3f             	and    $0x3f,%eax
   1034a:	66 c1 ef 06          	shr    $0x6,%di
   1034e:	83 e2 07             	and    $0x7,%edx
   10351:	0f 29 74 24 60       	movaps %xmm6,0x60(%rsp)
   10356:	41 83 e3 07          	and    $0x7,%r11d
   1035a:	0f 29 7c 24 70       	movaps %xmm7,0x70(%rsp)
   1035f:	66 41 81 e5 ff 3f    	and    $0x3fff,%r13w
   10365:	75 0e                	jne    10375 <_ZN4Code10mulPackAddERKN5Xbyak6RegExpERKNS0_3XmmEiS3_RKNS0_5Reg64ERKNS0_4util4PackE+0x255>
   10367:	45 31 d2             	xor    %r10d,%r10d
   1036a:	31 d2                	xor    %edx,%edx
   1036c:	45 31 db             	xor    %r11d,%r11d
   1036f:	31 f6                	xor    %esi,%esi
   10371:	31 ff                	xor    %edi,%edi
   10373:	31 c0                	xor    %eax,%eax
   10375:	0f b7 ff             	movzwl %di,%edi
   10378:	0f b6 c0             	movzbl %al,%eax
   1037b:	41 c1 e5 10          	shl    $0x10,%r13d
   1037f:	8b 8d e0 03 00 00    	mov    0x3e0(%rbp),%ecx
   10385:	c1 e7 06             	shl    $0x6,%edi
   10388:	c1 e2 03             	shl    $0x3,%edx
   1038b:	4c 03 44 24 30       	add    0x30(%rsp),%r8
   10390:	44 89 54 24 70       	mov    %r10d,0x70(%rsp)
   10395:	09 f8                	or     %edi,%eax
   10397:	c1 e6 1e             	shl    $0x1e,%esi
   1039a:	41 09 d3             	or     %edx,%r11d
   1039d:	0f b6 54 24 6c       	movzbl 0x6c(%rsp),%edx
   103a2:	44 09 e8             	or     %r13d,%eax
   103a5:	41 83 e3 3f          	and    $0x3f,%r11d
   103a9:	c1 e1 10             	shl    $0x10,%ecx
   103ac:	4c 89 44 24 78       	mov    %r8,0x78(%rsp)
   103b1:	09 c6                	or     %eax,%esi
   103b3:	8b 44 24 68          	mov    0x68(%rsp),%eax
   103b7:	83 e2 c0             	and    $0xffffffc0,%edx
   103ba:	44 8b 8c 24 c0 00 00 	mov    0xc0(%rsp),%r9d
   103c1:	00 
   103c2:	81 e6 ff ff ff 7f    	and    $0x7fffffff,%esi
   103c8:	41 09 d3             	or     %edx,%r11d
   103cb:	81 e1 00 00 ff 3f    	and    $0x3fff0000,%ecx
   103d1:	44 0f b6 bd e4 03 00 	movzbl 0x3e4(%rbp),%r15d
   103d8:	00 
   103d9:	25 00 00 00 80       	and    $0x80000000,%eax
   103de:	44 88 5c 24 6c       	mov    %r11b,0x6c(%rsp)
   103e3:	66 0f 6f 4c 24 70    	movdqa 0x70(%rsp),%xmm1
   103e9:	83 c9 40             	or     $0x40,%ecx
   103ec:	09 c6                	or     %eax,%esi
   103ee:	41 81 e1 00 00 00 80 	and    $0x80000000,%r9d
   103f5:	80 a4 24 c4 00 00 00 	andb   $0xc0,0xc4(%rsp)
   103fc:	c0 
   103fd:	89 74 24 68          	mov    %esi,0x68(%rsp)
   10401:	44 09 c9             	or     %r9d,%ecx
   10404:	66 0f 6f 44 24 60    	movdqa 0x60(%rsp),%xmm0
   1040a:	89 8c 24 c0 00 00 00 	mov    %ecx,0xc0(%rsp)
   10411:	0f 11 84 24 c8 00 00 	movups %xmm0,0xc8(%rsp)
   10418:	00 
   10419:	0f b7 84 24 ca 00 00 	movzwl 0xca(%rsp),%eax
   10420:	00 
   10421:	48 c7 84 24 e8 00 00 	movq   $0x0,0xe8(%rsp)
   10428:	00 00 00 00 00 
   1042d:	25 ff 3f 00 00       	and    $0x3fff,%eax
   10432:	44 88 bc 24 f4 00 00 	mov    %r15b,0xf4(%rsp)
   10439:	00 
   1043a:	c7 84 24 f0 00 00 00 	movl   $0x0,0xf0(%rsp)
   10441:	00 00 00 00 
   10445:	0f 11 8c 24 d8 00 00 	movups %xmm1,0xd8(%rsp)
   1044c:	00 
   1044d:	83 f8 7f             	cmp    $0x7f,%eax
   10450:	0f 87 7c 25 00 00    	ja     129d2 <_ZN4Code10mulPackAddERKN5Xbyak6RegExpERKNS0_3XmmEiS3_RKNS0_5Reg64ERKNS0_4util4PackE+0x28b2>
   10456:	0f b7 94 24 d2 00 00 	movzwl 0xd2(%rsp),%edx
   1045d:	00 
   1045e:	81 e2 ff 3f 00 00    	and    $0x3fff,%edx
   10464:	8d 4a ff             	lea    -0x1(%rdx),%ecx
   10467:	83 f9 3f             	cmp    $0x3f,%ecx
   1046a:	0f 86 a0 23 00 00    	jbe    12810 <_ZN4Code10mulPackAddERKN5Xbyak6RegExpERKNS0_3XmmEiS3_RKNS0_5Reg64ERKNS0_4util4PackE+0x26f0>
   10470:	48 8d 94 24 c0 00 00 	lea    0xc0(%rsp),%rdx
   10477:	00 
   10478:	4c 89 f6             	mov    %r14,%rsi
   1047b:	48 89 ef             	mov    %rbp,%rdi
   1047e:	e8 ed cb ff ff       	callq  d070 <_ZN5Xbyak13CodeGenerator3movERKNS_7OperandES3_>
   10483:	0f b7 85 f8 04 00 00 	movzwl 0x4f8(%rbp),%eax
   1048a:	89 c2                	mov    %eax,%edx
   1048c:	66 c1 ea 06          	shr    $0x6,%dx
   10490:	a8 80                	test   $0x80,%al
   10492:	75 2c                	jne    104c0 <_ZN4Code10mulPackAddERKN5Xbyak6RegExpERKNS0_3XmmEiS3_RKNS0_5Reg64ERKNS0_4util4PackE+0x3a0>
   10494:	e8 e1 33 ff ff       	callq  387a <_ZN5Xbyak13CodeGenerator3movERKNS_7OperandES3_.part.0>
   10499:	0f 1f 80 00 00 00 00 	nopl   0x0(%rax)
   104a0:	48 8b 45 78          	mov    0x78(%rbp),%rax
   104a4:	e9 36 fe ff ff       	jmpq   102df <_ZN4Code10mulPackAddERKN5Xbyak6RegExpERKNS0_3XmmEiS3_RKNS0_5Reg64ERKNS0_4util4PackE+0x1bf>
   104a9:	0f 1f 80 00 00 00 00 	nopl   0x0(%rax)
   104b0:	4c 8b 7d 78          	mov    0x78(%rbp),%r15
   104b4:	e9 57 fd ff ff       	jmpq   10210 <_ZN4Code10mulPackAddERKN5Xbyak6RegExpERKNS0_3XmmEiS3_RKNS0_5Reg64ERKNS0_4util4PackE+0xf0>
   104b9:	0f 1f 80 00 00 00 00 	nopl   0x0(%rax)
   104c0:	48 8d 85 f8 04 00 00 	lea    0x4f8(%rbp),%rax
   104c7:	83 e2 01             	and    $0x1,%edx
   104ca:	48 89 44 24 10       	mov    %rax,0x10(%rsp)
   104cf:	0f 84 eb 02 00 00    	je     107c0 <_ZN4Code10mulPackAddERKN5Xbyak6RegExpERKNS0_3XmmEiS3_RKNS0_5Reg64ERKNS0_4util4PackE+0x6a0>
   104d5:	83 bd 28 05 00 00 01 	cmpl   $0x1,0x528(%rbp)
   104dc:	0f 84 fa 24 00 00    	je     129dc <_ZN4Code10mulPackAddERKN5Xbyak6RegExpERKNS0_3XmmEiS3_RKNS0_5Reg64ERKNS0_4util4PackE+0x28bc>
   104e2:	4c 8d bd f8 04 00 00 	lea    0x4f8(%rbp),%r15
   104e9:	48 89 ef             	mov    %rbp,%rdi
   104ec:	4c 89 fa             	mov    %r15,%rdx
   104ef:	4c 89 fe             	mov    %r15,%rsi
   104f2:	e8 c9 7a ff ff       	callq  7fc0 <_ZN5Xbyak13CodeGenerator3rexERKNS_7OperandES3_>
   104f7:	0f b7 b5 fa 04 00 00 	movzwl 0x4fa(%rbp),%esi
   104fe:	48 89 ef             	mov    %rbp,%rdi
   10501:	66 81 e6 ff 3f       	and    $0x3fff,%si
   10506:	66 c1 ee 03          	shr    $0x3,%si
   1050a:	83 f6 01             	xor    $0x1,%esi
   1050d:	83 e6 01             	and    $0x1,%esi
   10510:	83 ce 32             	or     $0x32,%esi
   10513:	e8 d8 79 ff ff       	callq  7ef0 <_ZN5Xbyak9CodeArray2dbEi>
   10518:	45 31 c9             	xor    %r9d,%r9d
   1051b:	45 31 c0             	xor    %r8d,%r8d
   1051e:	31 c9                	xor    %ecx,%ecx
   10520:	0f b6 95 f8 04 00 00 	movzbl 0x4f8(%rbp),%edx
   10527:	4c 89 fe             	mov    %r15,%rsi
   1052a:	48 89 ef             	mov    %rbp,%rdi
   1052d:	83 e2 1f             	and    $0x1f,%edx
   10530:	e8 fb b4 ff ff       	callq  ba30 <_ZN5Xbyak13CodeGenerator6opAddrERKNS_7AddressEiiib>
   10535:	48 8b 84 24 c0 01 00 	mov    0x1c0(%rsp),%rax
   1053c:	00 
   1053d:	48 c7 44 24 08 00 00 	movq   $0x0,0x8(%rsp)
   10544:	00 00 
   10546:	48 83 78 78 00       	cmpq   $0x0,0x78(%rax)
   1054b:	0f 84 6b 0d 00 00    	je     112bc <_ZN4Code10mulPackAddERKN5Xbyak6RegExpERKNS0_3XmmEiS3_RKNS0_5Reg64ERKNS0_4util4PackE+0x119c>
   10551:	0f 1f 80 00 00 00 00 	nopl   0x0(%rax)
   10558:	48 8b 44 24 08       	mov    0x8(%rsp),%rax
   1055d:	0f b6 73 0b          	movzbl 0xb(%rbx),%esi
   10561:	f3 0f 6f 03          	movdqu (%rbx),%xmm0
   10565:	f3 0f 6f 4b 10       	movdqu 0x10(%rbx),%xmm1
   1056a:	4c 8d 0c c5 00 00 00 	lea    0x0(,%rax,8),%r9
   10571:	00 
   10572:	0f b6 43 0c          	movzbl 0xc(%rbx),%eax
   10576:	0f b6 7b 08          	movzbl 0x8(%rbx),%edi
   1057a:	40 c0 ee 06          	shr    $0x6,%sil
   1057e:	44 0f b7 43 08       	movzwl 0x8(%rbx),%r8d
   10583:	0f b7 53 0a          	movzwl 0xa(%rbx),%edx
   10587:	83 e6 01             	and    $0x1,%esi
   1058a:	0f 29 84 24 80 00 00 	movaps %xmm0,0x80(%rsp)
   10591:	00 
   10592:	41 89 c6             	mov    %eax,%r14d
   10595:	c0 e8 03             	shr    $0x3,%al
   10598:	44 8b 6b 10          	mov    0x10(%rbx),%r13d
   1059c:	4c 8b 7b 18          	mov    0x18(%rbx),%r15
   105a0:	83 e7 3f             	and    $0x3f,%edi
   105a3:	66 41 c1 e8 06       	shr    $0x6,%r8w
   105a8:	41 83 e6 07          	and    $0x7,%r14d
   105ac:	83 e0 07             	and    $0x7,%eax
   105af:	0f 29 8c 24 90 00 00 	movaps %xmm1,0x90(%rsp)
   105b6:	00 
   105b7:	66 81 e2 ff 3f       	and    $0x3fff,%dx
   105bc:	75 0f                	jne    105cd <_ZN4Code10mulPackAddERKN5Xbyak6RegExpERKNS0_3XmmEiS3_RKNS0_5Reg64ERKNS0_4util4PackE+0x4ad>
   105be:	45 31 ed             	xor    %r13d,%r13d
   105c1:	31 c0                	xor    %eax,%eax
   105c3:	45 31 f6             	xor    %r14d,%r14d
   105c6:	31 f6                	xor    %esi,%esi
   105c8:	45 31 c0             	xor    %r8d,%r8d
   105cb:	31 ff                	xor    %edi,%edi
   105cd:	45 0f b7 c0          	movzwl %r8w,%r8d
   105d1:	40 0f b6 ff          	movzbl %dil,%edi
   105d5:	c1 e2 10             	shl    $0x10,%edx
   105d8:	4d 01 f9             	add    %r15,%r9
   105db:	41 c1 e0 06          	shl    $0x6,%r8d
   105df:	c1 e0 03             	shl    $0x3,%eax
   105e2:	8b 8d e0 03 00 00    	mov    0x3e0(%rbp),%ecx
   105e8:	44 8b 94 24 00 01 00 	mov    0x100(%rsp),%r10d
   105ef:	00 
   105f0:	44 09 c7             	or     %r8d,%edi
   105f3:	41 09 c6             	or     %eax,%r14d
   105f6:	c1 e6 1e             	shl    $0x1e,%esi
   105f9:	0f b6 84 24 8c 00 00 	movzbl 0x8c(%rsp),%eax
   10600:	00 
   10601:	09 d7                	or     %edx,%edi
   10603:	8b 94 24 88 00 00 00 	mov    0x88(%rsp),%edx
   1060a:	41 83 e6 3f          	and    $0x3f,%r14d
   1060e:	c1 e1 10             	shl    $0x10,%ecx
   10611:	09 f7                	or     %esi,%edi
   10613:	83 e0 c0             	and    $0xffffffc0,%eax
   10616:	81 e1 00 00 ff 3f    	and    $0x3fff0000,%ecx
   1061c:	41 81 e2 00 00 00 80 	and    $0x80000000,%r10d
   10623:	81 e7 ff ff ff 7f    	and    $0x7fffffff,%edi
   10629:	81 e2 00 00 00 80    	and    $0x80000000,%edx
   1062f:	41 09 c6             	or     %eax,%r14d
   10632:	83 c9 40             	or     $0x40,%ecx
   10635:	09 d7                	or     %edx,%edi
   10637:	44 88 b4 24 8c 00 00 	mov    %r14b,0x8c(%rsp)
   1063e:	00 
   1063f:	44 09 d1             	or     %r10d,%ecx
   10642:	44 0f b6 9d e4 03 00 	movzbl 0x3e4(%rbp),%r11d
   10649:	00 
   1064a:	89 bc 24 88 00 00 00 	mov    %edi,0x88(%rsp)
   10651:	66 0f 6f 94 24 80 00 	movdqa 0x80(%rsp),%xmm2
   10658:	00 00 
   1065a:	44 89 ac 24 90 00 00 	mov    %r13d,0x90(%rsp)
   10661:	00 
   10662:	0f 11 94 24 08 01 00 	movups %xmm2,0x108(%rsp)
   10669:	00 
   1066a:	0f b7 84 24 0a 01 00 	movzwl 0x10a(%rsp),%eax
   10671:	00 
   10672:	4c 89 8c 24 98 00 00 	mov    %r9,0x98(%rsp)
   10679:	00 
   1067a:	66 0f 6f 9c 24 90 00 	movdqa 0x90(%rsp),%xmm3
   10681:	00 00 
   10683:	89 8c 24 00 01 00 00 	mov    %ecx,0x100(%rsp)
   1068a:	89 c1                	mov    %eax,%ecx
   1068c:	25 ff 3f 00 00       	and    $0x3fff,%eax
   10691:	80 a4 24 04 01 00 00 	andb   $0xc0,0x104(%rsp)
   10698:	c0 
   10699:	66 81 e1 ff 3f       	and    $0x3fff,%cx
   1069e:	48 c7 84 24 28 01 00 	movq   $0x0,0x128(%rsp)
   106a5:	00 00 00 00 00 
   106aa:	c7 84 24 30 01 00 00 	movl   $0x0,0x130(%rsp)
   106b1:	00 00 00 00 
   106b5:	44 88 9c 24 34 01 00 	mov    %r11b,0x134(%rsp)
   106bc:	00 
   106bd:	0f 11 9c 24 18 01 00 	movups %xmm3,0x118(%rsp)
   106c4:	00 
   106c5:	83 f8 7f             	cmp    $0x7f,%eax
   106c8:	0f 87 04 23 00 00    	ja     129d2 <_ZN4Code10mulPackAddERKN5Xbyak6RegExpERKNS0_3XmmEiS3_RKNS0_5Reg64ERKNS0_4util4PackE+0x28b2>
   106ce:	0f b7 94 24 12 01 00 	movzwl 0x112(%rsp),%edx
   106d5:	00 
   106d6:	89 d6                	mov    %edx,%esi
   106d8:	81 e2 ff 3f 00 00    	and    $0x3fff,%edx
   106de:	8d 7a ff             	lea    -0x1(%rdx),%edi
   106e1:	66 81 e6 ff 3f       	and    $0x3fff,%si
   106e6:	83 ff 3f             	cmp    $0x3f,%edi
   106e9:	0f 86 c1 17 00 00    	jbe    11eb0 <_ZN4Code10mulPackAddERKN5Xbyak6RegExpERKNS0_3XmmEiS3_RKNS0_5Reg64ERKNS0_4util4PackE+0x1d90>
   106ef:	41 0f b7 44 24 02    	movzwl 0x2(%r12),%eax
   106f5:	0f b7 95 fa 04 00 00 	movzwl 0x4fa(%rbp),%edx
   106fc:	25 ff 3f 00 00       	and    $0x3fff,%eax
   10701:	81 e2 ff 3f 00 00    	and    $0x3fff,%edx
   10707:	39 d0                	cmp    %edx,%eax
   10709:	0f 85 d2 22 00 00    	jne    129e1 <_ZN4Code10mulPackAddERKN5Xbyak6RegExpERKNS0_3XmmEiS3_RKNS0_5Reg64ERKNS0_4util4PackE+0x28c1>
   1070f:	83 f8 40             	cmp    $0x40,%eax
   10712:	41 bd 60 42 00 00    	mov    $0x4260,%r13d
   10718:	f3 0f 6f a4 24 08 01 	movdqu 0x108(%rsp),%xmm4
   1071f:	00 00 
   10721:	f3 0f 6f ac 24 18 01 	movdqu 0x118(%rsp),%xmm5
   10728:	00 00 
   1072a:	41 b8 60 22 00 00    	mov    $0x2260,%r8d
   10730:	45 0f 45 e8          	cmovne %r8d,%r13d
   10734:	0f 29 a4 24 40 01 00 	movaps %xmm4,0x140(%rsp)
   1073b:	00 
   1073c:	0f 29 ac 24 50 01 00 	movaps %xmm5,0x150(%rsp)
   10743:	00 
   10744:	40 f6 c6 60          	test   $0x60,%sil
   10748:	74 09                	je     10753 <_ZN4Code10mulPackAddERKN5Xbyak6RegExpERKNS0_3XmmEiS3_RKNS0_5Reg64ERKNS0_4util4PackE+0x633>
   1074a:	66 85 c9             	test   %cx,%cx
   1074d:	0f 84 ed 1c 00 00    	je     12440 <_ZN4Code10mulPackAddERKN5Xbyak6RegExpERKNS0_3XmmEiS3_RKNS0_5Reg64ERKNS0_4util4PackE+0x2320>
   10753:	66 83 f9 20          	cmp    $0x20,%cx
   10757:	0f 84 63 16 00 00    	je     11dc0 <_ZN4Code10mulPackAddERKN5Xbyak6RegExpERKNS0_3XmmEiS3_RKNS0_5Reg64ERKNS0_4util4PackE+0x1ca0>
   1075d:	66 83 fe 20          	cmp    $0x20,%si
   10761:	0f 84 59 16 00 00    	je     11dc0 <_ZN4Code10mulPackAddERKN5Xbyak6RegExpERKNS0_3XmmEiS3_RKNS0_5Reg64ERKNS0_4util4PackE+0x1ca0>
   10767:	0f b6 84 24 48 01 00 	movzbl 0x148(%rsp),%eax
   1076e:	00 
   1076f:	83 e0 3f             	and    $0x3f,%eax
   10772:	89 c1                	mov    %eax,%ecx
   10774:	c0 e9 03             	shr    $0x3,%cl
   10777:	83 e1 01             	and    $0x1,%ecx
   1077a:	66 41 f7 04 24 00 10 	testw  $0x1000,(%r12)
   10781:	0f 85 22 01 00 00    	jne    108a9 <_ZN4Code10mulPackAddERKN5Xbyak6RegExpERKNS0_3XmmEiS3_RKNS0_5Reg64ERKNS0_4util4PackE+0x789>
   10787:	41 f6 04 24 10       	testb  $0x10,(%r12)
   1078c:	0f 85 0e 01 00 00    	jne    108a0 <_ZN4Code10mulPackAddERKN5Xbyak6RegExpERKNS0_3XmmEiS3_RKNS0_5Reg64ERKNS0_4util4PackE+0x780>
   10792:	41 0f b6 74 24 04    	movzbl 0x4(%r12),%esi
   10798:	89 f2                	mov    %esi,%edx
   1079a:	83 e2 07             	and    $0x7,%edx
   1079d:	0f 85 fd 00 00 00    	jne    108a0 <_ZN4Code10mulPackAddERKN5Xbyak6RegExpERKNS0_3XmmEiS3_RKNS0_5Reg64ERKNS0_4util4PackE+0x780>
   107a3:	83 e6 38             	and    $0x38,%esi
   107a6:	74 78                	je     10820 <_ZN4Code10mulPackAddERKN5Xbyak6RegExpERKNS0_3XmmEiS3_RKNS0_5Reg64ERKNS0_4util4PackE+0x700>
   107a8:	0f 1f 84 00 00 00 00 	nopl   0x0(%rax,%rax,1)
   107af:	00 
   107b0:	84 d2                	test   %dl,%dl
   107b2:	0f 84 e8 00 00 00    	je     108a0 <_ZN4Code10mulPackAddERKN5Xbyak6RegExpERKNS0_3XmmEiS3_RKNS0_5Reg64ERKNS0_4util4PackE+0x780>
   107b8:	e8 09 32 ff ff       	callq  39c6 <_ZN5Xbyak13CodeGenerator5opVexERKNS_3RegEPKNS_7OperandERS5_iii.part.0>
   107bd:	0f 1f 00             	nopl   (%rax)
   107c0:	48 8d b5 f8 04 00 00 	lea    0x4f8(%rbp),%rsi
   107c7:	48 89 ef             	mov    %rbp,%rdi
   107ca:	48 89 f2             	mov    %rsi,%rdx
   107cd:	e8 ee 77 ff ff       	callq  7fc0 <_ZN5Xbyak13CodeGenerator3rexERKNS_7OperandES3_>
   107d2:	0f b7 b5 fa 04 00 00 	movzwl 0x4fa(%rbp),%esi
   107d9:	48 89 ef             	mov    %rbp,%rdi
   107dc:	66 81 e6 ff 3f       	and    $0x3fff,%si
   107e1:	66 c1 ee 03          	shr    $0x3,%si
   107e5:	83 f6 01             	xor    $0x1,%esi
   107e8:	83 e6 01             	and    $0x1,%esi
   107eb:	83 ce 30             	or     $0x30,%esi
   107ee:	e8 fd 76 ff ff       	callq  7ef0 <_ZN5Xbyak9CodeArray2dbEi>
   107f3:	0f b6 85 f8 04 00 00 	movzbl 0x4f8(%rbp),%eax
   107fa:	48 89 ef             	mov    %rbp,%rdi
   107fd:	8d 34 c5 00 00 00 00 	lea    0x0(,%rax,8),%esi
   10804:	83 e0 07             	and    $0x7,%eax
   10807:	83 e6 38             	and    $0x38,%esi
   1080a:	09 c6                	or     %eax,%esi
   1080c:	83 ce c0             	or     $0xffffffc0,%esi
   1080f:	40 0f b6 f6          	movzbl %sil,%esi
   10813:	e8 d8 76 ff ff       	callq  7ef0 <_ZN5Xbyak9CodeArray2dbEi>
   10818:	e9 18 fd ff ff       	jmpq   10535 <_ZN4Code10mulPackAddERKN5Xbyak6RegExpERKNS0_3XmmEiS3_RKNS0_5Reg64ERKNS0_4util4PackE+0x415>
   1081d:	0f 1f 00             	nopl   (%rax)
   10820:	f6 85 f9 04 00 00 10 	testb  $0x10,0x4f9(%rbp)
   10827:	75 87                	jne    107b0 <_ZN4Code10mulPackAddERKN5Xbyak6RegExpERKNS0_3XmmEiS3_RKNS0_5Reg64ERKNS0_4util4PackE+0x690>
   10829:	f6 85 f8 04 00 00 10 	testb  $0x10,0x4f8(%rbp)
   10830:	0f 85 7a ff ff ff    	jne    107b0 <_ZN4Code10mulPackAddERKN5Xbyak6RegExpERKNS0_3XmmEiS3_RKNS0_5Reg64ERKNS0_4util4PackE+0x690>
   10836:	0f b6 b5 fc 04 00 00 	movzbl 0x4fc(%rbp),%esi
   1083d:	40 f6 c6 07          	test   $0x7,%sil
   10841:	0f 85 69 ff ff ff    	jne    107b0 <_ZN4Code10mulPackAddERKN5Xbyak6RegExpERKNS0_3XmmEiS3_RKNS0_5Reg64ERKNS0_4util4PackE+0x690>
   10847:	83 e6 38             	and    $0x38,%esi
   1084a:	0f 85 60 ff ff ff    	jne    107b0 <_ZN4Code10mulPackAddERKN5Xbyak6RegExpERKNS0_3XmmEiS3_RKNS0_5Reg64ERKNS0_4util4PackE+0x690>
   10850:	80 bc 24 34 01 00 00 	cmpb   $0x0,0x134(%rsp)
   10857:	00 
   10858:	0f 85 82 20 00 00    	jne    128e0 <_ZN4Code10mulPackAddERKN5Xbyak6RegExpERKNS0_3XmmEiS3_RKNS0_5Reg64ERKNS0_4util4PackE+0x27c0>
   1085e:	84 d2                	test   %dl,%dl
   10860:	0f 85 52 ff ff ff    	jne    107b8 <_ZN4Code10mulPackAddERKN5Xbyak6RegExpERKNS0_3XmmEiS3_RKNS0_5Reg64ERKNS0_4util4PackE+0x698>
   10866:	0f b6 c9             	movzbl %cl,%ecx
   10869:	45 89 e8             	mov    %r13d,%r8d
   1086c:	4c 89 e6             	mov    %r12,%rsi
   1086f:	41 b9 f6 00 00 00    	mov    $0xf6,%r9d
   10875:	4c 8d bc 24 40 01 00 	lea    0x140(%rsp),%r15
   1087c:	00 
   1087d:	48 83 ec 08          	sub    $0x8,%rsp
   10881:	48 89 ef             	mov    %rbp,%rdi
   10884:	51                   	push   %rcx
   10885:	48 8b 4c 24 20       	mov    0x20(%rsp),%rcx
   1088a:	4c 89 fa             	mov    %r15,%rdx
   1088d:	e8 ee 7b ff ff       	callq  8480 <_ZN5Xbyak13CodeGenerator3vexERKNS_3RegES3_PKNS_7OperandEiib>
   10892:	59                   	pop    %rcx
   10893:	45 31 c0             	xor    %r8d,%r8d
   10896:	5e                   	pop    %rsi
   10897:	e9 aa 00 00 00       	jmpq   10946 <_ZN4Code10mulPackAddERKN5Xbyak6RegExpERKNS0_3XmmEiS3_RKNS0_5Reg64ERKNS0_4util4PackE+0x826>
   1089c:	0f 1f 40 00          	nopl   0x0(%rax)
   108a0:	44 0f b6 9c 24 34 01 	movzbl 0x134(%rsp),%r11d
   108a7:	00 00 
   108a9:	45 84 db             	test   %r11b,%r11b
   108ac:	74 3a                	je     108e8 <_ZN4Code10mulPackAddERKN5Xbyak6RegExpERKNS0_3XmmEiS3_RKNS0_5Reg64ERKNS0_4util4PackE+0x7c8>
   108ae:	bf 10 00 00 00       	mov    $0x10,%edi
   108b3:	e8 68 2b ff ff       	callq  3420 <__cxa_allocate_exception@plt>
   108b8:	48 8d 15 41 6a ff ff 	lea    -0x95bf(%rip),%rdx        # 7300 <_ZN5Xbyak5ErrorD1Ev>
   108bf:	48 8d 35 7a 81 00 00 	lea    0x817a(%rip),%rsi        # 18a40 <_ZTVN10__cxxabiv120__si_class_type_infoE@CXXABI_1.3>
   108c6:	48 89 c7             	mov    %rax,%rdi
   108c9:	48 8d 05 28 82 00 00 	lea    0x8228(%rip),%rax        # 18af8 <_ZTVN5Xbyak5ErrorE>
   108d0:	c7 47 08 27 00 00 00 	movl   $0x27,0x8(%rdi)
   108d7:	48 83 c0 10          	add    $0x10,%rax
   108db:	48 89 07             	mov    %rax,(%rdi)
   108de:	e8 7d 2d ff ff       	callq  3660 <__cxa_throw@plt>
   108e3:	0f 1f 44 00 00       	nopl   0x0(%rax,%rax,1)
   108e8:	0f b6 c9             	movzbl %cl,%ecx
   108eb:	45 89 e8             	mov    %r13d,%r8d
   108ee:	41 b9 f6 00 00 00    	mov    $0xf6,%r9d
   108f4:	48 89 ef             	mov    %rbp,%rdi
   108f7:	0f b7 b4 24 4a 01 00 	movzwl 0x14a(%rsp),%esi
   108fe:	00 
   108ff:	4c 8d bc 24 40 01 00 	lea    0x140(%rsp),%r15
   10906:	00 
   10907:	89 f2                	mov    %esi,%edx
   10909:	66 81 e2 ff 3f       	and    $0x3fff,%dx
   1090e:	66 f7 c6 80 03       	test   $0x380,%si
   10913:	be 00 00 00 00       	mov    $0x0,%esi
   10918:	0f 44 d6             	cmove  %esi,%edx
   1091b:	c0 e8 04             	shr    $0x4,%al
   1091e:	48 83 ec 08          	sub    $0x8,%rsp
   10922:	4c 89 e6             	mov    %r12,%rsi
   10925:	83 e0 01             	and    $0x1,%eax
   10928:	50                   	push   %rax
   10929:	0f b7 c2             	movzwl %dx,%eax
   1092c:	4c 89 fa             	mov    %r15,%rdx
   1092f:	50                   	push   %rax
   10930:	6a 00                	pushq  $0x0
   10932:	6a 00                	pushq  $0x0
   10934:	51                   	push   %rcx
   10935:	48 8b 4c 24 40       	mov    0x40(%rsp),%rcx
   1093a:	e8 f1 7f ff ff       	callq  8930 <_ZN5Xbyak13CodeGenerator4evexERKNS_3RegES3_PKNS_7OperandEiibbijb>
   1093f:	48 83 c4 30          	add    $0x30,%rsp
   10943:	41 89 c0             	mov    %eax,%r8d
   10946:	41 0f b6 14 24       	movzbl (%r12),%edx
   1094b:	45 31 c9             	xor    %r9d,%r9d
   1094e:	31 c9                	xor    %ecx,%ecx
   10950:	48 89 ef             	mov    %rbp,%rdi
   10953:	48 8d b4 24 00 01 00 	lea    0x100(%rsp),%rsi
   1095a:	00 
   1095b:	83 e2 1f             	and    $0x1f,%edx
   1095e:	e8 cd b0 ff ff       	callq  ba30 <_ZN5Xbyak13CodeGenerator6opAddrERKNS_7AddressEiiib>
   10963:	48 8b 84 24 c0 01 00 	mov    0x1c0(%rsp),%rax
   1096a:	00 
   1096b:	4c 8b 40 78          	mov    0x78(%rax),%r8
   1096f:	4c 39 44 24 08       	cmp    %r8,0x8(%rsp)
   10974:	0f 83 73 1f 00 00    	jae    128ed <_ZN4Code10mulPackAddERKN5Xbyak6RegExpERKNS0_3XmmEiS3_RKNS0_5Reg64ERKNS0_4util4PackE+0x27cd>
   1097a:	48 8b 74 24 08       	mov    0x8(%rsp),%rsi
   1097f:	4c 8b 2c f0          	mov    (%rax,%rsi,8),%r13
   10983:	41 f6 45 00 80       	testb  $0x80,0x0(%r13)
   10988:	75 06                	jne    10990 <_ZN4Code10mulPackAddERKN5Xbyak6RegExpERKNS0_3XmmEiS3_RKNS0_5Reg64ERKNS0_4util4PackE+0x870>
   1098a:	e8 eb 2e ff ff       	callq  387a <_ZN5Xbyak13CodeGenerator3movERKNS_7OperandES3_.part.0>
   1098f:	90                   	nop
   10990:	41 0f b7 45 02       	movzwl 0x2(%r13),%eax
   10995:	89 c2                	mov    %eax,%edx
   10997:	66 81 e2 ff 3f       	and    $0x3fff,%dx
   1099c:	a8 60                	test   $0x60,%al
   1099e:	74 ea                	je     1098a <_ZN4Code10mulPackAddERKN5Xbyak6RegExpERKNS0_3XmmEiS3_RKNS0_5Reg64ERKNS0_4util4PackE+0x86a>
   109a0:	0f b7 85 f8 04 00 00 	movzwl 0x4f8(%rbp),%eax
   109a7:	89 c1                	mov    %eax,%ecx
   109a9:	66 c1 e9 06          	shr    $0x6,%cx
   109ad:	a8 80                	test   $0x80,%al
   109af:	74 17                	je     109c8 <_ZN4Code10mulPackAddERKN5Xbyak6RegExpERKNS0_3XmmEiS3_RKNS0_5Reg64ERKNS0_4util4PackE+0x8a8>
   109b1:	0f b7 85 fa 04 00 00 	movzwl 0x4fa(%rbp),%eax
   109b8:	89 c6                	mov    %eax,%esi
   109ba:	66 81 e6 ff 3f       	and    $0x3fff,%si
   109bf:	a8 60                	test   $0x60,%al
   109c1:	74 05                	je     109c8 <_ZN4Code10mulPackAddERKN5Xbyak6RegExpERKNS0_3XmmEiS3_RKNS0_5Reg64ERKNS0_4util4PackE+0x8a8>
   109c3:	66 39 f2             	cmp    %si,%dx
   109c6:	74 05                	je     109cd <_ZN4Code10mulPackAddERKN5Xbyak6RegExpERKNS0_3XmmEiS3_RKNS0_5Reg64ERKNS0_4util4PackE+0x8ad>
   109c8:	83 e1 01             	and    $0x1,%ecx
   109cb:	74 bd                	je     1098a <_ZN4Code10mulPackAddERKN5Xbyak6RegExpERKNS0_3XmmEiS3_RKNS0_5Reg64ERKNS0_4util4PackE+0x86a>
   109cd:	48 8b 95 80 00 00 00 	mov    0x80(%rbp),%rdx
   109d4:	4c 8b 75 70          	mov    0x70(%rbp),%r14
   109d8:	4c 39 f2             	cmp    %r14,%rdx
   109db:	0f 82 6f 0f 00 00    	jb     11950 <_ZN4Code10mulPackAddERKN5Xbyak6RegExpERKNS0_3XmmEiS3_RKNS0_5Reg64ERKNS0_4util4PackE+0x1830>
   109e1:	83 7d 20 03          	cmpl   $0x3,0x20(%rbp)
   109e5:	0f 85 73 1f 00 00    	jne    1295e <_ZN4Code10mulPackAddERKN5Xbyak6RegExpERKNS0_3XmmEiS3_RKNS0_5Reg64ERKNS0_4util4PackE+0x283e>
   109eb:	4d 01 f6             	add    %r14,%r14
   109ee:	48 8b 7d 68          	mov    0x68(%rbp),%rdi
   109f2:	b8 00 10 00 00       	mov    $0x1000,%eax
   109f7:	49 81 fe 00 10 00 00 	cmp    $0x1000,%r14
   109fe:	4c 0f 42 f0          	cmovb  %rax,%r14
   10a02:	48 8b 07             	mov    (%rdi),%rax
   10a05:	4c 89 f6             	mov    %r14,%rsi
   10a08:	ff 10                	callq  *(%rax)
   10a0a:	48 85 c0             	test   %rax,%rax
   10a0d:	0f 84 c4 1f 00 00    	je     129d7 <_ZN4Code10mulPackAddERKN5Xbyak6RegExpERKNS0_3XmmEiS3_RKNS0_5Reg64ERKNS0_4util4PackE+0x28b7>
   10a13:	31 d2                	xor    %edx,%edx
   10a15:	48 83 bd 80 00 00 00 	cmpq   $0x0,0x80(%rbp)
   10a1c:	00 
   10a1d:	74 19                	je     10a38 <_ZN4Code10mulPackAddERKN5Xbyak6RegExpERKNS0_3XmmEiS3_RKNS0_5Reg64ERKNS0_4util4PackE+0x918>
   10a1f:	90                   	nop
   10a20:	48 8b 4d 78          	mov    0x78(%rbp),%rcx
   10a24:	0f b6 0c 11          	movzbl (%rcx,%rdx,1),%ecx
   10a28:	88 0c 10             	mov    %cl,(%rax,%rdx,1)
   10a2b:	48 83 c2 01          	add    $0x1,%rdx
   10a2f:	48 39 95 80 00 00 00 	cmp    %rdx,0x80(%rbp)
   10a36:	77 e8                	ja     10a20 <_ZN4Code10mulPackAddERKN5Xbyak6RegExpERKNS0_3XmmEiS3_RKNS0_5Reg64ERKNS0_4util4PackE+0x900>
   10a38:	48 8b 7d 68          	mov    0x68(%rbp),%rdi
   10a3c:	48 8b 75 78          	mov    0x78(%rbp),%rsi
   10a40:	48 89 44 24 18       	mov    %rax,0x18(%rsp)
   10a45:	48 8b 17             	mov    (%rdi),%rdx
   10a48:	ff 52 08             	callq  *0x8(%rdx)
   10a4b:	48 8b 44 24 18       	mov    0x18(%rsp),%rax
   10a50:	4c 89 75 70          	mov    %r14,0x70(%rbp)
   10a54:	48 8b 95 80 00 00 00 	mov    0x80(%rbp),%rdx
   10a5b:	48 89 45 78          	mov    %rax,0x78(%rbp)
   10a5f:	48 8d 4a 01          	lea    0x1(%rdx),%rcx
   10a63:	48 89 8d 80 00 00 00 	mov    %rcx,0x80(%rbp)
   10a6a:	c6 04 10 f3          	movb   $0xf3,(%rax,%rdx,1)
   10a6e:	0f b7 95 f8 04 00 00 	movzwl 0x4f8(%rbp),%edx
   10a75:	89 d0                	mov    %edx,%eax
   10a77:	66 c1 e8 06          	shr    $0x6,%ax
   10a7b:	83 e2 40             	and    $0x40,%edx
   10a7e:	0f 85 04 0b 00 00    	jne    11588 <_ZN4Code10mulPackAddERKN5Xbyak6RegExpERKNS0_3XmmEiS3_RKNS0_5Reg64ERKNS0_4util4PackE+0x1468>
   10a84:	41 0f b7 55 00       	movzwl 0x0(%r13),%edx
   10a89:	89 d6                	mov    %edx,%esi
   10a8b:	66 c1 ee 06          	shr    $0x6,%si
   10a8f:	83 e2 40             	and    $0x40,%edx
   10a92:	0f 85 c8 14 00 00    	jne    11f60 <_ZN4Code10mulPackAddERKN5Xbyak6RegExpERKNS0_3XmmEiS3_RKNS0_5Reg64ERKNS0_4util4PackE+0x1e40>
   10a98:	41 0f b7 4d 02       	movzwl 0x2(%r13),%ecx
   10a9d:	89 ca                	mov    %ecx,%edx
   10a9f:	66 81 e2 ff 3f       	and    $0x3fff,%dx
   10aa4:	83 e6 02             	and    $0x2,%esi
   10aa7:	0f 84 83 19 00 00    	je     12430 <_ZN4Code10mulPackAddERKN5Xbyak6RegExpERKNS0_3XmmEiS3_RKNS0_5Reg64ERKNS0_4util4PackE+0x2310>
   10aad:	83 e1 40             	and    $0x40,%ecx
   10ab0:	66 83 f9 01          	cmp    $0x1,%cx
   10ab4:	45 19 c9             	sbb    %r9d,%r9d
   10ab7:	41 83 e1 f8          	and    $0xfffffff8,%r9d
   10abb:	41 83 c1 0c          	add    $0xc,%r9d
   10abf:	66 83 f9 01          	cmp    $0x1,%cx
   10ac3:	19 ff                	sbb    %edi,%edi
   10ac5:	f7 d7                	not    %edi
   10ac7:	83 e7 08             	and    $0x8,%edi
   10aca:	0f b6 b5 f8 04 00 00 	movzbl 0x4f8(%rbp),%esi
   10ad1:	45 0f b6 55 00       	movzbl 0x0(%r13),%r10d
   10ad6:	83 e0 02             	and    $0x2,%eax
   10ad9:	44 0f b7 85 fa 04 00 	movzwl 0x4fa(%rbp),%r8d
   10ae0:	00 
   10ae1:	83 e6 3f             	and    $0x3f,%esi
   10ae4:	45 89 d3             	mov    %r10d,%r11d
   10ae7:	41 89 f6             	mov    %esi,%r14d
   10aea:	44 89 c1             	mov    %r8d,%ecx
   10aed:	41 83 e3 3f          	and    $0x3f,%r11d
   10af1:	41 c0 ee 03          	shr    $0x3,%r14b
   10af5:	66 81 e1 ff 3f       	and    $0x3fff,%cx
   10afa:	41 83 e6 01          	and    $0x1,%r14d
   10afe:	41 83 e2 08          	and    $0x8,%r10d
   10b02:	0f 85 78 19 00 00    	jne    12480 <_ZN4Code10mulPackAddERKN5Xbyak6RegExpERKNS0_3XmmEiS3_RKNS0_5Reg64ERKNS0_4util4PackE+0x2360>
   10b08:	41 09 fe             	or     %edi,%r14d
   10b0b:	66 85 c0             	test   %ax,%ax
   10b0e:	74 0a                	je     10b1a <_ZN4Code10mulPackAddERKN5Xbyak6RegExpERKNS0_3XmmEiS3_RKNS0_5Reg64ERKNS0_4util4PackE+0x9fa>
   10b10:	41 83 e0 40          	and    $0x40,%r8d
   10b14:	0f 85 7c 19 00 00    	jne    12496 <_ZN4Code10mulPackAddERKN5Xbyak6RegExpERKNS0_3XmmEiS3_RKNS0_5Reg64ERKNS0_4util4PackE+0x2376>
   10b1a:	45 84 f6             	test   %r14b,%r14b
   10b1d:	75 08                	jne    10b27 <_ZN4Code10mulPackAddERKN5Xbyak6RegExpERKNS0_3XmmEiS3_RKNS0_5Reg64ERKNS0_4util4PackE+0xa07>
   10b1f:	44 09 de             	or     %r11d,%esi
   10b22:	83 e6 20             	and    $0x20,%esi
   10b25:	74 04                	je     10b2b <_ZN4Code10mulPackAddERKN5Xbyak6RegExpERKNS0_3XmmEiS3_RKNS0_5Reg64ERKNS0_4util4PackE+0xa0b>
   10b27:	41 83 ce 40          	or     $0x40,%r14d
   10b2b:	f6 c1 10             	test   $0x10,%cl
   10b2e:	0f 84 8c 10 00 00    	je     11bc0 <_ZN4Code10mulPackAddERKN5Xbyak6RegExpERKNS0_3XmmEiS3_RKNS0_5Reg64ERKNS0_4util4PackE+0x1aa0>
   10b34:	f6 c2 60             	test   $0x60,%dl
   10b37:	0f 85 83 10 00 00    	jne    11bc0 <_ZN4Code10mulPackAddERKN5Xbyak6RegExpERKNS0_3XmmEiS3_RKNS0_5Reg64ERKNS0_4util4PackE+0x1aa0>
   10b3d:	48 8b 95 80 00 00 00 	mov    0x80(%rbp),%rdx
   10b44:	4c 8b 45 70          	mov    0x70(%rbp),%r8
   10b48:	4c 39 c2             	cmp    %r8,%rdx
   10b4b:	0f 82 95 10 00 00    	jb     11be6 <_ZN4Code10mulPackAddERKN5Xbyak6RegExpERKNS0_3XmmEiS3_RKNS0_5Reg64ERKNS0_4util4PackE+0x1ac6>
   10b51:	83 7d 20 03          	cmpl   $0x3,0x20(%rbp)
   10b55:	0f 85 03 1e 00 00    	jne    1295e <_ZN4Code10mulPackAddERKN5Xbyak6RegExpERKNS0_3XmmEiS3_RKNS0_5Reg64ERKNS0_4util4PackE+0x283e>
   10b5b:	4d 01 c0             	add    %r8,%r8
   10b5e:	48 8b 7d 68          	mov    0x68(%rbp),%rdi
   10b62:	b8 00 10 00 00       	mov    $0x1000,%eax
   10b67:	49 81 f8 00 10 00 00 	cmp    $0x1000,%r8
   10b6e:	4c 0f 42 c0          	cmovb  %rax,%r8
   10b72:	48 8b 07             	mov    (%rdi),%rax
   10b75:	4c 89 44 24 18       	mov    %r8,0x18(%rsp)
   10b7a:	4c 89 c6             	mov    %r8,%rsi
   10b7d:	ff 10                	callq  *(%rax)
   10b7f:	48 85 c0             	test   %rax,%rax
   10b82:	0f 84 4f 1e 00 00    	je     129d7 <_ZN4Code10mulPackAddERKN5Xbyak6RegExpERKNS0_3XmmEiS3_RKNS0_5Reg64ERKNS0_4util4PackE+0x28b7>
   10b88:	31 d2                	xor    %edx,%edx
   10b8a:	48 83 bd 80 00 00 00 	cmpq   $0x0,0x80(%rbp)
   10b91:	00 
   10b92:	4c 8b 44 24 18       	mov    0x18(%rsp),%r8
   10b97:	74 1f                	je     10bb8 <_ZN4Code10mulPackAddERKN5Xbyak6RegExpERKNS0_3XmmEiS3_RKNS0_5Reg64ERKNS0_4util4PackE+0xa98>
   10b99:	0f 1f 80 00 00 00 00 	nopl   0x0(%rax)
   10ba0:	48 8b 4d 78          	mov    0x78(%rbp),%rcx
   10ba4:	0f b6 0c 11          	movzbl (%rcx,%rdx,1),%ecx
   10ba8:	88 0c 10             	mov    %cl,(%rax,%rdx,1)
   10bab:	48 83 c2 01          	add    $0x1,%rdx
   10baf:	48 39 95 80 00 00 00 	cmp    %rdx,0x80(%rbp)
   10bb6:	77 e8                	ja     10ba0 <_ZN4Code10mulPackAddERKN5Xbyak6RegExpERKNS0_3XmmEiS3_RKNS0_5Reg64ERKNS0_4util4PackE+0xa80>
   10bb8:	48 8b 7d 68          	mov    0x68(%rbp),%rdi
   10bbc:	48 8b 75 78          	mov    0x78(%rbp),%rsi
   10bc0:	4c 89 44 24 20       	mov    %r8,0x20(%rsp)
   10bc5:	48 89 44 24 18       	mov    %rax,0x18(%rsp)
   10bca:	48 8b 17             	mov    (%rdi),%rdx
   10bcd:	ff 52 08             	callq  *0x8(%rdx)
   10bd0:	48 8b 44 24 18       	mov    0x18(%rsp),%rax
   10bd5:	4c 8b 44 24 20       	mov    0x20(%rsp),%r8
   10bda:	48 8b 95 80 00 00 00 	mov    0x80(%rbp),%rdx
   10be1:	48 89 45 78          	mov    %rax,0x78(%rbp)
   10be5:	4c 89 45 70          	mov    %r8,0x70(%rbp)
   10be9:	48 8d 4a 01          	lea    0x1(%rdx),%rcx
   10bed:	48 89 8d 80 00 00 00 	mov    %rcx,0x80(%rbp)
   10bf4:	c6 04 10 66          	movb   $0x66,(%rax,%rdx,1)
   10bf8:	48 8b 95 80 00 00 00 	mov    0x80(%rbp),%rdx
   10bff:	48 8b 45 70          	mov    0x70(%rbp),%rax
   10c03:	45 84 f6             	test   %r14b,%r14b
   10c06:	0f 85 bc 15 00 00    	jne    121c8 <_ZN4Code10mulPackAddERKN5Xbyak6RegExpERKNS0_3XmmEiS3_RKNS0_5Reg64ERKNS0_4util4PackE+0x20a8>
   10c0c:	48 39 c2             	cmp    %rax,%rdx
   10c0f:	0f 82 1b 14 00 00    	jb     12030 <_ZN4Code10mulPackAddERKN5Xbyak6RegExpERKNS0_3XmmEiS3_RKNS0_5Reg64ERKNS0_4util4PackE+0x1f10>
   10c15:	83 7d 20 03          	cmpl   $0x3,0x20(%rbp)
   10c19:	0f 85 3f 1d 00 00    	jne    1295e <_ZN4Code10mulPackAddERKN5Xbyak6RegExpERKNS0_3XmmEiS3_RKNS0_5Reg64ERKNS0_4util4PackE+0x283e>
   10c1f:	4c 8d 34 00          	lea    (%rax,%rax,1),%r14
   10c23:	48 8b 7d 68          	mov    0x68(%rbp),%rdi
   10c27:	b8 00 10 00 00       	mov    $0x1000,%eax
   10c2c:	49 81 fe 00 10 00 00 	cmp    $0x1000,%r14
   10c33:	4c 0f 42 f0          	cmovb  %rax,%r14
   10c37:	48 8b 07             	mov    (%rdi),%rax
   10c3a:	4c 89 f6             	mov    %r14,%rsi
   10c3d:	ff 10                	callq  *(%rax)
   10c3f:	48 85 c0             	test   %rax,%rax
   10c42:	0f 84 8f 1d 00 00    	je     129d7 <_ZN4Code10mulPackAddERKN5Xbyak6RegExpERKNS0_3XmmEiS3_RKNS0_5Reg64ERKNS0_4util4PackE+0x28b7>
   10c48:	31 d2                	xor    %edx,%edx
   10c4a:	48 83 bd 80 00 00 00 	cmpq   $0x0,0x80(%rbp)
   10c51:	00 
   10c52:	74 1c                	je     10c70 <_ZN4Code10mulPackAddERKN5Xbyak6RegExpERKNS0_3XmmEiS3_RKNS0_5Reg64ERKNS0_4util4PackE+0xb50>
   10c54:	0f 1f 40 00          	nopl   0x0(%rax)
   10c58:	48 8b 4d 78          	mov    0x78(%rbp),%rcx
   10c5c:	0f b6 0c 11          	movzbl (%rcx,%rdx,1),%ecx
   10c60:	88 0c 10             	mov    %cl,(%rax,%rdx,1)
   10c63:	48 83 c2 01          	add    $0x1,%rdx
   10c67:	48 39 95 80 00 00 00 	cmp    %rdx,0x80(%rbp)
   10c6e:	77 e8                	ja     10c58 <_ZN4Code10mulPackAddERKN5Xbyak6RegExpERKNS0_3XmmEiS3_RKNS0_5Reg64ERKNS0_4util4PackE+0xb38>
   10c70:	48 8b 7d 68          	mov    0x68(%rbp),%rdi
   10c74:	48 8b 75 78          	mov    0x78(%rbp),%rsi
   10c78:	48 89 44 24 18       	mov    %rax,0x18(%rsp)
   10c7d:	48 8b 17             	mov    (%rdi),%rdx
   10c80:	ff 52 08             	callq  *0x8(%rdx)
   10c83:	48 8b 44 24 18       	mov    0x18(%rsp),%rax
   10c88:	4c 89 75 70          	mov    %r14,0x70(%rbp)
   10c8c:	48 8b 95 80 00 00 00 	mov    0x80(%rbp),%rdx
   10c93:	48 89 45 78          	mov    %rax,0x78(%rbp)
   10c97:	48 8d 4a 01          	lea    0x1(%rdx),%rcx
   10c9b:	48 89 8d 80 00 00 00 	mov    %rcx,0x80(%rbp)
   10ca2:	c6 04 10 0f          	movb   $0xf,(%rax,%rdx,1)
   10ca6:	48 8b 95 80 00 00 00 	mov    0x80(%rbp),%rdx
   10cad:	4c 8b 75 70          	mov    0x70(%rbp),%r14
   10cb1:	4c 39 f2             	cmp    %r14,%rdx
   10cb4:	0f 82 66 13 00 00    	jb     12020 <_ZN4Code10mulPackAddERKN5Xbyak6RegExpERKNS0_3XmmEiS3_RKNS0_5Reg64ERKNS0_4util4PackE+0x1f00>
   10cba:	83 7d 20 03          	cmpl   $0x3,0x20(%rbp)
   10cbe:	0f 85 9a 1c 00 00    	jne    1295e <_ZN4Code10mulPackAddERKN5Xbyak6RegExpERKNS0_3XmmEiS3_RKNS0_5Reg64ERKNS0_4util4PackE+0x283e>
   10cc4:	4d 01 f6             	add    %r14,%r14
   10cc7:	48 8b 7d 68          	mov    0x68(%rbp),%rdi
   10ccb:	b8 00 10 00 00       	mov    $0x1000,%eax
   10cd0:	49 81 fe 00 10 00 00 	cmp    $0x1000,%r14
   10cd7:	4c 0f 42 f0          	cmovb  %rax,%r14
   10cdb:	48 8b 07             	mov    (%rdi),%rax
   10cde:	4c 89 f6             	mov    %r14,%rsi
   10ce1:	ff 10                	callq  *(%rax)
   10ce3:	48 85 c0             	test   %rax,%rax
   10ce6:	0f 84 eb 1c 00 00    	je     129d7 <_ZN4Code10mulPackAddERKN5Xbyak6RegExpERKNS0_3XmmEiS3_RKNS0_5Reg64ERKNS0_4util4PackE+0x28b7>
   10cec:	31 d2                	xor    %edx,%edx
   10cee:	48 83 bd 80 00 00 00 	cmpq   $0x0,0x80(%rbp)
   10cf5:	00 
   10cf6:	74 20                	je     10d18 <_ZN4Code10mulPackAddERKN5Xbyak6RegExpERKNS0_3XmmEiS3_RKNS0_5Reg64ERKNS0_4util4PackE+0xbf8>
   10cf8:	0f 1f 84 00 00 00 00 	nopl   0x0(%rax,%rax,1)
   10cff:	00 
   10d00:	48 8b 4d 78          	mov    0x78(%rbp),%rcx
   10d04:	0f b6 0c 11          	movzbl (%rcx,%rdx,1),%ecx
   10d08:	88 0c 10             	mov    %cl,(%rax,%rdx,1)
   10d0b:	48 83 c2 01          	add    $0x1,%rdx
   10d0f:	48 39 95 80 00 00 00 	cmp    %rdx,0x80(%rbp)
   10d16:	77 e8                	ja     10d00 <_ZN4Code10mulPackAddERKN5Xbyak6RegExpERKNS0_3XmmEiS3_RKNS0_5Reg64ERKNS0_4util4PackE+0xbe0>
   10d18:	48 8b 7d 68          	mov    0x68(%rbp),%rdi
   10d1c:	48 8b 75 78          	mov    0x78(%rbp),%rsi
   10d20:	48 89 44 24 18       	mov    %rax,0x18(%rsp)
   10d25:	48 8b 17             	mov    (%rdi),%rdx
   10d28:	ff 52 08             	callq  *0x8(%rdx)
   10d2b:	48 8b 44 24 18       	mov    0x18(%rsp),%rax
   10d30:	4c 89 75 70          	mov    %r14,0x70(%rbp)
   10d34:	48 8b 95 80 00 00 00 	mov    0x80(%rbp),%rdx
   10d3b:	48 89 45 78          	mov    %rax,0x78(%rbp)
   10d3f:	48 8d 4a 01          	lea    0x1(%rdx),%rcx
   10d43:	48 89 8d 80 00 00 00 	mov    %rcx,0x80(%rbp)
   10d4a:	c6 04 10 38          	movb   $0x38,(%rax,%rdx,1)
   10d4e:	48 8b 95 80 00 00 00 	mov    0x80(%rbp),%rdx
   10d55:	4c 8b 75 70          	mov    0x70(%rbp),%r14
   10d59:	4c 39 f2             	cmp    %r14,%rdx
   10d5c:	0f 82 ee 11 00 00    	jb     11f50 <_ZN4Code10mulPackAddERKN5Xbyak6RegExpERKNS0_3XmmEiS3_RKNS0_5Reg64ERKNS0_4util4PackE+0x1e30>
   10d62:	83 7d 20 03          	cmpl   $0x3,0x20(%rbp)
   10d66:	0f 85 f2 1b 00 00    	jne    1295e <_ZN4Code10mulPackAddERKN5Xbyak6RegExpERKNS0_3XmmEiS3_RKNS0_5Reg64ERKNS0_4util4PackE+0x283e>
   10d6c:	4d 01 f6             	add    %r14,%r14
   10d6f:	48 8b 7d 68          	mov    0x68(%rbp),%rdi
   10d73:	b8 00 10 00 00       	mov    $0x1000,%eax
   10d78:	49 81 fe 00 10 00 00 	cmp    $0x1000,%r14
   10d7f:	4c 0f 42 f0          	cmovb  %rax,%r14
   10d83:	48 8b 07             	mov    (%rdi),%rax
   10d86:	4c 89 f6             	mov    %r14,%rsi
   10d89:	ff 10                	callq  *(%rax)
   10d8b:	48 85 c0             	test   %rax,%rax
   10d8e:	0f 84 43 1c 00 00    	je     129d7 <_ZN4Code10mulPackAddERKN5Xbyak6RegExpERKNS0_3XmmEiS3_RKNS0_5Reg64ERKNS0_4util4PackE+0x28b7>
   10d94:	31 d2                	xor    %edx,%edx
   10d96:	48 83 bd 80 00 00 00 	cmpq   $0x0,0x80(%rbp)
   10d9d:	00 
   10d9e:	74 18                	je     10db8 <_ZN4Code10mulPackAddERKN5Xbyak6RegExpERKNS0_3XmmEiS3_RKNS0_5Reg64ERKNS0_4util4PackE+0xc98>
   10da0:	48 8b 4d 78          	mov    0x78(%rbp),%rcx
   10da4:	0f b6 0c 11          	movzbl (%rcx,%rdx,1),%ecx
   10da8:	88 0c 10             	mov    %cl,(%rax,%rdx,1)
   10dab:	48 83 c2 01          	add    $0x1,%rdx
   10daf:	48 39 95 80 00 00 00 	cmp    %rdx,0x80(%rbp)
   10db6:	77 e8                	ja     10da0 <_ZN4Code10mulPackAddERKN5Xbyak6RegExpERKNS0_3XmmEiS3_RKNS0_5Reg64ERKNS0_4util4PackE+0xc80>
   10db8:	48 8b 7d 68          	mov    0x68(%rbp),%rdi
   10dbc:	48 8b 75 78          	mov    0x78(%rbp),%rsi
   10dc0:	48 89 44 24 18       	mov    %rax,0x18(%rsp)
   10dc5:	48 8b 17             	mov    (%rdi),%rdx
   10dc8:	ff 52 08             	callq  *0x8(%rdx)
   10dcb:	48 8b 44 24 18       	mov    0x18(%rsp),%rax
   10dd0:	4c 89 75 70          	mov    %r14,0x70(%rbp)
   10dd4:	48 8b 95 80 00 00 00 	mov    0x80(%rbp),%rdx
   10ddb:	48 89 45 78          	mov    %rax,0x78(%rbp)
   10ddf:	48 8d 4a 01          	lea    0x1(%rdx),%rcx
   10de3:	48 89 8d 80 00 00 00 	mov    %rcx,0x80(%rbp)
   10dea:	c6 04 10 f6          	movb   $0xf6,(%rax,%rdx,1)
   10dee:	41 0f b6 45 00       	movzbl 0x0(%r13),%eax
   10df3:	0f b6 95 f8 04 00 00 	movzbl 0x4f8(%rbp),%edx
   10dfa:	48 8b 4d 70          	mov    0x70(%rbp),%rcx
   10dfe:	c1 e0 03             	shl    $0x3,%eax
   10e01:	83 e2 07             	and    $0x7,%edx
   10e04:	83 e0 38             	and    $0x38,%eax
   10e07:	09 d0                	or     %edx,%eax
   10e09:	48 8b 95 80 00 00 00 	mov    0x80(%rbp),%rdx
   10e10:	83 c8 c0             	or     $0xffffffc0,%eax
   10e13:	41 89 c5             	mov    %eax,%r13d
   10e16:	48 39 ca             	cmp    %rcx,%rdx
   10e19:	0f 82 21 11 00 00    	jb     11f40 <_ZN4Code10mulPackAddERKN5Xbyak6RegExpERKNS0_3XmmEiS3_RKNS0_5Reg64ERKNS0_4util4PackE+0x1e20>
   10e1f:	83 7d 20 03          	cmpl   $0x3,0x20(%rbp)
   10e23:	0f 85 35 1b 00 00    	jne    1295e <_ZN4Code10mulPackAddERKN5Xbyak6RegExpERKNS0_3XmmEiS3_RKNS0_5Reg64ERKNS0_4util4PackE+0x283e>
   10e29:	48 8b 7d 68          	mov    0x68(%rbp),%rdi
   10e2d:	48 01 c9             	add    %rcx,%rcx
   10e30:	b8 00 10 00 00       	mov    $0x1000,%eax
   10e35:	48 81 f9 00 10 00 00 	cmp    $0x1000,%rcx
   10e3c:	48 0f 42 c8          	cmovb  %rax,%rcx
   10e40:	48 8b 07             	mov    (%rdi),%rax
   10e43:	48 89 4c 24 18       	mov    %rcx,0x18(%rsp)
   10e48:	48 89 ce             	mov    %rcx,%rsi
   10e4b:	ff 10                	callq  *(%rax)
   10e4d:	49 89 c6             	mov    %rax,%r14
   10e50:	48 85 c0             	test   %rax,%rax
   10e53:	0f 84 7e 1b 00 00    	je     129d7 <_ZN4Code10mulPackAddERKN5Xbyak6RegExpERKNS0_3XmmEiS3_RKNS0_5Reg64ERKNS0_4util4PackE+0x28b7>
   10e59:	31 d2                	xor    %edx,%edx
   10e5b:	48 83 bd 80 00 00 00 	cmpq   $0x0,0x80(%rbp)
   10e62:	00 
   10e63:	48 8b 4c 24 18       	mov    0x18(%rsp),%rcx
   10e68:	74 1f                	je     10e89 <_ZN4Code10mulPackAddERKN5Xbyak6RegExpERKNS0_3XmmEiS3_RKNS0_5Reg64ERKNS0_4util4PackE+0xd69>
   10e6a:	66 0f 1f 44 00 00    	nopw   0x0(%rax,%rax,1)
   10e70:	48 8b 45 78          	mov    0x78(%rbp),%rax
   10e74:	0f b6 04 10          	movzbl (%rax,%rdx,1),%eax
   10e78:	41 88 04 16          	mov    %al,(%r14,%rdx,1)
   10e7c:	48 83 c2 01          	add    $0x1,%rdx
   10e80:	48 39 95 80 00 00 00 	cmp    %rdx,0x80(%rbp)
   10e87:	77 e7                	ja     10e70 <_ZN4Code10mulPackAddERKN5Xbyak6RegExpERKNS0_3XmmEiS3_RKNS0_5Reg64ERKNS0_4util4PackE+0xd50>
   10e89:	48 8b 7d 68          	mov    0x68(%rbp),%rdi
   10e8d:	48 8b 75 78          	mov    0x78(%rbp),%rsi
   10e91:	48 89 4c 24 18       	mov    %rcx,0x18(%rsp)
   10e96:	48 8b 07             	mov    (%rdi),%rax
   10e99:	ff 50 08             	callq  *0x8(%rax)
   10e9c:	48 8b 4c 24 18       	mov    0x18(%rsp),%rcx
   10ea1:	4c 89 75 78          	mov    %r14,0x78(%rbp)
   10ea5:	48 8b 95 80 00 00 00 	mov    0x80(%rbp),%rdx
   10eac:	48 89 4d 70          	mov    %rcx,0x70(%rbp)
   10eb0:	48 8d 42 01          	lea    0x1(%rdx),%rax
   10eb4:	48 89 85 80 00 00 00 	mov    %rax,0x80(%rbp)
   10ebb:	45 88 2c 16          	mov    %r13b,(%r14,%rdx,1)
   10ebf:	48 8b 84 24 c0 01 00 	mov    0x1c0(%rsp),%rax
   10ec6:	00 
   10ec7:	48 83 7c 24 08 00    	cmpq   $0x0,0x8(%rsp)
   10ecd:	4c 8b 40 78          	mov    0x78(%rax),%r8
   10ed1:	0f 84 19 0d 00 00    	je     11bf0 <_ZN4Code10mulPackAddERKN5Xbyak6RegExpERKNS0_3XmmEiS3_RKNS0_5Reg64ERKNS0_4util4PackE+0x1ad0>
   10ed7:	48 8b 74 24 08       	mov    0x8(%rsp),%rsi
   10edc:	49 8d 40 ff          	lea    -0x1(%r8),%rax
   10ee0:	48 39 f0             	cmp    %rsi,%rax
   10ee3:	0f 84 d3 03 00 00    	je     112bc <_ZN4Code10mulPackAddERKN5Xbyak6RegExpERKNS0_3XmmEiS3_RKNS0_5Reg64ERKNS0_4util4PackE+0x119c>
   10ee9:	48 83 c6 01          	add    $0x1,%rsi
   10eed:	48 89 74 24 08       	mov    %rsi,0x8(%rsp)
   10ef2:	4c 39 c6             	cmp    %r8,%rsi
   10ef5:	0f 83 f2 19 00 00    	jae    128ed <_ZN4Code10mulPackAddERKN5Xbyak6RegExpERKNS0_3XmmEiS3_RKNS0_5Reg64ERKNS0_4util4PackE+0x27cd>
   10efb:	48 8b 84 24 c0 01 00 	mov    0x1c0(%rsp),%rax
   10f02:	00 
   10f03:	4c 8b 2c f0          	mov    (%rax,%rsi,8),%r13
   10f07:	41 f6 45 00 80       	testb  $0x80,0x0(%r13)
   10f0c:	0f 84 78 fa ff ff    	je     1098a <_ZN4Code10mulPackAddERKN5Xbyak6RegExpERKNS0_3XmmEiS3_RKNS0_5Reg64ERKNS0_4util4PackE+0x86a>
   10f12:	41 0f b7 45 02       	movzwl 0x2(%r13),%eax
   10f17:	89 c2                	mov    %eax,%edx
   10f19:	66 81 e2 ff 3f       	and    $0x3fff,%dx
   10f1e:	a8 60                	test   $0x60,%al
   10f20:	0f 84 64 fa ff ff    	je     1098a <_ZN4Code10mulPackAddERKN5Xbyak6RegExpERKNS0_3XmmEiS3_RKNS0_5Reg64ERKNS0_4util4PackE+0x86a>
   10f26:	41 0f b7 04 24       	movzwl (%r12),%eax
   10f2b:	89 c1                	mov    %eax,%ecx
   10f2d:	66 c1 e9 06          	shr    $0x6,%cx
   10f31:	a8 80                	test   $0x80,%al
   10f33:	74 16                	je     10f4b <_ZN4Code10mulPackAddERKN5Xbyak6RegExpERKNS0_3XmmEiS3_RKNS0_5Reg64ERKNS0_4util4PackE+0xe2b>
   10f35:	41 0f b7 44 24 02    	movzwl 0x2(%r12),%eax
   10f3b:	89 c6                	mov    %eax,%esi
   10f3d:	66 81 e6 ff 3f       	and    $0x3fff,%si
   10f42:	a8 60                	test   $0x60,%al
   10f44:	74 05                	je     10f4b <_ZN4Code10mulPackAddERKN5Xbyak6RegExpERKNS0_3XmmEiS3_RKNS0_5Reg64ERKNS0_4util4PackE+0xe2b>
   10f46:	66 39 f2             	cmp    %si,%dx
   10f49:	74 09                	je     10f54 <_ZN4Code10mulPackAddERKN5Xbyak6RegExpERKNS0_3XmmEiS3_RKNS0_5Reg64ERKNS0_4util4PackE+0xe34>
   10f4b:	83 e1 01             	and    $0x1,%ecx
   10f4e:	0f 84 36 fa ff ff    	je     1098a <_ZN4Code10mulPackAddERKN5Xbyak6RegExpERKNS0_3XmmEiS3_RKNS0_5Reg64ERKNS0_4util4PackE+0x86a>
   10f54:	48 8b 95 80 00 00 00 	mov    0x80(%rbp),%rdx
   10f5b:	4c 8b 75 70          	mov    0x70(%rbp),%r14
   10f5f:	4c 39 f2             	cmp    %r14,%rdx
   10f62:	0f 82 18 0c 00 00    	jb     11b80 <_ZN4Code10mulPackAddERKN5Xbyak6RegExpERKNS0_3XmmEiS3_RKNS0_5Reg64ERKNS0_4util4PackE+0x1a60>
   10f68:	83 7d 20 03          	cmpl   $0x3,0x20(%rbp)
   10f6c:	0f 85 ec 19 00 00    	jne    1295e <_ZN4Code10mulPackAddERKN5Xbyak6RegExpERKNS0_3XmmEiS3_RKNS0_5Reg64ERKNS0_4util4PackE+0x283e>
   10f72:	48 8b 7d 68          	mov    0x68(%rbp),%rdi
   10f76:	4d 01 f6             	add    %r14,%r14
   10f79:	b8 00 10 00 00       	mov    $0x1000,%eax
   10f7e:	49 81 fe 00 10 00 00 	cmp    $0x1000,%r14
   10f85:	4c 0f 42 f0          	cmovb  %rax,%r14
   10f89:	48 8b 07             	mov    (%rdi),%rax
   10f8c:	4c 89 f6             	mov    %r14,%rsi
   10f8f:	ff 10                	callq  *(%rax)
   10f91:	49 89 c7             	mov    %rax,%r15
   10f94:	48 85 c0             	test   %rax,%rax
   10f97:	0f 84 3a 1a 00 00    	je     129d7 <_ZN4Code10mulPackAddERKN5Xbyak6RegExpERKNS0_3XmmEiS3_RKNS0_5Reg64ERKNS0_4util4PackE+0x28b7>
   10f9d:	31 d2                	xor    %edx,%edx
   10f9f:	48 83 bd 80 00 00 00 	cmpq   $0x0,0x80(%rbp)
   10fa6:	00 
   10fa7:	74 20                	je     10fc9 <_ZN4Code10mulPackAddERKN5Xbyak6RegExpERKNS0_3XmmEiS3_RKNS0_5Reg64ERKNS0_4util4PackE+0xea9>
   10fa9:	0f 1f 80 00 00 00 00 	nopl   0x0(%rax)
   10fb0:	48 8b 45 78          	mov    0x78(%rbp),%rax
   10fb4:	0f b6 04 10          	movzbl (%rax,%rdx,1),%eax
   10fb8:	41 88 04 17          	mov    %al,(%r15,%rdx,1)
   10fbc:	48 83 c2 01          	add    $0x1,%rdx
   10fc0:	48 39 95 80 00 00 00 	cmp    %rdx,0x80(%rbp)
   10fc7:	77 e7                	ja     10fb0 <_ZN4Code10mulPackAddERKN5Xbyak6RegExpERKNS0_3XmmEiS3_RKNS0_5Reg64ERKNS0_4util4PackE+0xe90>
   10fc9:	48 8b 7d 68          	mov    0x68(%rbp),%rdi
   10fcd:	48 8b 75 78          	mov    0x78(%rbp),%rsi
   10fd1:	48 8b 07             	mov    (%rdi),%rax
   10fd4:	ff 50 08             	callq  *0x8(%rax)
   10fd7:	4c 89 7d 78          	mov    %r15,0x78(%rbp)
   10fdb:	48 8b 95 80 00 00 00 	mov    0x80(%rbp),%rdx
   10fe2:	4c 89 75 70          	mov    %r14,0x70(%rbp)
   10fe6:	48 8d 42 01          	lea    0x1(%rdx),%rax
   10fea:	48 89 85 80 00 00 00 	mov    %rax,0x80(%rbp)
   10ff1:	41 c6 04 17 66       	movb   $0x66,(%r15,%rdx,1)
   10ff6:	41 f6 04 24 40       	testb  $0x40,(%r12)
   10ffb:	0f 85 5f 09 00 00    	jne    11960 <_ZN4Code10mulPackAddERKN5Xbyak6RegExpERKNS0_3XmmEiS3_RKNS0_5Reg64ERKNS0_4util4PackE+0x1840>
   11001:	4c 89 ea             	mov    %r13,%rdx
   11004:	4c 89 e6             	mov    %r12,%rsi
   11007:	48 89 ef             	mov    %rbp,%rdi
   1100a:	e8 b1 6f ff ff       	callq  7fc0 <_ZN5Xbyak13CodeGenerator3rexERKNS_7OperandES3_>
   1100f:	48 8b 85 80 00 00 00 	mov    0x80(%rbp),%rax
   11016:	4c 8b 75 70          	mov    0x70(%rbp),%r14
   1101a:	4c 39 f0             	cmp    %r14,%rax
   1101d:	0f 82 4d 10 00 00    	jb     12070 <_ZN4Code10mulPackAddERKN5Xbyak6RegExpERKNS0_3XmmEiS3_RKNS0_5Reg64ERKNS0_4util4PackE+0x1f50>
   11023:	83 7d 20 03          	cmpl   $0x3,0x20(%rbp)
   11027:	0f 85 31 19 00 00    	jne    1295e <_ZN4Code10mulPackAddERKN5Xbyak6RegExpERKNS0_3XmmEiS3_RKNS0_5Reg64ERKNS0_4util4PackE+0x283e>
   1102d:	48 8b 7d 68          	mov    0x68(%rbp),%rdi
   11031:	4d 01 f6             	add    %r14,%r14
   11034:	b8 00 10 00 00       	mov    $0x1000,%eax
   11039:	49 81 fe 00 10 00 00 	cmp    $0x1000,%r14
   11040:	4c 0f 42 f0          	cmovb  %rax,%r14
   11044:	48 8b 07             	mov    (%rdi),%rax
   11047:	4c 89 f6             	mov    %r14,%rsi
   1104a:	ff 10                	callq  *(%rax)
   1104c:	49 89 c7             	mov    %rax,%r15
   1104f:	48 85 c0             	test   %rax,%rax
   11052:	0f 84 7f 19 00 00    	je     129d7 <_ZN4Code10mulPackAddERKN5Xbyak6RegExpERKNS0_3XmmEiS3_RKNS0_5Reg64ERKNS0_4util4PackE+0x28b7>
   11058:	31 d2                	xor    %edx,%edx
   1105a:	48 83 bd 80 00 00 00 	cmpq   $0x0,0x80(%rbp)
   11061:	00 
   11062:	74 1d                	je     11081 <_ZN4Code10mulPackAddERKN5Xbyak6RegExpERKNS0_3XmmEiS3_RKNS0_5Reg64ERKNS0_4util4PackE+0xf61>
   11064:	0f 1f 40 00          	nopl   0x0(%rax)
   11068:	48 8b 45 78          	mov    0x78(%rbp),%rax
   1106c:	0f b6 04 10          	movzbl (%rax,%rdx,1),%eax
   11070:	41 88 04 17          	mov    %al,(%r15,%rdx,1)
   11074:	48 83 c2 01          	add    $0x1,%rdx
   11078:	48 39 95 80 00 00 00 	cmp    %rdx,0x80(%rbp)
   1107f:	77 e7                	ja     11068 <_ZN4Code10mulPackAddERKN5Xbyak6RegExpERKNS0_3XmmEiS3_RKNS0_5Reg64ERKNS0_4util4PackE+0xf48>
   11081:	48 8b 7d 68          	mov    0x68(%rbp),%rdi
   11085:	48 8b 75 78          	mov    0x78(%rbp),%rsi
   11089:	48 8b 07             	mov    (%rdi),%rax
   1108c:	ff 50 08             	callq  *0x8(%rax)
   1108f:	4c 89 7d 78          	mov    %r15,0x78(%rbp)
   11093:	48 8b 85 80 00 00 00 	mov    0x80(%rbp),%rax
   1109a:	4c 89 75 70          	mov    %r14,0x70(%rbp)
   1109e:	48 8d 50 01          	lea    0x1(%rax),%rdx
   110a2:	48 89 95 80 00 00 00 	mov    %rdx,0x80(%rbp)
   110a9:	41 c6 04 07 0f       	movb   $0xf,(%r15,%rax,1)
   110ae:	48 8b 85 80 00 00 00 	mov    0x80(%rbp),%rax
   110b5:	4c 8b 75 70          	mov    0x70(%rbp),%r14
   110b9:	4c 39 f0             	cmp    %r14,%rax
   110bc:	0f 82 9e 0f 00 00    	jb     12060 <_ZN4Code10mulPackAddERKN5Xbyak6RegExpERKNS0_3XmmEiS3_RKNS0_5Reg64ERKNS0_4util4PackE+0x1f40>
   110c2:	83 7d 20 03          	cmpl   $0x3,0x20(%rbp)
   110c6:	0f 85 92 18 00 00    	jne    1295e <_ZN4Code10mulPackAddERKN5Xbyak6RegExpERKNS0_3XmmEiS3_RKNS0_5Reg64ERKNS0_4util4PackE+0x283e>
   110cc:	48 8b 7d 68          	mov    0x68(%rbp),%rdi
   110d0:	4d 01 f6             	add    %r14,%r14
   110d3:	b8 00 10 00 00       	mov    $0x1000,%eax
   110d8:	49 81 fe 00 10 00 00 	cmp    $0x1000,%r14
   110df:	4c 0f 42 f0          	cmovb  %rax,%r14
   110e3:	48 8b 07             	mov    (%rdi),%rax
   110e6:	4c 89 f6             	mov    %r14,%rsi
   110e9:	ff 10                	callq  *(%rax)
   110eb:	49 89 c7             	mov    %rax,%r15
   110ee:	48 85 c0             	test   %rax,%rax
   110f1:	0f 84 e0 18 00 00    	je     129d7 <_ZN4Code10mulPackAddERKN5Xbyak6RegExpERKNS0_3XmmEiS3_RKNS0_5Reg64ERKNS0_4util4PackE+0x28b7>
   110f7:	31 d2                	xor    %edx,%edx
   110f9:	48 83 bd 80 00 00 00 	cmpq   $0x0,0x80(%rbp)
   11100:	00 
   11101:	74 1e                	je     11121 <_ZN4Code10mulPackAddERKN5Xbyak6RegExpERKNS0_3XmmEiS3_RKNS0_5Reg64ERKNS0_4util4PackE+0x1001>
   11103:	0f 1f 44 00 00       	nopl   0x0(%rax,%rax,1)
   11108:	48 8b 45 78          	mov    0x78(%rbp),%rax
   1110c:	0f b6 04 10          	movzbl (%rax,%rdx,1),%eax
   11110:	41 88 04 17          	mov    %al,(%r15,%rdx,1)
   11114:	48 83 c2 01          	add    $0x1,%rdx
   11118:	48 39 95 80 00 00 00 	cmp    %rdx,0x80(%rbp)
   1111f:	77 e7                	ja     11108 <_ZN4Code10mulPackAddERKN5Xbyak6RegExpERKNS0_3XmmEiS3_RKNS0_5Reg64ERKNS0_4util4PackE+0xfe8>
   11121:	48 8b 7d 68          	mov    0x68(%rbp),%rdi
   11125:	48 8b 75 78          	mov    0x78(%rbp),%rsi
   11129:	48 8b 07             	mov    (%rdi),%rax
   1112c:	ff 50 08             	callq  *0x8(%rax)
   1112f:	4c 89 7d 78          	mov    %r15,0x78(%rbp)
   11133:	48 8b 85 80 00 00 00 	mov    0x80(%rbp),%rax
   1113a:	4c 89 75 70          	mov    %r14,0x70(%rbp)
   1113e:	48 8d 50 01          	lea    0x1(%rax),%rdx
   11142:	48 89 95 80 00 00 00 	mov    %rdx,0x80(%rbp)
   11149:	41 c6 04 07 38       	movb   $0x38,(%r15,%rax,1)
   1114e:	48 8b 85 80 00 00 00 	mov    0x80(%rbp),%rax
   11155:	4c 8b 75 70          	mov    0x70(%rbp),%r14
   11159:	4c 39 f0             	cmp    %r14,%rax
   1115c:	0f 82 ee 0e 00 00    	jb     12050 <_ZN4Code10mulPackAddERKN5Xbyak6RegExpERKNS0_3XmmEiS3_RKNS0_5Reg64ERKNS0_4util4PackE+0x1f30>
   11162:	83 7d 20 03          	cmpl   $0x3,0x20(%rbp)
   11166:	0f 85 f2 17 00 00    	jne    1295e <_ZN4Code10mulPackAddERKN5Xbyak6RegExpERKNS0_3XmmEiS3_RKNS0_5Reg64ERKNS0_4util4PackE+0x283e>
   1116c:	48 8b 7d 68          	mov    0x68(%rbp),%rdi
   11170:	4d 01 f6             	add    %r14,%r14
   11173:	b8 00 10 00 00       	mov    $0x1000,%eax
   11178:	49 81 fe 00 10 00 00 	cmp    $0x1000,%r14
   1117f:	4c 0f 42 f0          	cmovb  %rax,%r14
   11183:	48 8b 07             	mov    (%rdi),%rax
   11186:	4c 89 f6             	mov    %r14,%rsi
   11189:	ff 10                	callq  *(%rax)
   1118b:	49 89 c7             	mov    %rax,%r15
   1118e:	48 85 c0             	test   %rax,%rax
   11191:	0f 84 40 18 00 00    	je     129d7 <_ZN4Code10mulPackAddERKN5Xbyak6RegExpERKNS0_3XmmEiS3_RKNS0_5Reg64ERKNS0_4util4PackE+0x28b7>
   11197:	31 d2                	xor    %edx,%edx
   11199:	48 83 bd 80 00 00 00 	cmpq   $0x0,0x80(%rbp)
   111a0:	00 
   111a1:	74 1e                	je     111c1 <_ZN4Code10mulPackAddERKN5Xbyak6RegExpERKNS0_3XmmEiS3_RKNS0_5Reg64ERKNS0_4util4PackE+0x10a1>
   111a3:	0f 1f 44 00 00       	nopl   0x0(%rax,%rax,1)
   111a8:	48 8b 45 78          	mov    0x78(%rbp),%rax
   111ac:	0f b6 04 10          	movzbl (%rax,%rdx,1),%eax
   111b0:	41 88 04 17          	mov    %al,(%r15,%rdx,1)
   111b4:	48 83 c2 01          	add    $0x1,%rdx
   111b8:	48 39 95 80 00 00 00 	cmp    %rdx,0x80(%rbp)
   111bf:	77 e7                	ja     111a8 <_ZN4Code10mulPackAddERKN5Xbyak6RegExpERKNS0_3XmmEiS3_RKNS0_5Reg64ERKNS0_4util4PackE+0x1088>
   111c1:	48 8b 7d 68          	mov    0x68(%rbp),%rdi
   111c5:	48 8b 75 78          	mov    0x78(%rbp),%rsi
   111c9:	48 8b 07             	mov    (%rdi),%rax
   111cc:	ff 50 08             	callq  *0x8(%rax)
   111cf:	4c 89 7d 78          	mov    %r15,0x78(%rbp)
   111d3:	48 8b 85 80 00 00 00 	mov    0x80(%rbp),%rax
   111da:	4c 89 75 70          	mov    %r14,0x70(%rbp)
   111de:	48 8d 50 01          	lea    0x1(%rax),%rdx
   111e2:	48 89 95 80 00 00 00 	mov    %rdx,0x80(%rbp)
   111e9:	41 c6 04 07 f6       	movb   $0xf6,(%r15,%rax,1)
   111ee:	41 0f b6 45 00       	movzbl 0x0(%r13),%eax
   111f3:	41 0f b6 14 24       	movzbl (%r12),%edx
   111f8:	4c 8b 7d 70          	mov    0x70(%rbp),%r15
   111fc:	c1 e0 03             	shl    $0x3,%eax
   111ff:	83 e0 38             	and    $0x38,%eax
   11202:	83 e2 07             	and    $0x7,%edx
   11205:	09 d0                	or     %edx,%eax
   11207:	83 c8 c0             	or     $0xffffffc0,%eax
   1120a:	41 89 c5             	mov    %eax,%r13d
   1120d:	48 8b 85 80 00 00 00 	mov    0x80(%rbp),%rax
   11214:	4c 39 f8             	cmp    %r15,%rax
   11217:	0f 82 83 0e 00 00    	jb     120a0 <_ZN4Code10mulPackAddERKN5Xbyak6RegExpERKNS0_3XmmEiS3_RKNS0_5Reg64ERKNS0_4util4PackE+0x1f80>
   1121d:	83 7d 20 03          	cmpl   $0x3,0x20(%rbp)
   11221:	0f 85 37 17 00 00    	jne    1295e <_ZN4Code10mulPackAddERKN5Xbyak6RegExpERKNS0_3XmmEiS3_RKNS0_5Reg64ERKNS0_4util4PackE+0x283e>
   11227:	48 8b 7d 68          	mov    0x68(%rbp),%rdi
   1122b:	4d 01 ff             	add    %r15,%r15
   1122e:	b8 00 10 00 00       	mov    $0x1000,%eax
   11233:	49 81 ff 00 10 00 00 	cmp    $0x1000,%r15
   1123a:	4c 0f 42 f8          	cmovb  %rax,%r15
   1123e:	48 8b 07             	mov    (%rdi),%rax
   11241:	4c 89 fe             	mov    %r15,%rsi
   11244:	ff 10                	callq  *(%rax)
   11246:	49 89 c6             	mov    %rax,%r14
   11249:	48 85 c0             	test   %rax,%rax
   1124c:	0f 84 85 17 00 00    	je     129d7 <_ZN4Code10mulPackAddERKN5Xbyak6RegExpERKNS0_3XmmEiS3_RKNS0_5Reg64ERKNS0_4util4PackE+0x28b7>
   11252:	31 d2                	xor    %edx,%edx
   11254:	48 83 bd 80 00 00 00 	cmpq   $0x0,0x80(%rbp)
   1125b:	00 
   1125c:	74 1b                	je     11279 <_ZN4Code10mulPackAddERKN5Xbyak6RegExpERKNS0_3XmmEiS3_RKNS0_5Reg64ERKNS0_4util4PackE+0x1159>
   1125e:	66 90                	xchg   %ax,%ax
   11260:	48 8b 45 78          	mov    0x78(%rbp),%rax
   11264:	0f b6 04 10          	movzbl (%rax,%rdx,1),%eax
   11268:	41 88 04 16          	mov    %al,(%r14,%rdx,1)
   1126c:	48 83 c2 01          	add    $0x1,%rdx
   11270:	48 39 95 80 00 00 00 	cmp    %rdx,0x80(%rbp)
   11277:	77 e7                	ja     11260 <_ZN4Code10mulPackAddERKN5Xbyak6RegExpERKNS0_3XmmEiS3_RKNS0_5Reg64ERKNS0_4util4PackE+0x1140>
   11279:	48 8b 7d 68          	mov    0x68(%rbp),%rdi
   1127d:	48 8b 75 78          	mov    0x78(%rbp),%rsi
   11281:	48 8b 07             	mov    (%rdi),%rax
   11284:	ff 50 08             	callq  *0x8(%rax)
   11287:	4c 89 75 78          	mov    %r14,0x78(%rbp)
   1128b:	48 8b 85 80 00 00 00 	mov    0x80(%rbp),%rax
   11292:	4c 89 7d 70          	mov    %r15,0x70(%rbp)
   11296:	48 8d 50 01          	lea    0x1(%rax),%rdx
   1129a:	48 89 95 80 00 00 00 	mov    %rdx,0x80(%rbp)
   112a1:	45 88 2c 06          	mov    %r13b,(%r14,%rax,1)
   112a5:	48 8b 84 24 c0 01 00 	mov    0x1c0(%rsp),%rax
   112ac:	00 
   112ad:	48 8b 74 24 08       	mov    0x8(%rsp),%rsi
   112b2:	48 3b 70 78          	cmp    0x78(%rax),%rsi
   112b6:	0f 82 9c f2 ff ff    	jb     10558 <_ZN4Code10mulPackAddERKN5Xbyak6RegExpERKNS0_3XmmEiS3_RKNS0_5Reg64ERKNS0_4util4PackE+0x438>
   112bc:	0f b7 85 f8 04 00 00 	movzwl 0x4f8(%rbp),%eax
   112c3:	89 c2                	mov    %eax,%edx
   112c5:	66 c1 ea 06          	shr    $0x6,%dx
   112c9:	a8 80                	test   $0x80,%al
   112cb:	0f 84 3f 13 00 00    	je     12610 <_ZN4Code10mulPackAddERKN5Xbyak6RegExpERKNS0_3XmmEiS3_RKNS0_5Reg64ERKNS0_4util4PackE+0x24f0>
   112d1:	0f b7 9d fa 04 00 00 	movzwl 0x4fa(%rbp),%ebx
   112d8:	0f b6 85 f8 04 00 00 	movzbl 0x4f8(%rbp),%eax
   112df:	45 31 ed             	xor    %r13d,%r13d
   112e2:	81 e3 ff 3f 00 00    	and    $0x3fff,%ebx
   112e8:	89 c2                	mov    %eax,%edx
   112ea:	83 fb 08             	cmp    $0x8,%ebx
   112ed:	41 0f 95 c5          	setne  %r13b
   112f1:	83 e2 07             	and    $0x7,%edx
   112f4:	80 a4 24 44 01 00 00 	andb   $0xc0,0x144(%rsp)
   112fb:	c0 
   112fc:	81 a4 24 40 01 00 00 	andl   $0x80000000,0x140(%rsp)
   11303:	00 00 00 80 
   11307:	41 c1 e5 03          	shl    $0x3,%r13d
   1130b:	41 09 d5             	or     %edx,%r13d
   1130e:	41 80 cd b0          	or     $0xb0,%r13b
   11312:	83 fb 40             	cmp    $0x40,%ebx
   11315:	0f 85 8d 14 00 00    	jne    127a8 <_ZN4Code10mulPackAddERKN5Xbyak6RegExpERKNS0_3XmmEiS3_RKNS0_5Reg64ERKNS0_4util4PackE+0x2688>
   1131b:	0f b6 94 24 00 01 00 	movzbl 0x100(%rsp),%edx
   11322:	00 
   11323:	83 e0 1f             	and    $0x1f,%eax
   11326:	48 89 ef             	mov    %rbp,%rdi
   11329:	bb 04 00 00 00       	mov    $0x4,%ebx
   1132e:	48 8d b4 24 00 01 00 	lea    0x100(%rsp),%rsi
   11335:	00 
   11336:	80 a4 24 04 01 00 00 	andb   $0xc0,0x104(%rsp)
   1133d:	c0 
   1133e:	83 e2 c0             	and    $0xffffffc0,%edx
   11341:	09 d0                	or     %edx,%eax
   11343:	48 8d 94 24 40 01 00 	lea    0x140(%rsp),%rdx
   1134a:	00 
   1134b:	88 84 24 00 01 00 00 	mov    %al,0x100(%rsp)
   11352:	8b 84 24 00 01 00 00 	mov    0x100(%rsp),%eax
   11359:	25 3f 00 00 80       	and    $0x8000003f,%eax
   1135e:	0d 80 00 20 00       	or     $0x200080,%eax
   11363:	89 84 24 00 01 00 00 	mov    %eax,0x100(%rsp)
   1136a:	e8 51 6c ff ff       	callq  7fc0 <_ZN5Xbyak13CodeGenerator3rexERKNS_7OperandES3_>
   1136f:	44 89 ee             	mov    %r13d,%esi
   11372:	48 89 ef             	mov    %rbp,%rdi
   11375:	e8 76 6b ff ff       	callq  7ef0 <_ZN5Xbyak9CodeArray2dbEi>
   1137a:	66 0f 1f 44 00 00    	nopw   0x0(%rax,%rax,1)
   11380:	45 31 ed             	xor    %r13d,%r13d
   11383:	0f 1f 44 00 00       	nopl   0x0(%rax,%rax,1)
   11388:	48 8b 85 80 00 00 00 	mov    0x80(%rbp),%rax
   1138f:	4c 8b 7d 70          	mov    0x70(%rbp),%r15
   11393:	4c 39 f8             	cmp    %r15,%rax
   11396:	0f 82 14 0d 00 00    	jb     120b0 <_ZN4Code10mulPackAddERKN5Xbyak6RegExpERKNS0_3XmmEiS3_RKNS0_5Reg64ERKNS0_4util4PackE+0x1f90>
   1139c:	83 7d 20 03          	cmpl   $0x3,0x20(%rbp)
   113a0:	0f 85 b8 15 00 00    	jne    1295e <_ZN4Code10mulPackAddERKN5Xbyak6RegExpERKNS0_3XmmEiS3_RKNS0_5Reg64ERKNS0_4util4PackE+0x283e>
   113a6:	48 8b 7d 68          	mov    0x68(%rbp),%rdi
   113aa:	4d 01 ff             	add    %r15,%r15
   113ad:	b8 00 10 00 00       	mov    $0x1000,%eax
   113b2:	49 81 ff 00 10 00 00 	cmp    $0x1000,%r15
   113b9:	4c 0f 42 f8          	cmovb  %rax,%r15
   113bd:	48 8b 07             	mov    (%rdi),%rax
   113c0:	4c 89 fe             	mov    %r15,%rsi
   113c3:	ff 10                	callq  *(%rax)
   113c5:	49 89 c6             	mov    %rax,%r14
   113c8:	48 85 c0             	test   %rax,%rax
   113cb:	0f 84 06 16 00 00    	je     129d7 <_ZN4Code10mulPackAddERKN5Xbyak6RegExpERKNS0_3XmmEiS3_RKNS0_5Reg64ERKNS0_4util4PackE+0x28b7>
   113d1:	31 d2                	xor    %edx,%edx
   113d3:	48 83 bd 80 00 00 00 	cmpq   $0x0,0x80(%rbp)
   113da:	00 
   113db:	74 1c                	je     113f9 <_ZN4Code10mulPackAddERKN5Xbyak6RegExpERKNS0_3XmmEiS3_RKNS0_5Reg64ERKNS0_4util4PackE+0x12d9>
   113dd:	0f 1f 00             	nopl   (%rax)
   113e0:	48 8b 45 78          	mov    0x78(%rbp),%rax
   113e4:	0f b6 04 10          	movzbl (%rax,%rdx,1),%eax
   113e8:	41 88 04 16          	mov    %al,(%r14,%rdx,1)
   113ec:	48 83 c2 01          	add    $0x1,%rdx
   113f0:	48 39 95 80 00 00 00 	cmp    %rdx,0x80(%rbp)
   113f7:	77 e7                	ja     113e0 <_ZN4Code10mulPackAddERKN5Xbyak6RegExpERKNS0_3XmmEiS3_RKNS0_5Reg64ERKNS0_4util4PackE+0x12c0>
   113f9:	48 8b 7d 68          	mov    0x68(%rbp),%rdi
   113fd:	48 8b 75 78          	mov    0x78(%rbp),%rsi
   11401:	48 8b 07             	mov    (%rdi),%rax
   11404:	ff 50 08             	callq  *0x8(%rax)
   11407:	4c 89 75 78          	mov    %r14,0x78(%rbp)
   1140b:	48 8b 85 80 00 00 00 	mov    0x80(%rbp),%rax
   11412:	4c 89 7d 70          	mov    %r15,0x70(%rbp)
   11416:	48 8d 50 01          	lea    0x1(%rax),%rdx
   1141a:	49 83 c5 01          	add    $0x1,%r13
   1141e:	48 89 95 80 00 00 00 	mov    %rdx,0x80(%rbp)
   11425:	41 c6 04 06 00       	movb   $0x0,(%r14,%rax,1)
   1142a:	4c 39 eb             	cmp    %r13,%rbx
   1142d:	0f 87 55 ff ff ff    	ja     11388 <_ZN4Code10mulPackAddERKN5Xbyak6RegExpERKNS0_3XmmEiS3_RKNS0_5Reg64ERKNS0_4util4PackE+0x1268>
   11433:	41 f6 04 24 80       	testb  $0x80,(%r12)
   11438:	0f 84 4c f5 ff ff    	je     1098a <_ZN4Code10mulPackAddERKN5Xbyak6RegExpERKNS0_3XmmEiS3_RKNS0_5Reg64ERKNS0_4util4PackE+0x86a>
   1143e:	41 0f b7 44 24 02    	movzwl 0x2(%r12),%eax
   11444:	89 c2                	mov    %eax,%edx
   11446:	66 81 e2 ff 3f       	and    $0x3fff,%dx
   1144b:	a8 60                	test   $0x60,%al
   1144d:	0f 84 37 f5 ff ff    	je     1098a <_ZN4Code10mulPackAddERKN5Xbyak6RegExpERKNS0_3XmmEiS3_RKNS0_5Reg64ERKNS0_4util4PackE+0x86a>
   11453:	0f b7 85 f8 04 00 00 	movzwl 0x4f8(%rbp),%eax
   1145a:	89 c1                	mov    %eax,%ecx
   1145c:	66 c1 e9 06          	shr    $0x6,%cx
   11460:	a8 80                	test   $0x80,%al
   11462:	0f 85 50 14 00 00    	jne    128b8 <_ZN4Code10mulPackAddERKN5Xbyak6RegExpERKNS0_3XmmEiS3_RKNS0_5Reg64ERKNS0_4util4PackE+0x2798>
   11468:	83 e1 01             	and    $0x1,%ecx
   1146b:	0f 84 19 f5 ff ff    	je     1098a <_ZN4Code10mulPackAddERKN5Xbyak6RegExpERKNS0_3XmmEiS3_RKNS0_5Reg64ERKNS0_4util4PackE+0x86a>
   11471:	be f3 00 00 00       	mov    $0xf3,%esi
   11476:	48 89 ef             	mov    %rbp,%rdi
   11479:	e8 72 6a ff ff       	callq  7ef0 <_ZN5Xbyak9CodeArray2dbEi>
   1147e:	f6 85 f8 04 00 00 40 	testb  $0x40,0x4f8(%rbp)
   11485:	0f 85 1d 11 00 00    	jne    125a8 <_ZN4Code10mulPackAddERKN5Xbyak6RegExpERKNS0_3XmmEiS3_RKNS0_5Reg64ERKNS0_4util4PackE+0x2488>
   1148b:	48 8b 74 24 10       	mov    0x10(%rsp),%rsi
   11490:	4c 89 e2             	mov    %r12,%rdx
   11493:	48 89 ef             	mov    %rbp,%rdi
   11496:	e8 25 6b ff ff       	callq  7fc0 <_ZN5Xbyak13CodeGenerator3rexERKNS_7OperandES3_>
   1149b:	be 0f 00 00 00       	mov    $0xf,%esi
   114a0:	48 89 ef             	mov    %rbp,%rdi
   114a3:	e8 48 6a ff ff       	callq  7ef0 <_ZN5Xbyak9CodeArray2dbEi>
   114a8:	be 38 00 00 00       	mov    $0x38,%esi
   114ad:	48 89 ef             	mov    %rbp,%rdi
   114b0:	e8 3b 6a ff ff       	callq  7ef0 <_ZN5Xbyak9CodeArray2dbEi>
   114b5:	be f6 00 00 00       	mov    $0xf6,%esi
   114ba:	48 89 ef             	mov    %rbp,%rdi
   114bd:	e8 2e 6a ff ff       	callq  7ef0 <_ZN5Xbyak9CodeArray2dbEi>
   114c2:	41 0f b6 04 24       	movzbl (%r12),%eax
   114c7:	48 89 ef             	mov    %rbp,%rdi
   114ca:	8d 34 c5 00 00 00 00 	lea    0x0(,%rax,8),%esi
   114d1:	0f b6 85 f8 04 00 00 	movzbl 0x4f8(%rbp),%eax
   114d8:	83 e6 38             	and    $0x38,%esi
   114db:	83 e0 07             	and    $0x7,%eax
   114de:	09 c6                	or     %eax,%esi
   114e0:	83 ce c0             	or     $0xffffffc0,%esi
   114e3:	40 0f b6 f6          	movzbl %sil,%esi
   114e7:	e8 04 6a ff ff       	callq  7ef0 <_ZN5Xbyak9CodeArray2dbEi>
   114ec:	41 0f b7 04 24       	movzwl (%r12),%eax
   114f1:	89 c2                	mov    %eax,%edx
   114f3:	66 c1 ea 06          	shr    $0x6,%dx
   114f7:	a8 80                	test   $0x80,%al
   114f9:	0f 84 31 10 00 00    	je     12530 <_ZN4Code10mulPackAddERKN5Xbyak6RegExpERKNS0_3XmmEiS3_RKNS0_5Reg64ERKNS0_4util4PackE+0x2410>
   114ff:	0f b7 85 f8 04 00 00 	movzwl 0x4f8(%rbp),%eax
   11506:	89 c1                	mov    %eax,%ecx
   11508:	66 c1 e9 06          	shr    $0x6,%cx
   1150c:	a8 40                	test   $0x40,%al
   1150e:	0f 84 2c 13 00 00    	je     12840 <_ZN4Code10mulPackAddERKN5Xbyak6RegExpERKNS0_3XmmEiS3_RKNS0_5Reg64ERKNS0_4util4PackE+0x2720>
   11514:	83 bd 28 05 00 00 01 	cmpl   $0x1,0x528(%rbp)
   1151b:	0f 84 bb 14 00 00    	je     129dc <_ZN4Code10mulPackAddERKN5Xbyak6RegExpERKNS0_3XmmEiS3_RKNS0_5Reg64ERKNS0_4util4PackE+0x28bc>
   11521:	48 8b 5c 24 10       	mov    0x10(%rsp),%rbx
   11526:	4c 89 e2             	mov    %r12,%rdx
   11529:	48 89 ef             	mov    %rbp,%rdi
   1152c:	48 89 de             	mov    %rbx,%rsi
   1152f:	e8 8c 6a ff ff       	callq  7fc0 <_ZN5Xbyak13CodeGenerator3rexERKNS_7OperandES3_>
   11534:	41 0f b7 44 24 02    	movzwl 0x2(%r12),%eax
   1153a:	48 89 ef             	mov    %rbp,%rdi
   1153d:	66 25 ff 3f          	and    $0x3fff,%ax
   11541:	89 c6                	mov    %eax,%esi
   11543:	66 c1 ee 03          	shr    $0x3,%si
   11547:	83 f6 01             	xor    $0x1,%esi
   1154a:	83 e6 01             	and    $0x1,%esi
   1154d:	83 ce 12             	or     $0x12,%esi
   11550:	e8 9b 69 ff ff       	callq  7ef0 <_ZN5Xbyak9CodeArray2dbEi>
   11555:	41 0f b6 14 24       	movzbl (%r12),%edx
   1155a:	45 31 c9             	xor    %r9d,%r9d
   1155d:	45 31 c0             	xor    %r8d,%r8d
   11560:	31 c9                	xor    %ecx,%ecx
   11562:	48 89 de             	mov    %rbx,%rsi
   11565:	48 89 ef             	mov    %rbp,%rdi
   11568:	83 e2 1f             	and    $0x1f,%edx
   1156b:	e8 c0 a4 ff ff       	callq  ba30 <_ZN5Xbyak13CodeGenerator6opAddrERKNS_7AddressEiiib>
   11570:	48 81 c4 88 01 00 00 	add    $0x188,%rsp
   11577:	5b                   	pop    %rbx
   11578:	5d                   	pop    %rbp
   11579:	41 5c                	pop    %r12
   1157b:	41 5d                	pop    %r13
   1157d:	41 5e                	pop    %r14
   1157f:	41 5f                	pop    %r15
   11581:	c3                   	retq   
   11582:	66 0f 1f 44 00 00    	nopw   0x0(%rax,%rax,1)
   11588:	8b 95 28 05 00 00    	mov    0x528(%rbp),%edx
   1158e:	83 fa 01             	cmp    $0x1,%edx
   11591:	0f 84 45 14 00 00    	je     129dc <_ZN4Code10mulPackAddERKN5Xbyak6RegExpERKNS0_3XmmEiS3_RKNS0_5Reg64ERKNS0_4util4PackE+0x28bc>
   11597:	41 0f b7 45 00       	movzwl 0x0(%r13),%eax
   1159c:	89 c1                	mov    %eax,%ecx
   1159e:	66 c1 e9 06          	shr    $0x6,%cx
   115a2:	a8 40                	test   $0x40,%al
   115a4:	0f 85 3c 14 00 00    	jne    129e6 <_ZN4Code10mulPackAddERKN5Xbyak6RegExpERKNS0_3XmmEiS3_RKNS0_5Reg64ERKNS0_4util4PackE+0x28c6>
   115aa:	0f b7 85 02 05 00 00 	movzwl 0x502(%rbp),%eax
   115b1:	66 25 ff 3f          	and    $0x3fff,%ax
   115b5:	66 83 f8 20          	cmp    $0x20,%ax
   115b9:	0f 84 d1 0c 00 00    	je     12290 <_ZN4Code10mulPackAddERKN5Xbyak6RegExpERKNS0_3XmmEiS3_RKNS0_5Reg64ERKNS0_4util4PackE+0x2170>
   115bf:	0f b7 85 0a 05 00 00 	movzwl 0x50a(%rbp),%eax
   115c6:	66 25 ff 3f          	and    $0x3fff,%ax
   115ca:	66 83 f8 20          	cmp    $0x20,%ax
   115ce:	0f 84 bc 0c 00 00    	je     12290 <_ZN4Code10mulPackAddERKN5Xbyak6RegExpERKNS0_3XmmEiS3_RKNS0_5Reg64ERKNS0_4util4PackE+0x2170>
   115d4:	45 31 f6             	xor    %r14d,%r14d
   115d7:	85 d2                	test   %edx,%edx
   115d9:	75 4a                	jne    11625 <_ZN4Code10mulPackAddERKN5Xbyak6RegExpERKNS0_3XmmEiS3_RKNS0_5Reg64ERKNS0_4util4PackE+0x1505>
   115db:	0f b6 85 00 05 00 00 	movzbl 0x500(%rbp),%eax
   115e2:	0f b6 95 08 05 00 00 	movzbl 0x508(%rbp),%edx
   115e9:	83 e0 3f             	and    $0x3f,%eax
   115ec:	83 e2 3f             	and    $0x3f,%edx
   115ef:	f6 85 0a 05 00 00 60 	testb  $0x60,0x50a(%rbp)
   115f6:	74 15                	je     1160d <_ZN4Code10mulPackAddERKN5Xbyak6RegExpERKNS0_3XmmEiS3_RKNS0_5Reg64ERKNS0_4util4PackE+0x14ed>
   115f8:	66 f7 85 02 05 00 00 	testw  $0x3fff,0x502(%rbp)
   115ff:	ff 3f 
   11601:	75 0a                	jne    1160d <_ZN4Code10mulPackAddERKN5Xbyak6RegExpERKNS0_3XmmEiS3_RKNS0_5Reg64ERKNS0_4util4PackE+0x14ed>
   11603:	83 bd 10 05 00 00 02 	cmpl   $0x2,0x510(%rbp)
   1160a:	0f 44 c2             	cmove  %edx,%eax
   1160d:	83 e0 08             	and    $0x8,%eax
   11610:	83 e2 08             	and    $0x8,%edx
   11613:	0f 85 d7 11 00 00    	jne    127f0 <_ZN4Code10mulPackAddERKN5Xbyak6RegExpERKNS0_3XmmEiS3_RKNS0_5Reg64ERKNS0_4util4PackE+0x26d0>
   11619:	3c 01                	cmp    $0x1,%al
   1161b:	45 19 f6             	sbb    %r14d,%r14d
   1161e:	41 f7 d6             	not    %r14d
   11621:	41 83 e6 41          	and    $0x41,%r14d
   11625:	41 0f b6 45 00       	movzbl 0x0(%r13),%eax
   1162a:	41 0f b7 75 02       	movzwl 0x2(%r13),%esi
   1162f:	89 c7                	mov    %eax,%edi
   11631:	89 f2                	mov    %esi,%edx
   11633:	83 e0 08             	and    $0x8,%eax
   11636:	83 e7 3f             	and    $0x3f,%edi
   11639:	66 81 e2 ff 3f       	and    $0x3fff,%dx
   1163e:	83 e1 02             	and    $0x2,%ecx
   11641:	0f 84 99 0a 00 00    	je     120e0 <_ZN4Code10mulPackAddERKN5Xbyak6RegExpERKNS0_3XmmEiS3_RKNS0_5Reg64ERKNS0_4util4PackE+0x1fc0>
   11647:	83 e6 40             	and    $0x40,%esi
   1164a:	0f 84 90 0a 00 00    	je     120e0 <_ZN4Code10mulPackAddERKN5Xbyak6RegExpERKNS0_3XmmEiS3_RKNS0_5Reg64ERKNS0_4util4PackE+0x1fc0>
   11650:	3c 01                	cmp    $0x1,%al
   11652:	19 c0                	sbb    %eax,%eax
   11654:	83 e0 fc             	and    $0xfffffffc,%eax
   11657:	83 c0 4c             	add    $0x4c,%eax
   1165a:	41 09 c6             	or     %eax,%r14d
   1165d:	0f b7 85 fa 04 00 00 	movzwl 0x4fa(%rbp),%eax
   11664:	89 c1                	mov    %eax,%ecx
   11666:	66 81 e1 ff 3f       	and    $0x3fff,%cx
   1166b:	a8 10                	test   $0x10,%al
   1166d:	0f 84 1d 05 00 00    	je     11b90 <_ZN4Code10mulPackAddERKN5Xbyak6RegExpERKNS0_3XmmEiS3_RKNS0_5Reg64ERKNS0_4util4PackE+0x1a70>
   11673:	f6 c2 60             	test   $0x60,%dl
   11676:	0f 85 14 05 00 00    	jne    11b90 <_ZN4Code10mulPackAddERKN5Xbyak6RegExpERKNS0_3XmmEiS3_RKNS0_5Reg64ERKNS0_4util4PackE+0x1a70>
   1167c:	48 8b 95 80 00 00 00 	mov    0x80(%rbp),%rdx
   11683:	4c 8b 45 70          	mov    0x70(%rbp),%r8
   11687:	4c 39 c2             	cmp    %r8,%rdx
   1168a:	0f 82 26 05 00 00    	jb     11bb6 <_ZN4Code10mulPackAddERKN5Xbyak6RegExpERKNS0_3XmmEiS3_RKNS0_5Reg64ERKNS0_4util4PackE+0x1a96>
   11690:	83 7d 20 03          	cmpl   $0x3,0x20(%rbp)
   11694:	0f 85 c4 12 00 00    	jne    1295e <_ZN4Code10mulPackAddERKN5Xbyak6RegExpERKNS0_3XmmEiS3_RKNS0_5Reg64ERKNS0_4util4PackE+0x283e>
   1169a:	4d 01 c0             	add    %r8,%r8
   1169d:	48 8b 7d 68          	mov    0x68(%rbp),%rdi
   116a1:	b8 00 10 00 00       	mov    $0x1000,%eax
   116a6:	49 81 f8 00 10 00 00 	cmp    $0x1000,%r8
   116ad:	4c 0f 42 c0          	cmovb  %rax,%r8
   116b1:	48 8b 07             	mov    (%rdi),%rax
   116b4:	4c 89 44 24 18       	mov    %r8,0x18(%rsp)
   116b9:	4c 89 c6             	mov    %r8,%rsi
   116bc:	ff 10                	callq  *(%rax)
   116be:	48 85 c0             	test   %rax,%rax
   116c1:	0f 84 10 13 00 00    	je     129d7 <_ZN4Code10mulPackAddERKN5Xbyak6RegExpERKNS0_3XmmEiS3_RKNS0_5Reg64ERKNS0_4util4PackE+0x28b7>
   116c7:	31 d2                	xor    %edx,%edx
   116c9:	48 83 bd 80 00 00 00 	cmpq   $0x0,0x80(%rbp)
   116d0:	00 
   116d1:	4c 8b 44 24 18       	mov    0x18(%rsp),%r8
   116d6:	74 20                	je     116f8 <_ZN4Code10mulPackAddERKN5Xbyak6RegExpERKNS0_3XmmEiS3_RKNS0_5Reg64ERKNS0_4util4PackE+0x15d8>
   116d8:	0f 1f 84 00 00 00 00 	nopl   0x0(%rax,%rax,1)
   116df:	00 
   116e0:	48 8b 4d 78          	mov    0x78(%rbp),%rcx
   116e4:	0f b6 0c 11          	movzbl (%rcx,%rdx,1),%ecx
   116e8:	88 0c 10             	mov    %cl,(%rax,%rdx,1)
   116eb:	48 83 c2 01          	add    $0x1,%rdx
   116ef:	48 39 95 80 00 00 00 	cmp    %rdx,0x80(%rbp)
   116f6:	77 e8                	ja     116e0 <_ZN4Code10mulPackAddERKN5Xbyak6RegExpERKNS0_3XmmEiS3_RKNS0_5Reg64ERKNS0_4util4PackE+0x15c0>
   116f8:	48 8b 7d 68          	mov    0x68(%rbp),%rdi
   116fc:	48 8b 75 78          	mov    0x78(%rbp),%rsi
   11700:	48 89 44 24 20       	mov    %rax,0x20(%rsp)
   11705:	4c 89 44 24 18       	mov    %r8,0x18(%rsp)
   1170a:	48 8b 17             	mov    (%rdi),%rdx
   1170d:	ff 52 08             	callq  *0x8(%rdx)
   11710:	48 8b 44 24 20       	mov    0x20(%rsp),%rax
   11715:	4c 8b 44 24 18       	mov    0x18(%rsp),%r8
   1171a:	48 8b 95 80 00 00 00 	mov    0x80(%rbp),%rdx
   11721:	48 89 45 78          	mov    %rax,0x78(%rbp)
   11725:	4c 89 45 70          	mov    %r8,0x70(%rbp)
   11729:	48 8d 4a 01          	lea    0x1(%rdx),%rcx
   1172d:	48 89 8d 80 00 00 00 	mov    %rcx,0x80(%rbp)
   11734:	c6 04 10 66          	movb   $0x66,(%rax,%rdx,1)
   11738:	48 8b 95 80 00 00 00 	mov    0x80(%rbp),%rdx
   1173f:	48 8b 45 70          	mov    0x70(%rbp),%rax
   11743:	45 84 f6             	test   %r14b,%r14b
   11746:	0f 85 b4 09 00 00    	jne    12100 <_ZN4Code10mulPackAddERKN5Xbyak6RegExpERKNS0_3XmmEiS3_RKNS0_5Reg64ERKNS0_4util4PackE+0x1fe0>
   1174c:	48 39 c2             	cmp    %rax,%rdx
   1174f:	0f 82 db 07 00 00    	jb     11f30 <_ZN4Code10mulPackAddERKN5Xbyak6RegExpERKNS0_3XmmEiS3_RKNS0_5Reg64ERKNS0_4util4PackE+0x1e10>
   11755:	83 7d 20 03          	cmpl   $0x3,0x20(%rbp)
   11759:	0f 85 ff 11 00 00    	jne    1295e <_ZN4Code10mulPackAddERKN5Xbyak6RegExpERKNS0_3XmmEiS3_RKNS0_5Reg64ERKNS0_4util4PackE+0x283e>
   1175f:	4c 8d 34 00          	lea    (%rax,%rax,1),%r14
   11763:	48 8b 7d 68          	mov    0x68(%rbp),%rdi
   11767:	b8 00 10 00 00       	mov    $0x1000,%eax
   1176c:	49 81 fe 00 10 00 00 	cmp    $0x1000,%r14
   11773:	4c 0f 42 f0          	cmovb  %rax,%r14
   11777:	48 8b 07             	mov    (%rdi),%rax
   1177a:	4c 89 f6             	mov    %r14,%rsi
   1177d:	ff 10                	callq  *(%rax)
   1177f:	48 85 c0             	test   %rax,%rax
   11782:	0f 84 4f 12 00 00    	je     129d7 <_ZN4Code10mulPackAddERKN5Xbyak6RegExpERKNS0_3XmmEiS3_RKNS0_5Reg64ERKNS0_4util4PackE+0x28b7>
   11788:	31 d2                	xor    %edx,%edx
   1178a:	48 83 bd 80 00 00 00 	cmpq   $0x0,0x80(%rbp)
   11791:	00 
   11792:	74 1c                	je     117b0 <_ZN4Code10mulPackAddERKN5Xbyak6RegExpERKNS0_3XmmEiS3_RKNS0_5Reg64ERKNS0_4util4PackE+0x1690>
   11794:	0f 1f 40 00          	nopl   0x0(%rax)
   11798:	48 8b 4d 78          	mov    0x78(%rbp),%rcx
   1179c:	0f b6 0c 11          	movzbl (%rcx,%rdx,1),%ecx
   117a0:	88 0c 10             	mov    %cl,(%rax,%rdx,1)
   117a3:	48 83 c2 01          	add    $0x1,%rdx
   117a7:	48 39 95 80 00 00 00 	cmp    %rdx,0x80(%rbp)
   117ae:	77 e8                	ja     11798 <_ZN4Code10mulPackAddERKN5Xbyak6RegExpERKNS0_3XmmEiS3_RKNS0_5Reg64ERKNS0_4util4PackE+0x1678>
   117b0:	48 8b 7d 68          	mov    0x68(%rbp),%rdi
   117b4:	48 8b 75 78          	mov    0x78(%rbp),%rsi
   117b8:	48 89 44 24 18       	mov    %rax,0x18(%rsp)
   117bd:	48 8b 17             	mov    (%rdi),%rdx
   117c0:	ff 52 08             	callq  *0x8(%rdx)
   117c3:	48 8b 44 24 18       	mov    0x18(%rsp),%rax
   117c8:	4c 89 75 70          	mov    %r14,0x70(%rbp)
   117cc:	48 8b 95 80 00 00 00 	mov    0x80(%rbp),%rdx
   117d3:	48 89 45 78          	mov    %rax,0x78(%rbp)
   117d7:	48 8d 4a 01          	lea    0x1(%rdx),%rcx
   117db:	48 89 8d 80 00 00 00 	mov    %rcx,0x80(%rbp)
   117e2:	c6 04 10 0f          	movb   $0xf,(%rax,%rdx,1)
   117e6:	48 8b 95 80 00 00 00 	mov    0x80(%rbp),%rdx
   117ed:	4c 8b 75 70          	mov    0x70(%rbp),%r14
   117f1:	4c 39 f2             	cmp    %r14,%rdx
   117f4:	0f 82 26 07 00 00    	jb     11f20 <_ZN4Code10mulPackAddERKN5Xbyak6RegExpERKNS0_3XmmEiS3_RKNS0_5Reg64ERKNS0_4util4PackE+0x1e00>
   117fa:	83 7d 20 03          	cmpl   $0x3,0x20(%rbp)
   117fe:	0f 85 5a 11 00 00    	jne    1295e <_ZN4Code10mulPackAddERKN5Xbyak6RegExpERKNS0_3XmmEiS3_RKNS0_5Reg64ERKNS0_4util4PackE+0x283e>
   11804:	4d 01 f6             	add    %r14,%r14
   11807:	48 8b 7d 68          	mov    0x68(%rbp),%rdi
   1180b:	b8 00 10 00 00       	mov    $0x1000,%eax
   11810:	49 81 fe 00 10 00 00 	cmp    $0x1000,%r14
   11817:	4c 0f 42 f0          	cmovb  %rax,%r14
   1181b:	48 8b 07             	mov    (%rdi),%rax
   1181e:	4c 89 f6             	mov    %r14,%rsi
   11821:	ff 10                	callq  *(%rax)
   11823:	48 85 c0             	test   %rax,%rax
   11826:	0f 84 ab 11 00 00    	je     129d7 <_ZN4Code10mulPackAddERKN5Xbyak6RegExpERKNS0_3XmmEiS3_RKNS0_5Reg64ERKNS0_4util4PackE+0x28b7>
   1182c:	31 d2                	xor    %edx,%edx
   1182e:	48 83 bd 80 00 00 00 	cmpq   $0x0,0x80(%rbp)
   11835:	00 
   11836:	74 20                	je     11858 <_ZN4Code10mulPackAddERKN5Xbyak6RegExpERKNS0_3XmmEiS3_RKNS0_5Reg64ERKNS0_4util4PackE+0x1738>
   11838:	0f 1f 84 00 00 00 00 	nopl   0x0(%rax,%rax,1)
   1183f:	00 
   11840:	48 8b 4d 78          	mov    0x78(%rbp),%rcx
   11844:	0f b6 0c 11          	movzbl (%rcx,%rdx,1),%ecx
   11848:	88 0c 10             	mov    %cl,(%rax,%rdx,1)
   1184b:	48 83 c2 01          	add    $0x1,%rdx
   1184f:	48 39 95 80 00 00 00 	cmp    %rdx,0x80(%rbp)
   11856:	77 e8                	ja     11840 <_ZN4Code10mulPackAddERKN5Xbyak6RegExpERKNS0_3XmmEiS3_RKNS0_5Reg64ERKNS0_4util4PackE+0x1720>
   11858:	48 8b 7d 68          	mov    0x68(%rbp),%rdi
   1185c:	48 8b 75 78          	mov    0x78(%rbp),%rsi
   11860:	48 89 44 24 18       	mov    %rax,0x18(%rsp)
   11865:	48 8b 17             	mov    (%rdi),%rdx
   11868:	ff 52 08             	callq  *0x8(%rdx)
   1186b:	48 8b 44 24 18       	mov    0x18(%rsp),%rax
   11870:	4c 89 75 70          	mov    %r14,0x70(%rbp)
   11874:	48 8b 95 80 00 00 00 	mov    0x80(%rbp),%rdx
   1187b:	48 89 45 78          	mov    %rax,0x78(%rbp)
   1187f:	48 8d 4a 01          	lea    0x1(%rdx),%rcx
   11883:	48 89 8d 80 00 00 00 	mov    %rcx,0x80(%rbp)
   1188a:	c6 04 10 38          	movb   $0x38,(%rax,%rdx,1)
   1188e:	48 8b 95 80 00 00 00 	mov    0x80(%rbp),%rdx
   11895:	4c 8b 75 70          	mov    0x70(%rbp),%r14
   11899:	4c 39 f2             	cmp    %r14,%rdx
   1189c:	0f 82 6e 06 00 00    	jb     11f10 <_ZN4Code10mulPackAddERKN5Xbyak6RegExpERKNS0_3XmmEiS3_RKNS0_5Reg64ERKNS0_4util4PackE+0x1df0>
   118a2:	83 7d 20 03          	cmpl   $0x3,0x20(%rbp)
   118a6:	0f 85 b2 10 00 00    	jne    1295e <_ZN4Code10mulPackAddERKN5Xbyak6RegExpERKNS0_3XmmEiS3_RKNS0_5Reg64ERKNS0_4util4PackE+0x283e>
   118ac:	4d 01 f6             	add    %r14,%r14
   118af:	48 8b 7d 68          	mov    0x68(%rbp),%rdi
   118b3:	b8 00 10 00 00       	mov    $0x1000,%eax
   118b8:	49 81 fe 00 10 00 00 	cmp    $0x1000,%r14
   118bf:	4c 0f 42 f0          	cmovb  %rax,%r14
   118c3:	48 8b 07             	mov    (%rdi),%rax
   118c6:	4c 89 f6             	mov    %r14,%rsi
   118c9:	ff 10                	callq  *(%rax)
   118cb:	48 85 c0             	test   %rax,%rax
   118ce:	0f 84 03 11 00 00    	je     129d7 <_ZN4Code10mulPackAddERKN5Xbyak6RegExpERKNS0_3XmmEiS3_RKNS0_5Reg64ERKNS0_4util4PackE+0x28b7>
   118d4:	31 d2                	xor    %edx,%edx
   118d6:	48 83 bd 80 00 00 00 	cmpq   $0x0,0x80(%rbp)
   118dd:	00 
   118de:	74 18                	je     118f8 <_ZN4Code10mulPackAddERKN5Xbyak6RegExpERKNS0_3XmmEiS3_RKNS0_5Reg64ERKNS0_4util4PackE+0x17d8>
   118e0:	48 8b 4d 78          	mov    0x78(%rbp),%rcx
   118e4:	0f b6 0c 11          	movzbl (%rcx,%rdx,1),%ecx
   118e8:	88 0c 10             	mov    %cl,(%rax,%rdx,1)
   118eb:	48 83 c2 01          	add    $0x1,%rdx
   118ef:	48 39 95 80 00 00 00 	cmp    %rdx,0x80(%rbp)
   118f6:	77 e8                	ja     118e0 <_ZN4Code10mulPackAddERKN5Xbyak6RegExpERKNS0_3XmmEiS3_RKNS0_5Reg64ERKNS0_4util4PackE+0x17c0>
   118f8:	48 8b 7d 68          	mov    0x68(%rbp),%rdi
   118fc:	48 8b 75 78          	mov    0x78(%rbp),%rsi
   11900:	48 89 44 24 18       	mov    %rax,0x18(%rsp)
   11905:	48 8b 17             	mov    (%rdi),%rdx
   11908:	ff 52 08             	callq  *0x8(%rdx)
   1190b:	48 8b 44 24 18       	mov    0x18(%rsp),%rax
   11910:	4c 89 75 70          	mov    %r14,0x70(%rbp)
   11914:	48 8b 95 80 00 00 00 	mov    0x80(%rbp),%rdx
   1191b:	48 89 45 78          	mov    %rax,0x78(%rbp)
   1191f:	48 8d 4a 01          	lea    0x1(%rdx),%rcx
   11923:	48 8b 74 24 10       	mov    0x10(%rsp),%rsi
   11928:	45 31 c9             	xor    %r9d,%r9d
   1192b:	45 31 c0             	xor    %r8d,%r8d
   1192e:	48 89 8d 80 00 00 00 	mov    %rcx,0x80(%rbp)
   11935:	48 89 ef             	mov    %rbp,%rdi
   11938:	31 c9                	xor    %ecx,%ecx
   1193a:	c6 04 10 f6          	movb   $0xf6,(%rax,%rdx,1)
   1193e:	41 0f b6 55 00       	movzbl 0x0(%r13),%edx
   11943:	83 e2 1f             	and    $0x1f,%edx
   11946:	e8 e5 a0 ff ff       	callq  ba30 <_ZN5Xbyak13CodeGenerator6opAddrERKNS_7AddressEiiib>
   1194b:	e9 6f f5 ff ff       	jmpq   10ebf <_ZN4Code10mulPackAddERKN5Xbyak6RegExpERKNS0_3XmmEiS3_RKNS0_5Reg64ERKNS0_4util4PackE+0xd9f>
   11950:	48 8b 45 78          	mov    0x78(%rbp),%rax
   11954:	e9 06 f1 ff ff       	jmpq   10a5f <_ZN4Code10mulPackAddERKN5Xbyak6RegExpERKNS0_3XmmEiS3_RKNS0_5Reg64ERKNS0_4util4PackE+0x93f>
   11959:	0f 1f 80 00 00 00 00 	nopl   0x0(%rax)
   11960:	41 83 7c 24 30 01    	cmpl   $0x1,0x30(%r12)
   11966:	0f 84 70 10 00 00    	je     129dc <_ZN4Code10mulPackAddERKN5Xbyak6RegExpERKNS0_3XmmEiS3_RKNS0_5Reg64ERKNS0_4util4PackE+0x28bc>
   1196c:	4c 89 ea             	mov    %r13,%rdx
   1196f:	4c 89 e6             	mov    %r12,%rsi
   11972:	48 89 ef             	mov    %rbp,%rdi
   11975:	e8 46 66 ff ff       	callq  7fc0 <_ZN5Xbyak13CodeGenerator3rexERKNS_7OperandES3_>
   1197a:	48 8b 85 80 00 00 00 	mov    0x80(%rbp),%rax
   11981:	4c 8b 75 70          	mov    0x70(%rbp),%r14
   11985:	4c 39 f0             	cmp    %r14,%rax
   11988:	0f 82 02 07 00 00    	jb     12090 <_ZN4Code10mulPackAddERKN5Xbyak6RegExpERKNS0_3XmmEiS3_RKNS0_5Reg64ERKNS0_4util4PackE+0x1f70>
   1198e:	83 7d 20 03          	cmpl   $0x3,0x20(%rbp)
   11992:	0f 85 c6 0f 00 00    	jne    1295e <_ZN4Code10mulPackAddERKN5Xbyak6RegExpERKNS0_3XmmEiS3_RKNS0_5Reg64ERKNS0_4util4PackE+0x283e>
   11998:	48 8b 7d 68          	mov    0x68(%rbp),%rdi
   1199c:	4d 01 f6             	add    %r14,%r14
   1199f:	b8 00 10 00 00       	mov    $0x1000,%eax
   119a4:	49 81 fe 00 10 00 00 	cmp    $0x1000,%r14
   119ab:	4c 0f 42 f0          	cmovb  %rax,%r14
   119af:	48 8b 07             	mov    (%rdi),%rax
   119b2:	4c 89 f6             	mov    %r14,%rsi
   119b5:	ff 10                	callq  *(%rax)
   119b7:	49 89 c7             	mov    %rax,%r15
   119ba:	48 85 c0             	test   %rax,%rax
   119bd:	0f 84 14 10 00 00    	je     129d7 <_ZN4Code10mulPackAddERKN5Xbyak6RegExpERKNS0_3XmmEiS3_RKNS0_5Reg64ERKNS0_4util4PackE+0x28b7>
   119c3:	31 d2                	xor    %edx,%edx
   119c5:	48 83 bd 80 00 00 00 	cmpq   $0x0,0x80(%rbp)
   119cc:	00 
   119cd:	74 1a                	je     119e9 <_ZN4Code10mulPackAddERKN5Xbyak6RegExpERKNS0_3XmmEiS3_RKNS0_5Reg64ERKNS0_4util4PackE+0x18c9>
   119cf:	90                   	nop
   119d0:	48 8b 45 78          	mov    0x78(%rbp),%rax
   119d4:	0f b6 04 10          	movzbl (%rax,%rdx,1),%eax
   119d8:	41 88 04 17          	mov    %al,(%r15,%rdx,1)
   119dc:	48 83 c2 01          	add    $0x1,%rdx
   119e0:	48 39 95 80 00 00 00 	cmp    %rdx,0x80(%rbp)
   119e7:	77 e7                	ja     119d0 <_ZN4Code10mulPackAddERKN5Xbyak6RegExpERKNS0_3XmmEiS3_RKNS0_5Reg64ERKNS0_4util4PackE+0x18b0>
   119e9:	48 8b 7d 68          	mov    0x68(%rbp),%rdi
   119ed:	48 8b 75 78          	mov    0x78(%rbp),%rsi
   119f1:	48 8b 07             	mov    (%rdi),%rax
   119f4:	ff 50 08             	callq  *0x8(%rax)
   119f7:	4c 89 7d 78          	mov    %r15,0x78(%rbp)
   119fb:	48 8b 85 80 00 00 00 	mov    0x80(%rbp),%rax
   11a02:	4c 89 75 70          	mov    %r14,0x70(%rbp)
   11a06:	48 8d 50 01          	lea    0x1(%rax),%rdx
   11a0a:	48 89 95 80 00 00 00 	mov    %rdx,0x80(%rbp)
   11a11:	41 c6 04 07 0f       	movb   $0xf,(%r15,%rax,1)
   11a16:	48 8b 85 80 00 00 00 	mov    0x80(%rbp),%rax
   11a1d:	4c 8b 75 70          	mov    0x70(%rbp),%r14
   11a21:	4c 39 f0             	cmp    %r14,%rax
   11a24:	0f 82 56 06 00 00    	jb     12080 <_ZN4Code10mulPackAddERKN5Xbyak6RegExpERKNS0_3XmmEiS3_RKNS0_5Reg64ERKNS0_4util4PackE+0x1f60>
   11a2a:	83 7d 20 03          	cmpl   $0x3,0x20(%rbp)
   11a2e:	0f 85 2a 0f 00 00    	jne    1295e <_ZN4Code10mulPackAddERKN5Xbyak6RegExpERKNS0_3XmmEiS3_RKNS0_5Reg64ERKNS0_4util4PackE+0x283e>
   11a34:	48 8b 7d 68          	mov    0x68(%rbp),%rdi
   11a38:	4d 01 f6             	add    %r14,%r14
   11a3b:	b8 00 10 00 00       	mov    $0x1000,%eax
   11a40:	49 81 fe 00 10 00 00 	cmp    $0x1000,%r14
   11a47:	4c 0f 42 f0          	cmovb  %rax,%r14
   11a4b:	48 8b 07             	mov    (%rdi),%rax
   11a4e:	4c 89 f6             	mov    %r14,%rsi
   11a51:	ff 10                	callq  *(%rax)
   11a53:	49 89 c7             	mov    %rax,%r15
   11a56:	48 85 c0             	test   %rax,%rax
   11a59:	0f 84 78 0f 00 00    	je     129d7 <_ZN4Code10mulPackAddERKN5Xbyak6RegExpERKNS0_3XmmEiS3_RKNS0_5Reg64ERKNS0_4util4PackE+0x28b7>
   11a5f:	31 d2                	xor    %edx,%edx
   11a61:	48 83 bd 80 00 00 00 	cmpq   $0x0,0x80(%rbp)
   11a68:	00 
   11a69:	74 1e                	je     11a89 <_ZN4Code10mulPackAddERKN5Xbyak6RegExpERKNS0_3XmmEiS3_RKNS0_5Reg64ERKNS0_4util4PackE+0x1969>
   11a6b:	0f 1f 44 00 00       	nopl   0x0(%rax,%rax,1)
   11a70:	48 8b 45 78          	mov    0x78(%rbp),%rax
   11a74:	0f b6 04 10          	movzbl (%rax,%rdx,1),%eax
   11a78:	41 88 04 17          	mov    %al,(%r15,%rdx,1)
   11a7c:	48 83 c2 01          	add    $0x1,%rdx
   11a80:	48 39 95 80 00 00 00 	cmp    %rdx,0x80(%rbp)
   11a87:	77 e7                	ja     11a70 <_ZN4Code10mulPackAddERKN5Xbyak6RegExpERKNS0_3XmmEiS3_RKNS0_5Reg64ERKNS0_4util4PackE+0x1950>
   11a89:	48 8b 7d 68          	mov    0x68(%rbp),%rdi
   11a8d:	48 8b 75 78          	mov    0x78(%rbp),%rsi
   11a91:	48 8b 07             	mov    (%rdi),%rax
   11a94:	ff 50 08             	callq  *0x8(%rax)
   11a97:	4c 89 7d 78          	mov    %r15,0x78(%rbp)
   11a9b:	48 8b 85 80 00 00 00 	mov    0x80(%rbp),%rax
   11aa2:	4c 89 75 70          	mov    %r14,0x70(%rbp)
   11aa6:	48 8d 50 01          	lea    0x1(%rax),%rdx
   11aaa:	48 89 95 80 00 00 00 	mov    %rdx,0x80(%rbp)
   11ab1:	41 c6 04 07 38       	movb   $0x38,(%r15,%rax,1)
   11ab6:	48 8b 85 80 00 00 00 	mov    0x80(%rbp),%rax
   11abd:	4c 8b 75 70          	mov    0x70(%rbp),%r14
   11ac1:	4c 39 f0             	cmp    %r14,%rax
   11ac4:	0f 82 76 05 00 00    	jb     12040 <_ZN4Code10mulPackAddERKN5Xbyak6RegExpERKNS0_3XmmEiS3_RKNS0_5Reg64ERKNS0_4util4PackE+0x1f20>
   11aca:	83 7d 20 03          	cmpl   $0x3,0x20(%rbp)
   11ace:	0f 85 8a 0e 00 00    	jne    1295e <_ZN4Code10mulPackAddERKN5Xbyak6RegExpERKNS0_3XmmEiS3_RKNS0_5Reg64ERKNS0_4util4PackE+0x283e>
   11ad4:	48 8b 7d 68          	mov    0x68(%rbp),%rdi
   11ad8:	4d 01 f6             	add    %r14,%r14
   11adb:	b8 00 10 00 00       	mov    $0x1000,%eax
   11ae0:	49 81 fe 00 10 00 00 	cmp    $0x1000,%r14
   11ae7:	4c 0f 42 f0          	cmovb  %rax,%r14
   11aeb:	48 8b 07             	mov    (%rdi),%rax
   11aee:	4c 89 f6             	mov    %r14,%rsi
   11af1:	ff 10                	callq  *(%rax)
   11af3:	49 89 c7             	mov    %rax,%r15
   11af6:	48 85 c0             	test   %rax,%rax
   11af9:	0f 84 d8 0e 00 00    	je     129d7 <_ZN4Code10mulPackAddERKN5Xbyak6RegExpERKNS0_3XmmEiS3_RKNS0_5Reg64ERKNS0_4util4PackE+0x28b7>
   11aff:	31 d2                	xor    %edx,%edx
   11b01:	48 83 bd 80 00 00 00 	cmpq   $0x0,0x80(%rbp)
   11b08:	00 
   11b09:	74 1e                	je     11b29 <_ZN4Code10mulPackAddERKN5Xbyak6RegExpERKNS0_3XmmEiS3_RKNS0_5Reg64ERKNS0_4util4PackE+0x1a09>
   11b0b:	0f 1f 44 00 00       	nopl   0x0(%rax,%rax,1)
   11b10:	48 8b 45 78          	mov    0x78(%rbp),%rax
   11b14:	0f b6 04 10          	movzbl (%rax,%rdx,1),%eax
   11b18:	41 88 04 17          	mov    %al,(%r15,%rdx,1)
   11b1c:	48 83 c2 01          	add    $0x1,%rdx
   11b20:	48 39 95 80 00 00 00 	cmp    %rdx,0x80(%rbp)
   11b27:	77 e7                	ja     11b10 <_ZN4Code10mulPackAddERKN5Xbyak6RegExpERKNS0_3XmmEiS3_RKNS0_5Reg64ERKNS0_4util4PackE+0x19f0>
   11b29:	48 8b 7d 68          	mov    0x68(%rbp),%rdi
   11b2d:	48 8b 75 78          	mov    0x78(%rbp),%rsi
   11b31:	48 8b 07             	mov    (%rdi),%rax
   11b34:	ff 50 08             	callq  *0x8(%rax)
   11b37:	4c 89 7d 78          	mov    %r15,0x78(%rbp)
   11b3b:	48 8b 85 80 00 00 00 	mov    0x80(%rbp),%rax
   11b42:	4c 89 75 70          	mov    %r14,0x70(%rbp)
   11b46:	48 8d 50 01          	lea    0x1(%rax),%rdx
   11b4a:	45 31 c9             	xor    %r9d,%r9d
   11b4d:	45 31 c0             	xor    %r8d,%r8d
   11b50:	31 c9                	xor    %ecx,%ecx
   11b52:	48 89 95 80 00 00 00 	mov    %rdx,0x80(%rbp)
   11b59:	4c 89 e6             	mov    %r12,%rsi
   11b5c:	48 89 ef             	mov    %rbp,%rdi
   11b5f:	41 c6 04 07 f6       	movb   $0xf6,(%r15,%rax,1)
   11b64:	41 0f b6 55 00       	movzbl 0x0(%r13),%edx
   11b69:	83 e2 1f             	and    $0x1f,%edx
   11b6c:	e8 bf 9e ff ff       	callq  ba30 <_ZN5Xbyak13CodeGenerator6opAddrERKNS_7AddressEiiib>
   11b71:	e9 2f f7 ff ff       	jmpq   112a5 <_ZN4Code10mulPackAddERKN5Xbyak6RegExpERKNS0_3XmmEiS3_RKNS0_5Reg64ERKNS0_4util4PackE+0x1185>
   11b76:	66 2e 0f 1f 84 00 00 	nopw   %cs:0x0(%rax,%rax,1)
   11b7d:	00 00 00 
   11b80:	4c 8b 7d 78          	mov    0x78(%rbp),%r15
   11b84:	e9 5d f4 ff ff       	jmpq   10fe6 <_ZN4Code10mulPackAddERKN5Xbyak6RegExpERKNS0_3XmmEiS3_RKNS0_5Reg64ERKNS0_4util4PackE+0xec6>
   11b89:	0f 1f 80 00 00 00 00 	nopl   0x0(%rax)
   11b90:	83 e2 10             	and    $0x10,%edx
   11b93:	0f 84 9f fb ff ff    	je     11738 <_ZN4Code10mulPackAddERKN5Xbyak6RegExpERKNS0_3XmmEiS3_RKNS0_5Reg64ERKNS0_4util4PackE+0x1618>
   11b99:	83 e1 60             	and    $0x60,%ecx
   11b9c:	0f 85 96 fb ff ff    	jne    11738 <_ZN4Code10mulPackAddERKN5Xbyak6RegExpERKNS0_3XmmEiS3_RKNS0_5Reg64ERKNS0_4util4PackE+0x1618>
   11ba2:	48 8b 95 80 00 00 00 	mov    0x80(%rbp),%rdx
   11ba9:	4c 8b 45 70          	mov    0x70(%rbp),%r8
   11bad:	4c 39 c2             	cmp    %r8,%rdx
   11bb0:	0f 83 da fa ff ff    	jae    11690 <_ZN4Code10mulPackAddERKN5Xbyak6RegExpERKNS0_3XmmEiS3_RKNS0_5Reg64ERKNS0_4util4PackE+0x1570>
   11bb6:	48 8b 45 78          	mov    0x78(%rbp),%rax
   11bba:	e9 6a fb ff ff       	jmpq   11729 <_ZN4Code10mulPackAddERKN5Xbyak6RegExpERKNS0_3XmmEiS3_RKNS0_5Reg64ERKNS0_4util4PackE+0x1609>
   11bbf:	90                   	nop
   11bc0:	83 e2 10             	and    $0x10,%edx
   11bc3:	0f 84 2f f0 ff ff    	je     10bf8 <_ZN4Code10mulPackAddERKN5Xbyak6RegExpERKNS0_3XmmEiS3_RKNS0_5Reg64ERKNS0_4util4PackE+0xad8>
   11bc9:	83 e1 60             	and    $0x60,%ecx
   11bcc:	0f 85 26 f0 ff ff    	jne    10bf8 <_ZN4Code10mulPackAddERKN5Xbyak6RegExpERKNS0_3XmmEiS3_RKNS0_5Reg64ERKNS0_4util4PackE+0xad8>
   11bd2:	48 8b 95 80 00 00 00 	mov    0x80(%rbp),%rdx
   11bd9:	4c 8b 45 70          	mov    0x70(%rbp),%r8
   11bdd:	4c 39 c2             	cmp    %r8,%rdx
   11be0:	0f 83 6b ef ff ff    	jae    10b51 <_ZN4Code10mulPackAddERKN5Xbyak6RegExpERKNS0_3XmmEiS3_RKNS0_5Reg64ERKNS0_4util4PackE+0xa31>
   11be6:	48 8b 45 78          	mov    0x78(%rbp),%rax
   11bea:	e9 fa ef ff ff       	jmpq   10be9 <_ZN4Code10mulPackAddERKN5Xbyak6RegExpERKNS0_3XmmEiS3_RKNS0_5Reg64ERKNS0_4util4PackE+0xac9>
   11bef:	90                   	nop
   11bf0:	4d 85 c0             	test   %r8,%r8
   11bf3:	0f 84 4a 0d 00 00    	je     12943 <_ZN4Code10mulPackAddERKN5Xbyak6RegExpERKNS0_3XmmEiS3_RKNS0_5Reg64ERKNS0_4util4PackE+0x2823>
   11bf9:	48 8b 4c 24 38       	mov    0x38(%rsp),%rcx
   11bfe:	4c 8b 18             	mov    (%rax),%r11
   11c01:	0f b7 71 0a          	movzwl 0xa(%rcx),%esi
   11c05:	f3 0f 6f 31          	movdqu (%rcx),%xmm6
   11c09:	0f b6 41 0c          	movzbl 0xc(%rcx),%eax
   11c0d:	44 8b 51 10          	mov    0x10(%rcx),%r10d
   11c11:	66 89 74 24 18       	mov    %si,0x18(%rsp)
   11c16:	0f b6 71 08          	movzbl 0x8(%rcx),%esi
   11c1a:	0f 29 b4 24 a0 00 00 	movaps %xmm6,0xa0(%rsp)
   11c21:	00 
   11c22:	f3 0f 6f 71 10       	movdqu 0x10(%rcx),%xmm6
   11c27:	41 89 c5             	mov    %eax,%r13d
   11c2a:	c0 e8 03             	shr    $0x3,%al
   11c2d:	89 f7                	mov    %esi,%edi
   11c2f:	0f b7 71 08          	movzwl 0x8(%rcx),%esi
   11c33:	0f b7 54 24 18       	movzwl 0x18(%rsp),%edx
   11c38:	41 83 e5 07          	and    $0x7,%r13d
   11c3c:	0f 29 74 24 20       	movaps %xmm6,0x20(%rsp)
   11c41:	4c 8b 71 18          	mov    0x18(%rcx),%r14
   11c45:	83 e7 3f             	and    $0x3f,%edi
   11c48:	83 e0 07             	and    $0x7,%eax
   11c4b:	66 89 74 24 20       	mov    %si,0x20(%rsp)
   11c50:	41 89 f0             	mov    %esi,%r8d
   11c53:	0f b6 71 0b          	movzbl 0xb(%rcx),%esi
   11c57:	0f 29 b4 24 b0 00 00 	movaps %xmm6,0xb0(%rsp)
   11c5e:	00 
   11c5f:	66 41 c1 e8 06       	shr    $0x6,%r8w
   11c64:	40 88 74 24 20       	mov    %sil,0x20(%rsp)
   11c69:	40 c0 ee 06          	shr    $0x6,%sil
   11c6d:	83 e6 01             	and    $0x1,%esi
   11c70:	66 81 e2 ff 3f       	and    $0x3fff,%dx
   11c75:	75 0f                	jne    11c86 <_ZN4Code10mulPackAddERKN5Xbyak6RegExpERKNS0_3XmmEiS3_RKNS0_5Reg64ERKNS0_4util4PackE+0x1b66>
   11c77:	45 31 d2             	xor    %r10d,%r10d
   11c7a:	31 c0                	xor    %eax,%eax
   11c7c:	45 31 ed             	xor    %r13d,%r13d
   11c7f:	31 f6                	xor    %esi,%esi
   11c81:	45 31 c0             	xor    %r8d,%r8d
   11c84:	31 ff                	xor    %edi,%edi
   11c86:	45 0f b7 c0          	movzwl %r8w,%r8d
   11c8a:	40 0f b6 ff          	movzbl %dil,%edi
   11c8e:	c1 e2 10             	shl    $0x10,%edx
   11c91:	4c 03 74 24 30       	add    0x30(%rsp),%r14
   11c96:	41 c1 e0 06          	shl    $0x6,%r8d
   11c9a:	c1 e0 03             	shl    $0x3,%eax
   11c9d:	8b 8d e0 03 00 00    	mov    0x3e0(%rbp),%ecx
   11ca3:	44 8b 8c 24 40 01 00 	mov    0x140(%rsp),%r9d
   11caa:	00 
   11cab:	44 09 c7             	or     %r8d,%edi
   11cae:	41 09 c5             	or     %eax,%r13d
   11cb1:	c1 e6 1e             	shl    $0x1e,%esi
   11cb4:	0f b6 84 24 ac 00 00 	movzbl 0xac(%rsp),%eax
   11cbb:	00 
   11cbc:	09 d7                	or     %edx,%edi
   11cbe:	8b 94 24 a8 00 00 00 	mov    0xa8(%rsp),%edx
   11cc5:	41 83 e5 3f          	and    $0x3f,%r13d
   11cc9:	c1 e1 10             	shl    $0x10,%ecx
   11ccc:	09 f7                	or     %esi,%edi
   11cce:	83 e0 c0             	and    $0xffffffc0,%eax
   11cd1:	81 e1 00 00 ff 3f    	and    $0x3fff0000,%ecx
   11cd7:	44 89 94 24 b0 00 00 	mov    %r10d,0xb0(%rsp)
   11cde:	00 
   11cdf:	81 e7 ff ff ff 7f    	and    $0x7fffffff,%edi
   11ce5:	41 09 c5             	or     %eax,%r13d
   11ce8:	83 c9 40             	or     $0x40,%ecx
   11ceb:	81 e2 00 00 00 80    	and    $0x80000000,%edx
   11cf1:	09 d7                	or     %edx,%edi
   11cf3:	0f b6 85 e4 03 00 00 	movzbl 0x3e4(%rbp),%eax
   11cfa:	44 88 ac 24 ac 00 00 	mov    %r13b,0xac(%rsp)
   11d01:	00 
   11d02:	41 81 e1 00 00 00 80 	and    $0x80000000,%r9d
   11d09:	89 bc 24 a8 00 00 00 	mov    %edi,0xa8(%rsp)
   11d10:	44 09 c9             	or     %r9d,%ecx
   11d13:	66 0f 6f b4 24 a0 00 	movdqa 0xa0(%rsp),%xmm6
   11d1a:	00 00 
   11d1c:	88 84 24 74 01 00 00 	mov    %al,0x174(%rsp)
   11d23:	0f 11 b4 24 48 01 00 	movups %xmm6,0x148(%rsp)
   11d2a:	00 
   11d2b:	0f b7 84 24 4a 01 00 	movzwl 0x14a(%rsp),%eax
   11d32:	00 
   11d33:	4c 89 b4 24 b8 00 00 	mov    %r14,0xb8(%rsp)
   11d3a:	00 
   11d3b:	66 0f 6f bc 24 b0 00 	movdqa 0xb0(%rsp),%xmm7
   11d42:	00 00 
   11d44:	25 ff 3f 00 00       	and    $0x3fff,%eax
   11d49:	80 a4 24 44 01 00 00 	andb   $0xc0,0x144(%rsp)
   11d50:	c0 
   11d51:	89 8c 24 40 01 00 00 	mov    %ecx,0x140(%rsp)
   11d58:	48 c7 84 24 68 01 00 	movq   $0x0,0x168(%rsp)
   11d5f:	00 00 00 00 00 
   11d64:	c7 84 24 70 01 00 00 	movl   $0x0,0x170(%rsp)
   11d6b:	00 00 00 00 
   11d6f:	0f 11 bc 24 58 01 00 	movups %xmm7,0x158(%rsp)
   11d76:	00 
   11d77:	83 f8 7f             	cmp    $0x7f,%eax
   11d7a:	0f 87 52 0c 00 00    	ja     129d2 <_ZN4Code10mulPackAddERKN5Xbyak6RegExpERKNS0_3XmmEiS3_RKNS0_5Reg64ERKNS0_4util4PackE+0x28b2>
   11d80:	0f b7 94 24 52 01 00 	movzwl 0x152(%rsp),%edx
   11d87:	00 
   11d88:	81 e2 ff 3f 00 00    	and    $0x3fff,%edx
   11d8e:	8d 4a ff             	lea    -0x1(%rdx),%ecx
   11d91:	83 f9 3f             	cmp    $0x3f,%ecx
   11d94:	0f 86 16 07 00 00    	jbe    124b0 <_ZN4Code10mulPackAddERKN5Xbyak6RegExpERKNS0_3XmmEiS3_RKNS0_5Reg64ERKNS0_4util4PackE+0x2390>
   11d9a:	4c 89 da             	mov    %r11,%rdx
   11d9d:	4c 89 fe             	mov    %r15,%rsi
   11da0:	48 89 ef             	mov    %rbp,%rdi
   11da3:	e8 c8 b2 ff ff       	callq  d070 <_ZN5Xbyak13CodeGenerator3movERKNS_7OperandES3_>
   11da8:	48 8b 84 24 c0 01 00 	mov    0x1c0(%rsp),%rax
   11daf:	00 
   11db0:	4c 8b 40 78          	mov    0x78(%rax),%r8
   11db4:	e9 1e f1 ff ff       	jmpq   10ed7 <_ZN4Code10mulPackAddERKN5Xbyak6RegExpERKNS0_3XmmEiS3_RKNS0_5Reg64ERKNS0_4util4PackE+0xdb7>
   11db9:	0f 1f 80 00 00 00 00 	nopl   0x0(%rax)
   11dc0:	48 8b 85 80 00 00 00 	mov    0x80(%rbp),%rax
   11dc7:	4c 8b 75 70          	mov    0x70(%rbp),%r14
   11dcb:	4c 39 f0             	cmp    %r14,%rax
   11dce:	0f 82 84 05 00 00    	jb     12358 <_ZN4Code10mulPackAddERKN5Xbyak6RegExpERKNS0_3XmmEiS3_RKNS0_5Reg64ERKNS0_4util4PackE+0x2238>
   11dd4:	83 7d 20 03          	cmpl   $0x3,0x20(%rbp)
   11dd8:	0f 85 80 0b 00 00    	jne    1295e <_ZN4Code10mulPackAddERKN5Xbyak6RegExpERKNS0_3XmmEiS3_RKNS0_5Reg64ERKNS0_4util4PackE+0x283e>
   11dde:	48 8b 7d 68          	mov    0x68(%rbp),%rdi
   11de2:	4d 01 f6             	add    %r14,%r14
   11de5:	b8 00 10 00 00       	mov    $0x1000,%eax
   11dea:	49 81 fe 00 10 00 00 	cmp    $0x1000,%r14
   11df1:	4c 0f 42 f0          	cmovb  %rax,%r14
   11df5:	48 8b 07             	mov    (%rdi),%rax
   11df8:	4c 89 f6             	mov    %r14,%rsi
   11dfb:	ff 10                	callq  *(%rax)
   11dfd:	49 89 c7             	mov    %rax,%r15
   11e00:	48 85 c0             	test   %rax,%rax
   11e03:	0f 84 ce 0b 00 00    	je     129d7 <_ZN4Code10mulPackAddERKN5Xbyak6RegExpERKNS0_3XmmEiS3_RKNS0_5Reg64ERKNS0_4util4PackE+0x28b7>
   11e09:	31 d2                	xor    %edx,%edx
   11e0b:	48 83 bd 80 00 00 00 	cmpq   $0x0,0x80(%rbp)
   11e12:	00 
   11e13:	74 1c                	je     11e31 <_ZN4Code10mulPackAddERKN5Xbyak6RegExpERKNS0_3XmmEiS3_RKNS0_5Reg64ERKNS0_4util4PackE+0x1d11>
   11e15:	0f 1f 00             	nopl   (%rax)
   11e18:	48 8b 45 78          	mov    0x78(%rbp),%rax
   11e1c:	0f b6 04 10          	movzbl (%rax,%rdx,1),%eax
   11e20:	41 88 04 17          	mov    %al,(%r15,%rdx,1)
   11e24:	48 83 c2 01          	add    $0x1,%rdx
   11e28:	48 39 95 80 00 00 00 	cmp    %rdx,0x80(%rbp)
   11e2f:	77 e7                	ja     11e18 <_ZN4Code10mulPackAddERKN5Xbyak6RegExpERKNS0_3XmmEiS3_RKNS0_5Reg64ERKNS0_4util4PackE+0x1cf8>
   11e31:	48 8b 7d 68          	mov    0x68(%rbp),%rdi
   11e35:	48 8b 75 78          	mov    0x78(%rbp),%rsi
   11e39:	48 8b 07             	mov    (%rdi),%rax
   11e3c:	ff 50 08             	callq  *0x8(%rax)
   11e3f:	4c 89 7d 78          	mov    %r15,0x78(%rbp)
   11e43:	48 8b 85 80 00 00 00 	mov    0x80(%rbp),%rax
   11e4a:	4c 89 75 70          	mov    %r14,0x70(%rbp)
   11e4e:	48 8d 50 01          	lea    0x1(%rax),%rdx
   11e52:	48 89 95 80 00 00 00 	mov    %rdx,0x80(%rbp)
   11e59:	41 c6 04 07 67       	movb   $0x67,(%r15,%rax,1)
   11e5e:	0f b6 84 24 48 01 00 	movzbl 0x148(%rsp),%eax
   11e65:	00 
   11e66:	0f b6 94 24 04 01 00 	movzbl 0x104(%rsp),%edx
   11e6d:	00 
   11e6e:	83 e0 3f             	and    $0x3f,%eax
   11e71:	89 c1                	mov    %eax,%ecx
   11e73:	83 e2 07             	and    $0x7,%edx
   11e76:	c0 e9 03             	shr    $0x3,%cl
   11e79:	83 e1 01             	and    $0x1,%ecx
   11e7c:	66 41 f7 04 24 00 10 	testw  $0x1000,(%r12)
   11e83:	0f 85 27 e9 ff ff    	jne    107b0 <_ZN4Code10mulPackAddERKN5Xbyak6RegExpERKNS0_3XmmEiS3_RKNS0_5Reg64ERKNS0_4util4PackE+0x690>
   11e89:	41 f6 04 24 10       	testb  $0x10,(%r12)
   11e8e:	0f 85 1c e9 ff ff    	jne    107b0 <_ZN4Code10mulPackAddERKN5Xbyak6RegExpERKNS0_3XmmEiS3_RKNS0_5Reg64ERKNS0_4util4PackE+0x690>
   11e94:	41 0f b6 74 24 04    	movzbl 0x4(%r12),%esi
   11e9a:	40 f6 c6 07          	test   $0x7,%sil
   11e9e:	0f 85 0c e9 ff ff    	jne    107b0 <_ZN4Code10mulPackAddERKN5Xbyak6RegExpERKNS0_3XmmEiS3_RKNS0_5Reg64ERKNS0_4util4PackE+0x690>
   11ea4:	e9 fa e8 ff ff       	jmpq   107a3 <_ZN4Code10mulPackAddERKN5Xbyak6RegExpERKNS0_3XmmEiS3_RKNS0_5Reg64ERKNS0_4util4PackE+0x683>
   11ea9:	0f 1f 80 00 00 00 00 	nopl   0x0(%rax)
   11eb0:	0f b6 bc 24 10 01 00 	movzbl 0x110(%rsp),%edi
   11eb7:	00 
   11eb8:	83 e7 1f             	and    $0x1f,%edi
   11ebb:	40 80 ff 04          	cmp    $0x4,%dil
   11ebf:	0f 84 9e 0a 00 00    	je     12963 <_ZN4Code10mulPackAddERKN5Xbyak6RegExpERKNS0_3XmmEiS3_RKNS0_5Reg64ERKNS0_4util4PackE+0x2843>
   11ec5:	85 c0                	test   %eax,%eax
   11ec7:	0f 84 22 e8 ff ff    	je     106ef <_ZN4Code10mulPackAddERKN5Xbyak6RegExpERKNS0_3XmmEiS3_RKNS0_5Reg64ERKNS0_4util4PackE+0x5cf>
   11ecd:	39 d0                	cmp    %edx,%eax
   11ecf:	0f 84 1a e8 ff ff    	je     106ef <_ZN4Code10mulPackAddERKN5Xbyak6RegExpERKNS0_3XmmEiS3_RKNS0_5Reg64ERKNS0_4util4PackE+0x5cf>
   11ed5:	bf 10 00 00 00       	mov    $0x10,%edi
   11eda:	e8 41 15 ff ff       	callq  3420 <__cxa_allocate_exception@plt>
   11edf:	48 8d 15 1a 54 ff ff 	lea    -0xabe6(%rip),%rdx        # 7300 <_ZN5Xbyak5ErrorD1Ev>
   11ee6:	48 8d 35 53 6b 00 00 	lea    0x6b53(%rip),%rsi        # 18a40 <_ZTVN10__cxxabiv120__si_class_type_infoE@CXXABI_1.3>
   11eed:	48 89 c7             	mov    %rax,%rdi
   11ef0:	48 8d 05 01 6c 00 00 	lea    0x6c01(%rip),%rax        # 18af8 <_ZTVN5Xbyak5ErrorE>
   11ef7:	c7 47 08 06 00 00 00 	movl   $0x6,0x8(%rdi)
   11efe:	48 83 c0 10          	add    $0x10,%rax
   11f02:	48 89 07             	mov    %rax,(%rdi)
   11f05:	e8 56 17 ff ff       	callq  3660 <__cxa_throw@plt>
   11f0a:	66 0f 1f 44 00 00    	nopw   0x0(%rax,%rax,1)
   11f10:	48 8b 45 78          	mov    0x78(%rbp),%rax
   11f14:	e9 06 fa ff ff       	jmpq   1191f <_ZN4Code10mulPackAddERKN5Xbyak6RegExpERKNS0_3XmmEiS3_RKNS0_5Reg64ERKNS0_4util4PackE+0x17ff>
   11f19:	0f 1f 80 00 00 00 00 	nopl   0x0(%rax)
   11f20:	48 8b 45 78          	mov    0x78(%rbp),%rax
   11f24:	e9 56 f9 ff ff       	jmpq   1187f <_ZN4Code10mulPackAddERKN5Xbyak6RegExpERKNS0_3XmmEiS3_RKNS0_5Reg64ERKNS0_4util4PackE+0x175f>
   11f29:	0f 1f 80 00 00 00 00 	nopl   0x0(%rax)
   11f30:	48 8b 45 78          	mov    0x78(%rbp),%rax
   11f34:	e9 9e f8 ff ff       	jmpq   117d7 <_ZN4Code10mulPackAddERKN5Xbyak6RegExpERKNS0_3XmmEiS3_RKNS0_5Reg64ERKNS0_4util4PackE+0x16b7>
   11f39:	0f 1f 80 00 00 00 00 	nopl   0x0(%rax)
   11f40:	4c 8b 75 78          	mov    0x78(%rbp),%r14
   11f44:	e9 67 ef ff ff       	jmpq   10eb0 <_ZN4Code10mulPackAddERKN5Xbyak6RegExpERKNS0_3XmmEiS3_RKNS0_5Reg64ERKNS0_4util4PackE+0xd90>
   11f49:	0f 1f 80 00 00 00 00 	nopl   0x0(%rax)
   11f50:	48 8b 45 78          	mov    0x78(%rbp),%rax
   11f54:	e9 86 ee ff ff       	jmpq   10ddf <_ZN4Code10mulPackAddERKN5Xbyak6RegExpERKNS0_3XmmEiS3_RKNS0_5Reg64ERKNS0_4util4PackE+0xcbf>
   11f59:	0f 1f 80 00 00 00 00 	nopl   0x0(%rax)
   11f60:	41 0f b7 55 0a       	movzwl 0xa(%r13),%edx
   11f65:	66 81 e2 ff 3f       	and    $0x3fff,%dx
   11f6a:	66 83 fa 20          	cmp    $0x20,%dx
   11f6e:	0f 84 f4 03 00 00    	je     12368 <_ZN4Code10mulPackAddERKN5Xbyak6RegExpERKNS0_3XmmEiS3_RKNS0_5Reg64ERKNS0_4util4PackE+0x2248>
   11f74:	41 0f b7 55 12       	movzwl 0x12(%r13),%edx
   11f79:	66 81 e2 ff 3f       	and    $0x3fff,%dx
   11f7e:	66 83 fa 20          	cmp    $0x20,%dx
   11f82:	0f 84 e0 03 00 00    	je     12368 <_ZN4Code10mulPackAddERKN5Xbyak6RegExpERKNS0_3XmmEiS3_RKNS0_5Reg64ERKNS0_4util4PackE+0x2248>
   11f88:	41 8b 55 30          	mov    0x30(%r13),%edx
   11f8c:	45 31 f6             	xor    %r14d,%r14d
   11f8f:	85 d2                	test   %edx,%edx
   11f91:	75 41                	jne    11fd4 <_ZN4Code10mulPackAddERKN5Xbyak6RegExpERKNS0_3XmmEiS3_RKNS0_5Reg64ERKNS0_4util4PackE+0x1eb4>
   11f93:	41 0f b6 55 08       	movzbl 0x8(%r13),%edx
   11f98:	41 0f b6 4d 10       	movzbl 0x10(%r13),%ecx
   11f9d:	83 e2 3f             	and    $0x3f,%edx
   11fa0:	83 e1 3f             	and    $0x3f,%ecx
   11fa3:	41 f6 45 12 60       	testb  $0x60,0x12(%r13)
   11fa8:	74 11                	je     11fbb <_ZN4Code10mulPackAddERKN5Xbyak6RegExpERKNS0_3XmmEiS3_RKNS0_5Reg64ERKNS0_4util4PackE+0x1e9b>
   11faa:	66 41 f7 45 0a ff 3f 	testw  $0x3fff,0xa(%r13)
   11fb1:	75 08                	jne    11fbb <_ZN4Code10mulPackAddERKN5Xbyak6RegExpERKNS0_3XmmEiS3_RKNS0_5Reg64ERKNS0_4util4PackE+0x1e9b>
   11fb3:	41 83 7d 18 02       	cmpl   $0x2,0x18(%r13)
   11fb8:	0f 44 d1             	cmove  %ecx,%edx
   11fbb:	83 e2 08             	and    $0x8,%edx
   11fbe:	83 e1 08             	and    $0x8,%ecx
   11fc1:	0f 85 39 08 00 00    	jne    12800 <_ZN4Code10mulPackAddERKN5Xbyak6RegExpERKNS0_3XmmEiS3_RKNS0_5Reg64ERKNS0_4util4PackE+0x26e0>
   11fc7:	80 fa 01             	cmp    $0x1,%dl
   11fca:	45 19 f6             	sbb    %r14d,%r14d
   11fcd:	41 f7 d6             	not    %r14d
   11fd0:	41 83 e6 41          	and    $0x41,%r14d
   11fd4:	0f b7 95 fa 04 00 00 	movzwl 0x4fa(%rbp),%edx
   11fdb:	89 d1                	mov    %edx,%ecx
   11fdd:	66 81 e1 ff 3f       	and    $0x3fff,%cx
   11fe2:	a8 02                	test   $0x2,%al
   11fe4:	0f b6 85 f8 04 00 00 	movzbl 0x4f8(%rbp),%eax
   11feb:	0f 84 cf 00 00 00    	je     120c0 <_ZN4Code10mulPackAddERKN5Xbyak6RegExpERKNS0_3XmmEiS3_RKNS0_5Reg64ERKNS0_4util4PackE+0x1fa0>
   11ff1:	83 e2 40             	and    $0x40,%edx
   11ff4:	0f 84 c6 00 00 00    	je     120c0 <_ZN4Code10mulPackAddERKN5Xbyak6RegExpERKNS0_3XmmEiS3_RKNS0_5Reg64ERKNS0_4util4PackE+0x1fa0>
   11ffa:	83 e0 08             	and    $0x8,%eax
   11ffd:	3c 01                	cmp    $0x1,%al
   11fff:	19 c0                	sbb    %eax,%eax
   12001:	83 e0 fc             	and    $0xfffffffc,%eax
   12004:	83 c0 4c             	add    $0x4c,%eax
   12007:	41 09 c6             	or     %eax,%r14d
   1200a:	41 0f b7 55 02       	movzwl 0x2(%r13),%edx
   1200f:	66 81 e2 ff 3f       	and    $0x3fff,%dx
   12014:	e9 12 eb ff ff       	jmpq   10b2b <_ZN4Code10mulPackAddERKN5Xbyak6RegExpERKNS0_3XmmEiS3_RKNS0_5Reg64ERKNS0_4util4PackE+0xa0b>
   12019:	0f 1f 80 00 00 00 00 	nopl   0x0(%rax)
   12020:	48 8b 45 78          	mov    0x78(%rbp),%rax
   12024:	e9 16 ed ff ff       	jmpq   10d3f <_ZN4Code10mulPackAddERKN5Xbyak6RegExpERKNS0_3XmmEiS3_RKNS0_5Reg64ERKNS0_4util4PackE+0xc1f>
   12029:	0f 1f 80 00 00 00 00 	nopl   0x0(%rax)
   12030:	48 8b 45 78          	mov    0x78(%rbp),%rax
   12034:	e9 5e ec ff ff       	jmpq   10c97 <_ZN4Code10mulPackAddERKN5Xbyak6RegExpERKNS0_3XmmEiS3_RKNS0_5Reg64ERKNS0_4util4PackE+0xb77>
   12039:	0f 1f 80 00 00 00 00 	nopl   0x0(%rax)
   12040:	4c 8b 7d 78          	mov    0x78(%rbp),%r15
   12044:	e9 fd fa ff ff       	jmpq   11b46 <_ZN4Code10mulPackAddERKN5Xbyak6RegExpERKNS0_3XmmEiS3_RKNS0_5Reg64ERKNS0_4util4PackE+0x1a26>
   12049:	0f 1f 80 00 00 00 00 	nopl   0x0(%rax)
   12050:	4c 8b 7d 78          	mov    0x78(%rbp),%r15
   12054:	e9 85 f1 ff ff       	jmpq   111de <_ZN4Code10mulPackAddERKN5Xbyak6RegExpERKNS0_3XmmEiS3_RKNS0_5Reg64ERKNS0_4util4PackE+0x10be>
   12059:	0f 1f 80 00 00 00 00 	nopl   0x0(%rax)
   12060:	4c 8b 7d 78          	mov    0x78(%rbp),%r15
   12064:	e9 d5 f0 ff ff       	jmpq   1113e <_ZN4Code10mulPackAddERKN5Xbyak6RegExpERKNS0_3XmmEiS3_RKNS0_5Reg64ERKNS0_4util4PackE+0x101e>
   12069:	0f 1f 80 00 00 00 00 	nopl   0x0(%rax)
   12070:	4c 8b 7d 78          	mov    0x78(%rbp),%r15
   12074:	e9 25 f0 ff ff       	jmpq   1109e <_ZN4Code10mulPackAddERKN5Xbyak6RegExpERKNS0_3XmmEiS3_RKNS0_5Reg64ERKNS0_4util4PackE+0xf7e>
   12079:	0f 1f 80 00 00 00 00 	nopl   0x0(%rax)
   12080:	4c 8b 7d 78          	mov    0x78(%rbp),%r15
   12084:	e9 1d fa ff ff       	jmpq   11aa6 <_ZN4Code10mulPackAddERKN5Xbyak6RegExpERKNS0_3XmmEiS3_RKNS0_5Reg64ERKNS0_4util4PackE+0x1986>
   12089:	0f 1f 80 00 00 00 00 	nopl   0x0(%rax)
   12090:	4c 8b 7d 78          	mov    0x78(%rbp),%r15
   12094:	e9 6d f9 ff ff       	jmpq   11a06 <_ZN4Code10mulPackAddERKN5Xbyak6RegExpERKNS0_3XmmEiS3_RKNS0_5Reg64ERKNS0_4util4PackE+0x18e6>
   12099:	0f 1f 80 00 00 00 00 	nopl   0x0(%rax)
   120a0:	4c 8b 75 78          	mov    0x78(%rbp),%r14
   120a4:	e9 ed f1 ff ff       	jmpq   11296 <_ZN4Code10mulPackAddERKN5Xbyak6RegExpERKNS0_3XmmEiS3_RKNS0_5Reg64ERKNS0_4util4PackE+0x1176>
   120a9:	0f 1f 80 00 00 00 00 	nopl   0x0(%rax)
   120b0:	4c 8b 75 78          	mov    0x78(%rbp),%r14
   120b4:	e9 5d f3 ff ff       	jmpq   11416 <_ZN4Code10mulPackAddERKN5Xbyak6RegExpERKNS0_3XmmEiS3_RKNS0_5Reg64ERKNS0_4util4PackE+0x12f6>
   120b9:	0f 1f 80 00 00 00 00 	nopl   0x0(%rax)
   120c0:	89 c2                	mov    %eax,%edx
   120c2:	83 e2 3f             	and    $0x3f,%edx
   120c5:	a8 08                	test   $0x8,%al
   120c7:	0f 85 53 04 00 00    	jne    12520 <_ZN4Code10mulPackAddERKN5Xbyak6RegExpERKNS0_3XmmEiS3_RKNS0_5Reg64ERKNS0_4util4PackE+0x2400>
   120cd:	83 e2 20             	and    $0x20,%edx
   120d0:	b8 40 00 00 00       	mov    $0x40,%eax
   120d5:	0f 85 2c ff ff ff    	jne    12007 <_ZN4Code10mulPackAddERKN5Xbyak6RegExpERKNS0_3XmmEiS3_RKNS0_5Reg64ERKNS0_4util4PackE+0x1ee7>
   120db:	e9 2a ff ff ff       	jmpq   1200a <_ZN4Code10mulPackAddERKN5Xbyak6RegExpERKNS0_3XmmEiS3_RKNS0_5Reg64ERKNS0_4util4PackE+0x1eea>
   120e0:	84 c0                	test   %al,%al
   120e2:	0f 85 28 04 00 00    	jne    12510 <_ZN4Code10mulPackAddERKN5Xbyak6RegExpERKNS0_3XmmEiS3_RKNS0_5Reg64ERKNS0_4util4PackE+0x23f0>
   120e8:	83 e7 20             	and    $0x20,%edi
   120eb:	0f 84 6c f5 ff ff    	je     1165d <_ZN4Code10mulPackAddERKN5Xbyak6RegExpERKNS0_3XmmEiS3_RKNS0_5Reg64ERKNS0_4util4PackE+0x153d>
   120f1:	b8 40 00 00 00       	mov    $0x40,%eax
   120f6:	e9 5f f5 ff ff       	jmpq   1165a <_ZN4Code10mulPackAddERKN5Xbyak6RegExpERKNS0_3XmmEiS3_RKNS0_5Reg64ERKNS0_4util4PackE+0x153a>
   120fb:	0f 1f 44 00 00       	nopl   0x0(%rax,%rax,1)
   12100:	48 39 c2             	cmp    %rax,%rdx
   12103:	0f 82 d7 03 00 00    	jb     124e0 <_ZN4Code10mulPackAddERKN5Xbyak6RegExpERKNS0_3XmmEiS3_RKNS0_5Reg64ERKNS0_4util4PackE+0x23c0>
   12109:	83 7d 20 03          	cmpl   $0x3,0x20(%rbp)
   1210d:	0f 85 4b 08 00 00    	jne    1295e <_ZN4Code10mulPackAddERKN5Xbyak6RegExpERKNS0_3XmmEiS3_RKNS0_5Reg64ERKNS0_4util4PackE+0x283e>
   12113:	48 8d 0c 00          	lea    (%rax,%rax,1),%rcx
   12117:	48 8b 7d 68          	mov    0x68(%rbp),%rdi
   1211b:	b8 00 10 00 00       	mov    $0x1000,%eax
   12120:	48 81 f9 00 10 00 00 	cmp    $0x1000,%rcx
   12127:	48 0f 42 c8          	cmovb  %rax,%rcx
   1212b:	48 8b 07             	mov    (%rdi),%rax
   1212e:	48 89 4c 24 18       	mov    %rcx,0x18(%rsp)
   12133:	48 89 ce             	mov    %rcx,%rsi
   12136:	ff 10                	callq  *(%rax)
   12138:	48 85 c0             	test   %rax,%rax
   1213b:	0f 84 96 08 00 00    	je     129d7 <_ZN4Code10mulPackAddERKN5Xbyak6RegExpERKNS0_3XmmEiS3_RKNS0_5Reg64ERKNS0_4util4PackE+0x28b7>
   12141:	31 d2                	xor    %edx,%edx
   12143:	48 83 bd 80 00 00 00 	cmpq   $0x0,0x80(%rbp)
   1214a:	00 
   1214b:	48 8b 4c 24 18       	mov    0x18(%rsp),%rcx
   12150:	74 1f                	je     12171 <_ZN4Code10mulPackAddERKN5Xbyak6RegExpERKNS0_3XmmEiS3_RKNS0_5Reg64ERKNS0_4util4PackE+0x2051>
   12152:	66 0f 1f 44 00 00    	nopw   0x0(%rax,%rax,1)
   12158:	48 8b 75 78          	mov    0x78(%rbp),%rsi
   1215c:	0f b6 34 16          	movzbl (%rsi,%rdx,1),%esi
   12160:	40 88 34 10          	mov    %sil,(%rax,%rdx,1)
   12164:	48 83 c2 01          	add    $0x1,%rdx
   12168:	48 39 95 80 00 00 00 	cmp    %rdx,0x80(%rbp)
   1216f:	77 e7                	ja     12158 <_ZN4Code10mulPackAddERKN5Xbyak6RegExpERKNS0_3XmmEiS3_RKNS0_5Reg64ERKNS0_4util4PackE+0x2038>
   12171:	48 8b 7d 68          	mov    0x68(%rbp),%rdi
   12175:	48 8b 75 78          	mov    0x78(%rbp),%rsi
   12179:	48 89 44 24 20       	mov    %rax,0x20(%rsp)
   1217e:	48 89 4c 24 18       	mov    %rcx,0x18(%rsp)
   12183:	48 8b 17             	mov    (%rdi),%rdx
   12186:	ff 52 08             	callq  *0x8(%rdx)
   12189:	48 8b 44 24 20       	mov    0x20(%rsp),%rax
   1218e:	48 8b 4c 24 18       	mov    0x18(%rsp),%rcx
   12193:	48 8b 95 80 00 00 00 	mov    0x80(%rbp),%rdx
   1219a:	48 89 45 78          	mov    %rax,0x78(%rbp)
   1219e:	48 89 4d 70          	mov    %rcx,0x70(%rbp)
   121a2:	48 8d 4a 01          	lea    0x1(%rdx),%rcx
   121a6:	48 89 8d 80 00 00 00 	mov    %rcx,0x80(%rbp)
   121ad:	44 88 34 10          	mov    %r14b,(%rax,%rdx,1)
   121b1:	48 8b 95 80 00 00 00 	mov    0x80(%rbp),%rdx
   121b8:	48 8b 45 70          	mov    0x70(%rbp),%rax
   121bc:	e9 8b f5 ff ff       	jmpq   1174c <_ZN4Code10mulPackAddERKN5Xbyak6RegExpERKNS0_3XmmEiS3_RKNS0_5Reg64ERKNS0_4util4PackE+0x162c>
   121c1:	0f 1f 80 00 00 00 00 	nopl   0x0(%rax)
   121c8:	48 39 c2             	cmp    %rax,%rdx
   121cb:	0f 82 cf 02 00 00    	jb     124a0 <_ZN4Code10mulPackAddERKN5Xbyak6RegExpERKNS0_3XmmEiS3_RKNS0_5Reg64ERKNS0_4util4PackE+0x2380>
   121d1:	83 7d 20 03          	cmpl   $0x3,0x20(%rbp)
   121d5:	0f 85 83 07 00 00    	jne    1295e <_ZN4Code10mulPackAddERKN5Xbyak6RegExpERKNS0_3XmmEiS3_RKNS0_5Reg64ERKNS0_4util4PackE+0x283e>
   121db:	48 8d 0c 00          	lea    (%rax,%rax,1),%rcx
   121df:	48 8b 7d 68          	mov    0x68(%rbp),%rdi
   121e3:	b8 00 10 00 00       	mov    $0x1000,%eax
   121e8:	48 81 f9 00 10 00 00 	cmp    $0x1000,%rcx
   121ef:	48 0f 42 c8          	cmovb  %rax,%rcx
   121f3:	48 8b 07             	mov    (%rdi),%rax
   121f6:	48 89 4c 24 18       	mov    %rcx,0x18(%rsp)
   121fb:	48 89 ce             	mov    %rcx,%rsi
   121fe:	ff 10                	callq  *(%rax)
   12200:	48 85 c0             	test   %rax,%rax
   12203:	0f 84 ce 07 00 00    	je     129d7 <_ZN4Code10mulPackAddERKN5Xbyak6RegExpERKNS0_3XmmEiS3_RKNS0_5Reg64ERKNS0_4util4PackE+0x28b7>
   12209:	31 d2                	xor    %edx,%edx
   1220b:	48 83 bd 80 00 00 00 	cmpq   $0x0,0x80(%rbp)
   12212:	00 
   12213:	48 8b 4c 24 18       	mov    0x18(%rsp),%rcx
   12218:	74 1f                	je     12239 <_ZN4Code10mulPackAddERKN5Xbyak6RegExpERKNS0_3XmmEiS3_RKNS0_5Reg64ERKNS0_4util4PackE+0x2119>
   1221a:	66 0f 1f 44 00 00    	nopw   0x0(%rax,%rax,1)
   12220:	48 8b 75 78          	mov    0x78(%rbp),%rsi
   12224:	0f b6 34 16          	movzbl (%rsi,%rdx,1),%esi
   12228:	40 88 34 10          	mov    %sil,(%rax,%rdx,1)
   1222c:	48 83 c2 01          	add    $0x1,%rdx
   12230:	48 39 95 80 00 00 00 	cmp    %rdx,0x80(%rbp)
   12237:	77 e7                	ja     12220 <_ZN4Code10mulPackAddERKN5Xbyak6RegExpERKNS0_3XmmEiS3_RKNS0_5Reg64ERKNS0_4util4PackE+0x2100>
   12239:	48 8b 7d 68          	mov    0x68(%rbp),%rdi
   1223d:	48 8b 75 78          	mov    0x78(%rbp),%rsi
   12241:	48 89 4c 24 20       	mov    %rcx,0x20(%rsp)
   12246:	48 89 44 24 18       	mov    %rax,0x18(%rsp)
   1224b:	48 8b 17             	mov    (%rdi),%rdx
   1224e:	ff 52 08             	callq  *0x8(%rdx)
   12251:	48 8b 44 24 18       	mov    0x18(%rsp),%rax
   12256:	48 8b 4c 24 20       	mov    0x20(%rsp),%rcx
   1225b:	48 8b 95 80 00 00 00 	mov    0x80(%rbp),%rdx
   12262:	48 89 45 78          	mov    %rax,0x78(%rbp)
   12266:	48 89 4d 70          	mov    %rcx,0x70(%rbp)
   1226a:	48 8d 4a 01          	lea    0x1(%rdx),%rcx
   1226e:	48 89 8d 80 00 00 00 	mov    %rcx,0x80(%rbp)
   12275:	44 88 34 10          	mov    %r14b,(%rax,%rdx,1)
   12279:	48 8b 95 80 00 00 00 	mov    0x80(%rbp),%rdx
   12280:	48 8b 45 70          	mov    0x70(%rbp),%rax
   12284:	e9 83 e9 ff ff       	jmpq   10c0c <_ZN4Code10mulPackAddERKN5Xbyak6RegExpERKNS0_3XmmEiS3_RKNS0_5Reg64ERKNS0_4util4PackE+0xaec>
   12289:	0f 1f 80 00 00 00 00 	nopl   0x0(%rax)
   12290:	48 8b 85 80 00 00 00 	mov    0x80(%rbp),%rax
   12297:	4c 8b 45 70          	mov    0x70(%rbp),%r8
   1229b:	4c 39 c0             	cmp    %r8,%rax
   1229e:	0f 82 5c 02 00 00    	jb     12500 <_ZN4Code10mulPackAddERKN5Xbyak6RegExpERKNS0_3XmmEiS3_RKNS0_5Reg64ERKNS0_4util4PackE+0x23e0>
   122a4:	83 7d 20 03          	cmpl   $0x3,0x20(%rbp)
   122a8:	0f 85 b0 06 00 00    	jne    1295e <_ZN4Code10mulPackAddERKN5Xbyak6RegExpERKNS0_3XmmEiS3_RKNS0_5Reg64ERKNS0_4util4PackE+0x283e>
   122ae:	48 8b 7d 68          	mov    0x68(%rbp),%rdi
   122b2:	4d 01 c0             	add    %r8,%r8
   122b5:	b8 00 10 00 00       	mov    $0x1000,%eax
   122ba:	49 81 f8 00 10 00 00 	cmp    $0x1000,%r8
   122c1:	4c 0f 42 c0          	cmovb  %rax,%r8
   122c5:	48 8b 07             	mov    (%rdi),%rax
   122c8:	4c 89 44 24 18       	mov    %r8,0x18(%rsp)
   122cd:	4c 89 c6             	mov    %r8,%rsi
   122d0:	ff 10                	callq  *(%rax)
   122d2:	49 89 c6             	mov    %rax,%r14
   122d5:	48 85 c0             	test   %rax,%rax
   122d8:	0f 84 f9 06 00 00    	je     129d7 <_ZN4Code10mulPackAddERKN5Xbyak6RegExpERKNS0_3XmmEiS3_RKNS0_5Reg64ERKNS0_4util4PackE+0x28b7>
   122de:	31 d2                	xor    %edx,%edx
   122e0:	48 83 bd 80 00 00 00 	cmpq   $0x0,0x80(%rbp)
   122e7:	00 
   122e8:	4c 8b 44 24 18       	mov    0x18(%rsp),%r8
   122ed:	74 1a                	je     12309 <_ZN4Code10mulPackAddERKN5Xbyak6RegExpERKNS0_3XmmEiS3_RKNS0_5Reg64ERKNS0_4util4PackE+0x21e9>
   122ef:	90                   	nop
   122f0:	48 8b 45 78          	mov    0x78(%rbp),%rax
   122f4:	0f b6 04 10          	movzbl (%rax,%rdx,1),%eax
   122f8:	41 88 04 16          	mov    %al,(%r14,%rdx,1)
   122fc:	48 83 c2 01          	add    $0x1,%rdx
   12300:	48 39 95 80 00 00 00 	cmp    %rdx,0x80(%rbp)
   12307:	77 e7                	ja     122f0 <_ZN4Code10mulPackAddERKN5Xbyak6RegExpERKNS0_3XmmEiS3_RKNS0_5Reg64ERKNS0_4util4PackE+0x21d0>
   12309:	48 8b 7d 68          	mov    0x68(%rbp),%rdi
   1230d:	48 8b 75 78          	mov    0x78(%rbp),%rsi
   12311:	4c 89 44 24 18       	mov    %r8,0x18(%rsp)
   12316:	48 8b 07             	mov    (%rdi),%rax
   12319:	ff 50 08             	callq  *0x8(%rax)
   1231c:	4c 8b 44 24 18       	mov    0x18(%rsp),%r8
   12321:	4c 89 75 78          	mov    %r14,0x78(%rbp)
   12325:	48 8b 85 80 00 00 00 	mov    0x80(%rbp),%rax
   1232c:	4c 89 45 70          	mov    %r8,0x70(%rbp)
   12330:	48 8d 50 01          	lea    0x1(%rax),%rdx
   12334:	48 89 95 80 00 00 00 	mov    %rdx,0x80(%rbp)
   1233b:	41 c6 04 06 67       	movb   $0x67,(%r14,%rax,1)
   12340:	41 0f b7 4d 00       	movzwl 0x0(%r13),%ecx
   12345:	8b 95 28 05 00 00    	mov    0x528(%rbp),%edx
   1234b:	66 c1 e9 06          	shr    $0x6,%cx
   1234f:	e9 80 f2 ff ff       	jmpq   115d4 <_ZN4Code10mulPackAddERKN5Xbyak6RegExpERKNS0_3XmmEiS3_RKNS0_5Reg64ERKNS0_4util4PackE+0x14b4>
   12354:	0f 1f 40 00          	nopl   0x0(%rax)
   12358:	4c 8b 7d 78          	mov    0x78(%rbp),%r15
   1235c:	e9 ed fa ff ff       	jmpq   11e4e <_ZN4Code10mulPackAddERKN5Xbyak6RegExpERKNS0_3XmmEiS3_RKNS0_5Reg64ERKNS0_4util4PackE+0x1d2e>
   12361:	0f 1f 80 00 00 00 00 	nopl   0x0(%rax)
   12368:	48 8b 85 80 00 00 00 	mov    0x80(%rbp),%rax
   1236f:	4c 8b 45 70          	mov    0x70(%rbp),%r8
   12373:	4c 39 c0             	cmp    %r8,%rax
   12376:	0f 82 74 01 00 00    	jb     124f0 <_ZN4Code10mulPackAddERKN5Xbyak6RegExpERKNS0_3XmmEiS3_RKNS0_5Reg64ERKNS0_4util4PackE+0x23d0>
   1237c:	83 7d 20 03          	cmpl   $0x3,0x20(%rbp)
   12380:	0f 85 d8 05 00 00    	jne    1295e <_ZN4Code10mulPackAddERKN5Xbyak6RegExpERKNS0_3XmmEiS3_RKNS0_5Reg64ERKNS0_4util4PackE+0x283e>
   12386:	48 8b 7d 68          	mov    0x68(%rbp),%rdi
   1238a:	4d 01 c0             	add    %r8,%r8
   1238d:	b8 00 10 00 00       	mov    $0x1000,%eax
   12392:	49 81 f8 00 10 00 00 	cmp    $0x1000,%r8
   12399:	4c 0f 42 c0          	cmovb  %rax,%r8
   1239d:	48 8b 07             	mov    (%rdi),%rax
   123a0:	4c 89 44 24 18       	mov    %r8,0x18(%rsp)
   123a5:	4c 89 c6             	mov    %r8,%rsi
   123a8:	ff 10                	callq  *(%rax)
   123aa:	49 89 c6             	mov    %rax,%r14
   123ad:	48 85 c0             	test   %rax,%rax
   123b0:	0f 84 21 06 00 00    	je     129d7 <_ZN4Code10mulPackAddERKN5Xbyak6RegExpERKNS0_3XmmEiS3_RKNS0_5Reg64ERKNS0_4util4PackE+0x28b7>
   123b6:	31 d2                	xor    %edx,%edx
   123b8:	48 83 bd 80 00 00 00 	cmpq   $0x0,0x80(%rbp)
   123bf:	00 
   123c0:	4c 8b 44 24 18       	mov    0x18(%rsp),%r8
   123c5:	74 22                	je     123e9 <_ZN4Code10mulPackAddERKN5Xbyak6RegExpERKNS0_3XmmEiS3_RKNS0_5Reg64ERKNS0_4util4PackE+0x22c9>
   123c7:	66 0f 1f 84 00 00 00 	nopw   0x0(%rax,%rax,1)
   123ce:	00 00 
   123d0:	48 8b 45 78          	mov    0x78(%rbp),%rax
   123d4:	0f b6 04 10          	movzbl (%rax,%rdx,1),%eax
   123d8:	41 88 04 16          	mov    %al,(%r14,%rdx,1)
   123dc:	48 83 c2 01          	add    $0x1,%rdx
   123e0:	48 39 95 80 00 00 00 	cmp    %rdx,0x80(%rbp)
   123e7:	77 e7                	ja     123d0 <_ZN4Code10mulPackAddERKN5Xbyak6RegExpERKNS0_3XmmEiS3_RKNS0_5Reg64ERKNS0_4util4PackE+0x22b0>
   123e9:	48 8b 7d 68          	mov    0x68(%rbp),%rdi
   123ed:	48 8b 75 78          	mov    0x78(%rbp),%rsi
   123f1:	4c 89 44 24 18       	mov    %r8,0x18(%rsp)
   123f6:	48 8b 07             	mov    (%rdi),%rax
   123f9:	ff 50 08             	callq  *0x8(%rax)
   123fc:	4c 8b 44 24 18       	mov    0x18(%rsp),%r8
   12401:	4c 89 75 78          	mov    %r14,0x78(%rbp)
   12405:	48 8b 85 80 00 00 00 	mov    0x80(%rbp),%rax
   1240c:	4c 89 45 70          	mov    %r8,0x70(%rbp)
   12410:	48 8d 50 01          	lea    0x1(%rax),%rdx
   12414:	48 89 95 80 00 00 00 	mov    %rdx,0x80(%rbp)
   1241b:	41 c6 04 06 67       	movb   $0x67,(%r14,%rax,1)
   12420:	0f b7 85 f8 04 00 00 	movzwl 0x4f8(%rbp),%eax
   12427:	66 c1 e8 06          	shr    $0x6,%ax
   1242b:	e9 58 fb ff ff       	jmpq   11f88 <_ZN4Code10mulPackAddERKN5Xbyak6RegExpERKNS0_3XmmEiS3_RKNS0_5Reg64ERKNS0_4util4PackE+0x1e68>
   12430:	41 b9 04 00 00 00    	mov    $0x4,%r9d
   12436:	31 ff                	xor    %edi,%edi
   12438:	e9 8d e6 ff ff       	jmpq   10aca <_ZN4Code10mulPackAddERKN5Xbyak6RegExpERKNS0_3XmmEiS3_RKNS0_5Reg64ERKNS0_4util4PackE+0x9aa>
   1243d:	0f 1f 00             	nopl   (%rax)
   12440:	83 bc 24 18 01 00 00 	cmpl   $0x2,0x118(%rsp)
   12447:	02 
   12448:	0f 85 05 e3 ff ff    	jne    10753 <_ZN4Code10mulPackAddERKN5Xbyak6RegExpERKNS0_3XmmEiS3_RKNS0_5Reg64ERKNS0_4util4PackE+0x633>
   1244e:	8b 84 24 10 01 00 00 	mov    0x110(%rsp),%eax
   12455:	c7 84 24 50 01 00 00 	movl   $0x1,0x150(%rsp)
   1245c:	01 00 00 00 
   12460:	89 84 24 40 01 00 00 	mov    %eax,0x140(%rsp)
   12467:	0f b6 84 24 14 01 00 	movzbl 0x114(%rsp),%eax
   1246e:	00 
   1246f:	88 84 24 44 01 00 00 	mov    %al,0x144(%rsp)
   12476:	e9 d8 e2 ff ff       	jmpq   10753 <_ZN4Code10mulPackAddERKN5Xbyak6RegExpERKNS0_3XmmEiS3_RKNS0_5Reg64ERKNS0_4util4PackE+0x633>
   1247b:	0f 1f 44 00 00       	nopl   0x0(%rax,%rax,1)
   12480:	45 09 ce             	or     %r9d,%r14d
   12483:	66 85 c0             	test   %ax,%ax
   12486:	0f 84 9b e6 ff ff    	je     10b27 <_ZN4Code10mulPackAddERKN5Xbyak6RegExpERKNS0_3XmmEiS3_RKNS0_5Reg64ERKNS0_4util4PackE+0xa07>
   1248c:	41 83 e0 40          	and    $0x40,%r8d
   12490:	0f 84 91 e6 ff ff    	je     10b27 <_ZN4Code10mulPackAddERKN5Xbyak6RegExpERKNS0_3XmmEiS3_RKNS0_5Reg64ERKNS0_4util4PackE+0xa07>
   12496:	41 83 ce 08          	or     $0x8,%r14d
   1249a:	e9 88 e6 ff ff       	jmpq   10b27 <_ZN4Code10mulPackAddERKN5Xbyak6RegExpERKNS0_3XmmEiS3_RKNS0_5Reg64ERKNS0_4util4PackE+0xa07>
   1249f:	90                   	nop
   124a0:	48 8b 45 78          	mov    0x78(%rbp),%rax
   124a4:	e9 c1 fd ff ff       	jmpq   1226a <_ZN4Code10mulPackAddERKN5Xbyak6RegExpERKNS0_3XmmEiS3_RKNS0_5Reg64ERKNS0_4util4PackE+0x214a>
   124a9:	0f 1f 80 00 00 00 00 	nopl   0x0(%rax)
   124b0:	0f b6 8c 24 50 01 00 	movzbl 0x150(%rsp),%ecx
   124b7:	00 
   124b8:	83 e1 1f             	and    $0x1f,%ecx
   124bb:	80 f9 04             	cmp    $0x4,%cl
   124be:	0f 84 9f 04 00 00    	je     12963 <_ZN4Code10mulPackAddERKN5Xbyak6RegExpERKNS0_3XmmEiS3_RKNS0_5Reg64ERKNS0_4util4PackE+0x2843>
   124c4:	39 d0                	cmp    %edx,%eax
   124c6:	0f 84 ce f8 ff ff    	je     11d9a <_ZN4Code10mulPackAddERKN5Xbyak6RegExpERKNS0_3XmmEiS3_RKNS0_5Reg64ERKNS0_4util4PackE+0x1c7a>
   124cc:	85 c0                	test   %eax,%eax
   124ce:	0f 84 c6 f8 ff ff    	je     11d9a <_ZN4Code10mulPackAddERKN5Xbyak6RegExpERKNS0_3XmmEiS3_RKNS0_5Reg64ERKNS0_4util4PackE+0x1c7a>
   124d4:	e9 fc f9 ff ff       	jmpq   11ed5 <_ZN4Code10mulPackAddERKN5Xbyak6RegExpERKNS0_3XmmEiS3_RKNS0_5Reg64ERKNS0_4util4PackE+0x1db5>
   124d9:	0f 1f 80 00 00 00 00 	nopl   0x0(%rax)
   124e0:	48 8b 45 78          	mov    0x78(%rbp),%rax
   124e4:	e9 b9 fc ff ff       	jmpq   121a2 <_ZN4Code10mulPackAddERKN5Xbyak6RegExpERKNS0_3XmmEiS3_RKNS0_5Reg64ERKNS0_4util4PackE+0x2082>
   124e9:	0f 1f 80 00 00 00 00 	nopl   0x0(%rax)
   124f0:	4c 8b 75 78          	mov    0x78(%rbp),%r14
   124f4:	e9 17 ff ff ff       	jmpq   12410 <_ZN4Code10mulPackAddERKN5Xbyak6RegExpERKNS0_3XmmEiS3_RKNS0_5Reg64ERKNS0_4util4PackE+0x22f0>
   124f9:	0f 1f 80 00 00 00 00 	nopl   0x0(%rax)
   12500:	4c 8b 75 78          	mov    0x78(%rbp),%r14
   12504:	e9 27 fe ff ff       	jmpq   12330 <_ZN4Code10mulPackAddERKN5Xbyak6RegExpERKNS0_3XmmEiS3_RKNS0_5Reg64ERKNS0_4util4PackE+0x2210>
   12509:	0f 1f 80 00 00 00 00 	nopl   0x0(%rax)
   12510:	b8 44 00 00 00       	mov    $0x44,%eax
   12515:	e9 40 f1 ff ff       	jmpq   1165a <_ZN4Code10mulPackAddERKN5Xbyak6RegExpERKNS0_3XmmEiS3_RKNS0_5Reg64ERKNS0_4util4PackE+0x153a>
   1251a:	66 0f 1f 44 00 00    	nopw   0x0(%rax,%rax,1)
   12520:	b8 44 00 00 00       	mov    $0x44,%eax
   12525:	e9 dd fa ff ff       	jmpq   12007 <_ZN4Code10mulPackAddERKN5Xbyak6RegExpERKNS0_3XmmEiS3_RKNS0_5Reg64ERKNS0_4util4PackE+0x1ee7>
   1252a:	66 0f 1f 44 00 00    	nopw   0x0(%rax,%rax,1)
   12530:	83 e2 01             	and    $0x1,%edx
   12533:	0f 84 5b df ff ff    	je     10494 <_ZN4Code10mulPackAddERKN5Xbyak6RegExpERKNS0_3XmmEiS3_RKNS0_5Reg64ERKNS0_4util4PackE+0x374>
   12539:	f6 85 f8 04 00 00 80 	testb  $0x80,0x4f8(%rbp)
   12540:	0f 84 4e df ff ff    	je     10494 <_ZN4Code10mulPackAddERKN5Xbyak6RegExpERKNS0_3XmmEiS3_RKNS0_5Reg64ERKNS0_4util4PackE+0x374>
   12546:	41 83 7c 24 30 01    	cmpl   $0x1,0x30(%r12)
   1254c:	0f 84 8a 04 00 00    	je     129dc <_ZN4Code10mulPackAddERKN5Xbyak6RegExpERKNS0_3XmmEiS3_RKNS0_5Reg64ERKNS0_4util4PackE+0x28bc>
   12552:	48 8b 54 24 10       	mov    0x10(%rsp),%rdx
   12557:	4c 89 e6             	mov    %r12,%rsi
   1255a:	48 89 ef             	mov    %rbp,%rdi
   1255d:	e8 5e 5a ff ff       	callq  7fc0 <_ZN5Xbyak13CodeGenerator3rexERKNS_7OperandES3_>
   12562:	0f b7 b5 fa 04 00 00 	movzwl 0x4fa(%rbp),%esi
   12569:	48 89 ef             	mov    %rbp,%rdi
   1256c:	66 81 e6 ff 3f       	and    $0x3fff,%si
   12571:	66 c1 ee 03          	shr    $0x3,%si
   12575:	83 f6 01             	xor    $0x1,%esi
   12578:	83 e6 01             	and    $0x1,%esi
   1257b:	83 ce 10             	or     $0x10,%esi
   1257e:	e8 6d 59 ff ff       	callq  7ef0 <_ZN5Xbyak9CodeArray2dbEi>
   12583:	45 31 c9             	xor    %r9d,%r9d
   12586:	45 31 c0             	xor    %r8d,%r8d
   12589:	31 c9                	xor    %ecx,%ecx
   1258b:	0f b6 95 f8 04 00 00 	movzbl 0x4f8(%rbp),%edx
   12592:	4c 89 e6             	mov    %r12,%rsi
   12595:	48 89 ef             	mov    %rbp,%rdi
   12598:	83 e2 1f             	and    $0x1f,%edx
   1259b:	e8 90 94 ff ff       	callq  ba30 <_ZN5Xbyak13CodeGenerator6opAddrERKNS_7AddressEiiib>
   125a0:	e9 cb ef ff ff       	jmpq   11570 <_ZN4Code10mulPackAddERKN5Xbyak6RegExpERKNS0_3XmmEiS3_RKNS0_5Reg64ERKNS0_4util4PackE+0x1450>
   125a5:	0f 1f 00             	nopl   (%rax)
   125a8:	83 bd 28 05 00 00 01 	cmpl   $0x1,0x528(%rbp)
   125af:	0f 84 27 04 00 00    	je     129dc <_ZN4Code10mulPackAddERKN5Xbyak6RegExpERKNS0_3XmmEiS3_RKNS0_5Reg64ERKNS0_4util4PackE+0x28bc>
   125b5:	48 8b 5c 24 10       	mov    0x10(%rsp),%rbx
   125ba:	4c 89 e2             	mov    %r12,%rdx
   125bd:	48 89 ef             	mov    %rbp,%rdi
   125c0:	48 89 de             	mov    %rbx,%rsi
   125c3:	e8 f8 59 ff ff       	callq  7fc0 <_ZN5Xbyak13CodeGenerator3rexERKNS_7OperandES3_>
   125c8:	48 89 ef             	mov    %rbp,%rdi
   125cb:	be 0f 00 00 00       	mov    $0xf,%esi
   125d0:	e8 1b 59 ff ff       	callq  7ef0 <_ZN5Xbyak9CodeArray2dbEi>
   125d5:	48 89 ef             	mov    %rbp,%rdi
   125d8:	be 38 00 00 00       	mov    $0x38,%esi
   125dd:	e8 0e 59 ff ff       	callq  7ef0 <_ZN5Xbyak9CodeArray2dbEi>
   125e2:	48 89 ef             	mov    %rbp,%rdi
   125e5:	be f6 00 00 00       	mov    $0xf6,%esi
   125ea:	e8 01 59 ff ff       	callq  7ef0 <_ZN5Xbyak9CodeArray2dbEi>
   125ef:	41 0f b6 14 24       	movzbl (%r12),%edx
   125f4:	45 31 c9             	xor    %r9d,%r9d
   125f7:	45 31 c0             	xor    %r8d,%r8d
   125fa:	31 c9                	xor    %ecx,%ecx
   125fc:	48 89 de             	mov    %rbx,%rsi
   125ff:	48 89 ef             	mov    %rbp,%rdi
   12602:	83 e2 1f             	and    $0x1f,%edx
   12605:	e8 26 94 ff ff       	callq  ba30 <_ZN5Xbyak13CodeGenerator6opAddrERKNS_7AddressEiiib>
   1260a:	e9 dd ee ff ff       	jmpq   114ec <_ZN4Code10mulPackAddERKN5Xbyak6RegExpERKNS0_3XmmEiS3_RKNS0_5Reg64ERKNS0_4util4PackE+0x13cc>
   1260f:	90                   	nop
   12610:	83 e2 01             	and    $0x1,%edx
   12613:	0f 84 7f 03 00 00    	je     12998 <_ZN4Code10mulPackAddERKN5Xbyak6RegExpERKNS0_3XmmEiS3_RKNS0_5Reg64ERKNS0_4util4PackE+0x2878>
   12619:	0f b7 85 fa 04 00 00 	movzwl 0x4fa(%rbp),%eax
   12620:	66 25 ff 3f          	and    $0x3fff,%ax
   12624:	0f 84 a3 03 00 00    	je     129cd <_ZN4Code10mulPackAddERKN5Xbyak6RegExpERKNS0_3XmmEiS3_RKNS0_5Reg64ERKNS0_4util4PackE+0x28ad>
   1262a:	0f b7 c0             	movzwl %ax,%eax
   1262d:	8b 94 24 40 01 00 00 	mov    0x140(%rsp),%edx
   12634:	bb 04 00 00 00       	mov    $0x4,%ebx
   12639:	41 89 c5             	mov    %eax,%r13d
   1263c:	41 c1 ed 03          	shr    $0x3,%r13d
   12640:	83 f8 27             	cmp    $0x27,%eax
   12643:	49 0f 46 dd          	cmovbe %r13,%rbx
   12647:	c1 e0 10             	shl    $0x10,%eax
   1264a:	81 e2 00 00 00 80    	and    $0x80000000,%edx
   12650:	80 a4 24 44 01 00 00 	andb   $0xc0,0x144(%rsp)
   12657:	c0 
   12658:	0c 80                	or     $0x80,%al
   1265a:	09 d0                	or     %edx,%eax
   1265c:	83 bd 28 05 00 00 01 	cmpl   $0x1,0x528(%rbp)
   12663:	89 84 24 40 01 00 00 	mov    %eax,0x140(%rsp)
   1266a:	0f 84 6c 03 00 00    	je     129dc <_ZN4Code10mulPackAddERKN5Xbyak6RegExpERKNS0_3XmmEiS3_RKNS0_5Reg64ERKNS0_4util4PackE+0x28bc>
   12670:	4c 8b 7c 24 10       	mov    0x10(%rsp),%r15
   12675:	48 8d 94 24 40 01 00 	lea    0x140(%rsp),%rdx
   1267c:	00 
   1267d:	48 89 ef             	mov    %rbp,%rdi
   12680:	4c 89 fe             	mov    %r15,%rsi
   12683:	e8 38 59 ff ff       	callq  7fc0 <_ZN5Xbyak13CodeGenerator3rexERKNS_7OperandES3_>
   12688:	0f b7 84 24 42 01 00 	movzwl 0x142(%rsp),%eax
   1268f:	00 
   12690:	48 89 ef             	mov    %rbp,%rdi
   12693:	66 25 ff 3f          	and    $0x3fff,%ax
   12697:	89 c6                	mov    %eax,%esi
   12699:	66 c1 ee 03          	shr    $0x3,%si
   1269d:	83 f6 01             	xor    $0x1,%esi
   126a0:	83 e6 01             	and    $0x1,%esi
   126a3:	40 80 ce c6          	or     $0xc6,%sil
   126a7:	e8 44 58 ff ff       	callq  7ef0 <_ZN5Xbyak9CodeArray2dbEi>
   126ac:	45 31 c9             	xor    %r9d,%r9d
   126af:	45 31 c0             	xor    %r8d,%r8d
   126b2:	89 d9                	mov    %ebx,%ecx
   126b4:	0f b6 94 24 40 01 00 	movzbl 0x140(%rsp),%edx
   126bb:	00 
   126bc:	4c 89 fe             	mov    %r15,%rsi
   126bf:	48 89 ef             	mov    %rbp,%rdi
   126c2:	83 e2 1f             	and    $0x1f,%edx
   126c5:	e8 66 93 ff ff       	callq  ba30 <_ZN5Xbyak13CodeGenerator6opAddrERKNS_7AddressEiiib>
   126ca:	45 85 ed             	test   %r13d,%r13d
   126cd:	0f 84 60 ed ff ff    	je     11433 <_ZN4Code10mulPackAddERKN5Xbyak6RegExpERKNS0_3XmmEiS3_RKNS0_5Reg64ERKNS0_4util4PackE+0x1313>
   126d3:	48 8b 85 80 00 00 00 	mov    0x80(%rbp),%rax
   126da:	4c 8b 7d 70          	mov    0x70(%rbp),%r15
   126de:	45 31 ed             	xor    %r13d,%r13d
   126e1:	4c 39 f8             	cmp    %r15,%rax
   126e4:	0f 82 b5 00 00 00    	jb     1279f <_ZN4Code10mulPackAddERKN5Xbyak6RegExpERKNS0_3XmmEiS3_RKNS0_5Reg64ERKNS0_4util4PackE+0x267f>
   126ea:	66 0f 1f 44 00 00    	nopw   0x0(%rax,%rax,1)
   126f0:	83 7d 20 03          	cmpl   $0x3,0x20(%rbp)
   126f4:	0f 85 64 02 00 00    	jne    1295e <_ZN4Code10mulPackAddERKN5Xbyak6RegExpERKNS0_3XmmEiS3_RKNS0_5Reg64ERKNS0_4util4PackE+0x283e>
   126fa:	48 8b 7d 68          	mov    0x68(%rbp),%rdi
   126fe:	4d 01 ff             	add    %r15,%r15
   12701:	b8 00 10 00 00       	mov    $0x1000,%eax
   12706:	49 81 ff 00 10 00 00 	cmp    $0x1000,%r15
   1270d:	4c 0f 42 f8          	cmovb  %rax,%r15
   12711:	48 8b 07             	mov    (%rdi),%rax
   12714:	4c 89 fe             	mov    %r15,%rsi
   12717:	ff 10                	callq  *(%rax)
   12719:	49 89 c6             	mov    %rax,%r14
   1271c:	48 85 c0             	test   %rax,%rax
   1271f:	0f 84 b2 02 00 00    	je     129d7 <_ZN4Code10mulPackAddERKN5Xbyak6RegExpERKNS0_3XmmEiS3_RKNS0_5Reg64ERKNS0_4util4PackE+0x28b7>
   12725:	31 d2                	xor    %edx,%edx
   12727:	48 83 bd 80 00 00 00 	cmpq   $0x0,0x80(%rbp)
   1272e:	00 
   1272f:	74 20                	je     12751 <_ZN4Code10mulPackAddERKN5Xbyak6RegExpERKNS0_3XmmEiS3_RKNS0_5Reg64ERKNS0_4util4PackE+0x2631>
   12731:	0f 1f 80 00 00 00 00 	nopl   0x0(%rax)
   12738:	48 8b 45 78          	mov    0x78(%rbp),%rax
   1273c:	0f b6 04 10          	movzbl (%rax,%rdx,1),%eax
   12740:	41 88 04 16          	mov    %al,(%r14,%rdx,1)
   12744:	48 83 c2 01          	add    $0x1,%rdx
   12748:	48 39 95 80 00 00 00 	cmp    %rdx,0x80(%rbp)
   1274f:	77 e7                	ja     12738 <_ZN4Code10mulPackAddERKN5Xbyak6RegExpERKNS0_3XmmEiS3_RKNS0_5Reg64ERKNS0_4util4PackE+0x2618>
   12751:	48 8b 7d 68          	mov    0x68(%rbp),%rdi
   12755:	48 8b 75 78          	mov    0x78(%rbp),%rsi
   12759:	48 8b 07             	mov    (%rdi),%rax
   1275c:	ff 50 08             	callq  *0x8(%rax)
   1275f:	4c 89 75 78          	mov    %r14,0x78(%rbp)
   12763:	48 8b 85 80 00 00 00 	mov    0x80(%rbp),%rax
   1276a:	4c 89 7d 70          	mov    %r15,0x70(%rbp)
   1276e:	48 8d 50 01          	lea    0x1(%rax),%rdx
   12772:	49 83 c5 01          	add    $0x1,%r13
   12776:	48 89 95 80 00 00 00 	mov    %rdx,0x80(%rbp)
   1277d:	41 c6 04 06 00       	movb   $0x0,(%r14,%rax,1)
   12782:	4c 39 eb             	cmp    %r13,%rbx
   12785:	0f 84 a8 ec ff ff    	je     11433 <_ZN4Code10mulPackAddERKN5Xbyak6RegExpERKNS0_3XmmEiS3_RKNS0_5Reg64ERKNS0_4util4PackE+0x1313>
   1278b:	48 8b 85 80 00 00 00 	mov    0x80(%rbp),%rax
   12792:	4c 8b 7d 70          	mov    0x70(%rbp),%r15
   12796:	4c 39 f8             	cmp    %r15,%rax
   12799:	0f 83 51 ff ff ff    	jae    126f0 <_ZN4Code10mulPackAddERKN5Xbyak6RegExpERKNS0_3XmmEiS3_RKNS0_5Reg64ERKNS0_4util4PackE+0x25d0>
   1279f:	4c 8b 75 78          	mov    0x78(%rbp),%r14
   127a3:	eb c9                	jmp    1276e <_ZN4Code10mulPackAddERKN5Xbyak6RegExpERKNS0_3XmmEiS3_RKNS0_5Reg64ERKNS0_4util4PackE+0x264e>
   127a5:	0f 1f 00             	nopl   (%rax)
   127a8:	48 8b 74 24 10       	mov    0x10(%rsp),%rsi
   127ad:	48 8d 94 24 40 01 00 	lea    0x140(%rsp),%rdx
   127b4:	00 
   127b5:	48 89 ef             	mov    %rbp,%rdi
   127b8:	e8 03 58 ff ff       	callq  7fc0 <_ZN5Xbyak13CodeGenerator3rexERKNS_7OperandES3_>
   127bd:	44 89 ee             	mov    %r13d,%esi
   127c0:	48 89 ef             	mov    %rbp,%rdi
   127c3:	e8 28 57 ff ff       	callq  7ef0 <_ZN5Xbyak9CodeArray2dbEi>
   127c8:	89 d8                	mov    %ebx,%eax
   127ca:	c1 f8 03             	sar    $0x3,%eax
   127cd:	48 63 d8             	movslq %eax,%rbx
   127d0:	83 f8 08             	cmp    $0x8,%eax
   127d3:	0f 8f 12 02 00 00    	jg     129eb <_ZN4Code10mulPackAddERKN5Xbyak6RegExpERKNS0_3XmmEiS3_RKNS0_5Reg64ERKNS0_4util4PackE+0x28cb>
   127d9:	85 c0                	test   %eax,%eax
   127db:	0f 85 9f eb ff ff    	jne    11380 <_ZN4Code10mulPackAddERKN5Xbyak6RegExpERKNS0_3XmmEiS3_RKNS0_5Reg64ERKNS0_4util4PackE+0x1260>
   127e1:	e9 4d ec ff ff       	jmpq   11433 <_ZN4Code10mulPackAddERKN5Xbyak6RegExpERKNS0_3XmmEiS3_RKNS0_5Reg64ERKNS0_4util4PackE+0x1313>
   127e6:	66 2e 0f 1f 84 00 00 	nopw   %cs:0x0(%rax,%rax,1)
   127ed:	00 00 00 
   127f0:	84 c0                	test   %al,%al
   127f2:	41 0f 95 c6          	setne  %r14b
   127f6:	41 83 c6 42          	add    $0x42,%r14d
   127fa:	e9 26 ee ff ff       	jmpq   11625 <_ZN4Code10mulPackAddERKN5Xbyak6RegExpERKNS0_3XmmEiS3_RKNS0_5Reg64ERKNS0_4util4PackE+0x1505>
   127ff:	90                   	nop
   12800:	84 d2                	test   %dl,%dl
   12802:	41 0f 95 c6          	setne  %r14b
   12806:	41 83 c6 42          	add    $0x42,%r14d
   1280a:	e9 c5 f7 ff ff       	jmpq   11fd4 <_ZN4Code10mulPackAddERKN5Xbyak6RegExpERKNS0_3XmmEiS3_RKNS0_5Reg64ERKNS0_4util4PackE+0x1eb4>
   1280f:	90                   	nop
   12810:	0f b6 8c 24 d0 00 00 	movzbl 0xd0(%rsp),%ecx
   12817:	00 
   12818:	83 e1 1f             	and    $0x1f,%ecx
   1281b:	80 f9 04             	cmp    $0x4,%cl
   1281e:	0f 84 3f 01 00 00    	je     12963 <_ZN4Code10mulPackAddERKN5Xbyak6RegExpERKNS0_3XmmEiS3_RKNS0_5Reg64ERKNS0_4util4PackE+0x2843>
   12824:	39 d0                	cmp    %edx,%eax
   12826:	0f 84 44 dc ff ff    	je     10470 <_ZN4Code10mulPackAddERKN5Xbyak6RegExpERKNS0_3XmmEiS3_RKNS0_5Reg64ERKNS0_4util4PackE+0x350>
   1282c:	85 c0                	test   %eax,%eax
   1282e:	0f 84 3c dc ff ff    	je     10470 <_ZN4Code10mulPackAddERKN5Xbyak6RegExpERKNS0_3XmmEiS3_RKNS0_5Reg64ERKNS0_4util4PackE+0x350>
   12834:	e9 9c f6 ff ff       	jmpq   11ed5 <_ZN4Code10mulPackAddERKN5Xbyak6RegExpERKNS0_3XmmEiS3_RKNS0_5Reg64ERKNS0_4util4PackE+0x1db5>
   12839:	0f 1f 80 00 00 00 00 	nopl   0x0(%rax)
   12840:	f6 c2 01             	test   $0x1,%dl
   12843:	0f 85 fe 00 00 00    	jne    12947 <_ZN4Code10mulPackAddERKN5Xbyak6RegExpERKNS0_3XmmEiS3_RKNS0_5Reg64ERKNS0_4util4PackE+0x2827>
   12849:	66 39 ca             	cmp    %cx,%dx
   1284c:	0f 85 42 dc ff ff    	jne    10494 <_ZN4Code10mulPackAddERKN5Xbyak6RegExpERKNS0_3XmmEiS3_RKNS0_5Reg64ERKNS0_4util4PackE+0x374>
   12852:	48 8b 54 24 10       	mov    0x10(%rsp),%rdx
   12857:	4c 89 e6             	mov    %r12,%rsi
   1285a:	48 89 ef             	mov    %rbp,%rdi
   1285d:	e8 5e 57 ff ff       	callq  7fc0 <_ZN5Xbyak13CodeGenerator3rexERKNS_7OperandES3_>
   12862:	0f b7 b5 fa 04 00 00 	movzwl 0x4fa(%rbp),%esi
   12869:	48 89 ef             	mov    %rbp,%rdi
   1286c:	66 81 e6 ff 3f       	and    $0x3fff,%si
   12871:	66 c1 ee 03          	shr    $0x3,%si
   12875:	83 f6 01             	xor    $0x1,%esi
   12878:	83 e6 01             	and    $0x1,%esi
   1287b:	83 ce 10             	or     $0x10,%esi
   1287e:	e8 6d 56 ff ff       	callq  7ef0 <_ZN5Xbyak9CodeArray2dbEi>
   12883:	0f b6 85 f8 04 00 00 	movzbl 0x4f8(%rbp),%eax
   1288a:	48 89 ef             	mov    %rbp,%rdi
   1288d:	8d 34 c5 00 00 00 00 	lea    0x0(,%rax,8),%esi
   12894:	41 0f b6 04 24       	movzbl (%r12),%eax
   12899:	83 e6 38             	and    $0x38,%esi
   1289c:	83 e0 07             	and    $0x7,%eax
   1289f:	09 c6                	or     %eax,%esi
   128a1:	83 ce c0             	or     $0xffffffc0,%esi
   128a4:	40 0f b6 f6          	movzbl %sil,%esi
   128a8:	e8 43 56 ff ff       	callq  7ef0 <_ZN5Xbyak9CodeArray2dbEi>
   128ad:	e9 be ec ff ff       	jmpq   11570 <_ZN4Code10mulPackAddERKN5Xbyak6RegExpERKNS0_3XmmEiS3_RKNS0_5Reg64ERKNS0_4util4PackE+0x1450>
   128b2:	66 0f 1f 44 00 00    	nopw   0x0(%rax,%rax,1)
   128b8:	0f b7 85 fa 04 00 00 	movzwl 0x4fa(%rbp),%eax
   128bf:	89 c6                	mov    %eax,%esi
   128c1:	66 81 e6 ff 3f       	and    $0x3fff,%si
   128c6:	a8 60                	test   $0x60,%al
   128c8:	0f 84 9a eb ff ff    	je     11468 <_ZN4Code10mulPackAddERKN5Xbyak6RegExpERKNS0_3XmmEiS3_RKNS0_5Reg64ERKNS0_4util4PackE+0x1348>
   128ce:	66 39 f2             	cmp    %si,%dx
   128d1:	0f 85 91 eb ff ff    	jne    11468 <_ZN4Code10mulPackAddERKN5Xbyak6RegExpERKNS0_3XmmEiS3_RKNS0_5Reg64ERKNS0_4util4PackE+0x1348>
   128d7:	e9 95 eb ff ff       	jmpq   11471 <_ZN4Code10mulPackAddERKN5Xbyak6RegExpERKNS0_3XmmEiS3_RKNS0_5Reg64ERKNS0_4util4PackE+0x1351>
   128dc:	0f 1f 40 00          	nopl   0x0(%rax)
   128e0:	84 d2                	test   %dl,%dl
   128e2:	0f 85 d0 de ff ff    	jne    107b8 <_ZN4Code10mulPackAddERKN5Xbyak6RegExpERKNS0_3XmmEiS3_RKNS0_5Reg64ERKNS0_4util4PackE+0x698>
   128e8:	e9 c1 df ff ff       	jmpq   108ae <_ZN4Code10mulPackAddERKN5Xbyak6RegExpERKNS0_3XmmEiS3_RKNS0_5Reg64ERKNS0_4util4PackE+0x78e>
   128ed:	8b 4c 24 08          	mov    0x8(%rsp),%ecx
   128f1:	48 8b 05 d8 66 00 00 	mov    0x66d8(%rip),%rax        # 18fd0 <stderr@GLIBC_2.2.5>
   128f8:	48 8d 15 26 29 00 00 	lea    0x2926(%rip),%rdx        # 15225 <_IO_stdin_used+0x225>
   128ff:	be 01 00 00 00       	mov    $0x1,%esi
   12904:	48 8b 38             	mov    (%rax),%rdi
   12907:	31 c0                	xor    %eax,%eax
   12909:	e8 32 0d ff ff       	callq  3640 <__fprintf_chk@plt>
   1290e:	bf 10 00 00 00       	mov    $0x10,%edi
   12913:	e8 08 0b ff ff       	callq  3420 <__cxa_allocate_exception@plt>
   12918:	48 8d 15 e1 49 ff ff 	lea    -0xb61f(%rip),%rdx        # 7300 <_ZN5Xbyak5ErrorD1Ev>
   1291f:	48 8d 35 1a 61 00 00 	lea    0x611a(%rip),%rsi        # 18a40 <_ZTVN10__cxxabiv120__si_class_type_infoE@CXXABI_1.3>
   12926:	48 89 c7             	mov    %rax,%rdi
   12929:	48 8d 05 c8 61 00 00 	lea    0x61c8(%rip),%rax        # 18af8 <_ZTVN5Xbyak5ErrorE>
   12930:	c7 47 08 0d 00 00 00 	movl   $0xd,0x8(%rdi)
   12937:	48 83 c0 10          	add    $0x10,%rax
   1293b:	48 89 07             	mov    %rax,(%rdi)
   1293e:	e8 1d 0d ff ff       	callq  3660 <__cxa_throw@plt>
   12943:	31 c9                	xor    %ecx,%ecx
   12945:	eb aa                	jmp    128f1 <_ZN4Code10mulPackAddERKN5Xbyak6RegExpERKNS0_3XmmEiS3_RKNS0_5Reg64ERKNS0_4util4PackE+0x27d1>
   12947:	f6 c1 02             	test   $0x2,%cl
   1294a:	0f 84 f9 fe ff ff    	je     12849 <_ZN4Code10mulPackAddERKN5Xbyak6RegExpERKNS0_3XmmEiS3_RKNS0_5Reg64ERKNS0_4util4PackE+0x2729>
   12950:	66 39 ca             	cmp    %cx,%dx
   12953:	0f 85 ed fb ff ff    	jne    12546 <_ZN4Code10mulPackAddERKN5Xbyak6RegExpERKNS0_3XmmEiS3_RKNS0_5Reg64ERKNS0_4util4PackE+0x2426>
   12959:	e9 f4 fe ff ff       	jmpq   12852 <_ZN4Code10mulPackAddERKN5Xbyak6RegExpERKNS0_3XmmEiS3_RKNS0_5Reg64ERKNS0_4util4PackE+0x2732>
   1295e:	e8 6f 0e ff ff       	callq  37d2 <_ZN5Xbyak9CodeArray2dbEi.part.0>
   12963:	bf 10 00 00 00       	mov    $0x10,%edi
   12968:	e8 b3 0a ff ff       	callq  3420 <__cxa_allocate_exception@plt>
   1296d:	48 8d 15 8c 49 ff ff 	lea    -0xb674(%rip),%rdx        # 7300 <_ZN5Xbyak5ErrorD1Ev>
   12974:	48 8d 35 c5 60 00 00 	lea    0x60c5(%rip),%rsi        # 18a40 <_ZTVN10__cxxabiv120__si_class_type_infoE@CXXABI_1.3>
   1297b:	48 89 c7             	mov    %rax,%rdi
   1297e:	48 8d 05 73 61 00 00 	lea    0x6173(%rip),%rax        # 18af8 <_ZTVN5Xbyak5ErrorE>
   12985:	c7 47 08 04 00 00 00 	movl   $0x4,0x8(%rdi)
   1298c:	48 83 c0 10          	add    $0x10,%rax
   12990:	48 89 07             	mov    %rax,(%rdi)
   12993:	e8 c8 0c ff ff       	callq  3660 <__cxa_throw@plt>
   12998:	bf 10 00 00 00       	mov    $0x10,%edi
   1299d:	e8 7e 0a ff ff       	callq  3420 <__cxa_allocate_exception@plt>
   129a2:	48 8d 15 57 49 ff ff 	lea    -0xb6a9(%rip),%rdx        # 7300 <_ZN5Xbyak5ErrorD1Ev>
   129a9:	48 8d 35 90 60 00 00 	lea    0x6090(%rip),%rsi        # 18a40 <_ZTVN10__cxxabiv120__si_class_type_infoE@CXXABI_1.3>
   129b0:	48 89 c7             	mov    %rax,%rdi
   129b3:	48 8d 05 3e 61 00 00 	lea    0x613e(%rip),%rax        # 18af8 <_ZTVN5Xbyak5ErrorE>
   129ba:	c7 47 08 05 00 00 00 	movl   $0x5,0x8(%rdi)
   129c1:	48 83 c0 10          	add    $0x10,%rax
   129c5:	48 89 07             	mov    %rax,(%rdi)
   129c8:	e8 93 0c ff ff       	callq  3660 <__cxa_throw@plt>
   129cd:	e8 14 0f ff ff       	callq  38e6 <_ZNK5Xbyak13CodeGenerator16verifyMemHasSizeERKNS_7OperandE.isra.0.part.0>
   129d2:	e8 8b 0d ff ff       	callq  3762 <_ZNK5Xbyak6RegExp6verifyEv.part.0>
   129d7:	e8 be 0d ff ff       	callq  379a <_ZN5Xbyak13MmapAllocator5allocEm.part.0>
   129dc:	e8 75 0f ff ff       	callq  3956 <_ZN5Xbyak13CodeGenerator6opModMERKNS_7AddressERKNS_3RegEiiii.part.0>
   129e1:	e8 94 0e ff ff       	callq  387a <_ZN5Xbyak13CodeGenerator3movERKNS_7OperandES3_.part.0>
   129e6:	e8 8f 0e ff ff       	callq  387a <_ZN5Xbyak13CodeGenerator3movERKNS_7OperandES3_.part.0>
   129eb:	e8 1a 0e ff ff       	callq  380a <_ZN5Xbyak9CodeArray2dbEmm.part.0>